 PatcherLibTestD

 Timestamp is 589fe2d8 (Sat Feb 11 20:21:44 2017)

 Preferred load address is 00400000

 Start         Length     Name                   Class
 0001:00000000 00033c50H .text                   CODE
 0001:00033c50 0001aab5H .text$mn                CODE
 0001:0004e705 0000001bH .text$x                 CODE
 0002:00000000 00000248H .idata$5                DATA
 0002:00000248 00000004H .00cfg                  DATA
 0002:0000024c 00000004H .CRT$XCA                DATA
 0002:00000250 00000004H .CRT$XCAA               DATA
 0002:00000254 000001bcH .CRT$XCU                DATA
 0002:00000410 00000004H .CRT$XCZ                DATA
 0002:00000414 00000004H .CRT$XIA                DATA
 0002:00000418 00000004H .CRT$XIAA               DATA
 0002:0000041c 00000004H .CRT$XIAC               DATA
 0002:00000420 00000014H .CRT$XIC                DATA
 0002:00000434 00000004H .CRT$XIY                DATA
 0002:00000438 00000004H .CRT$XIZ                DATA
 0002:0000043c 00000004H .CRT$XLA                DATA
 0002:00000440 00000004H .CRT$XLB                DATA
 0002:00000444 00000004H .CRT$XLZ                DATA
 0002:00000448 00000004H .CRT$XPA                DATA
 0002:0000044c 0000000cH .CRT$XPX                DATA
 0002:00000458 00000004H .CRT$XPXA               DATA
 0002:0000045c 00000004H .CRT$XPZ                DATA
 0002:00000460 00000004H .CRT$XTA                DATA
 0002:00000464 00000004H .CRT$XTY                DATA
 0002:00000468 00000018H .CRT$XTZ                DATA
 0002:00000480 0000fa14H .rdata                  DATA
 0002:0000fe94 00000018H .rdata$T                DATA
 0002:0000feac 000000e4H .rdata$r                DATA
 0002:0000ff90 000001d8H .rdata$sxdata           DATA
 0002:00010168 00000420H .rdata$zzzdbg           DATA
 0002:00010588 00000004H .rtc$IAA                DATA
 0002:0001058c 00000004H .rtc$IZZ                DATA
 0002:00010590 00000004H .rtc$TAA                DATA
 0002:00010594 00000004H .rtc$TZZ                DATA
 0002:00010598 00001fd8H .xdata                  DATA
 0002:00012570 0000065cH .xdata$x                DATA
 0002:00012bcc 00000000H .edata                  DATA
 0002:00012bcc 00000064H .idata$2                DATA
 0002:00012c30 00000014H .idata$3                DATA
 0002:00012c44 00000248H .idata$4                DATA
 0002:00012e8c 0000089eH .idata$6                DATA
 0003:00000000 000056c0H .data                   DATA
 0003:000056c0 00000060H .data$r                 DATA
 0003:00005720 00000f44H .bss                    DATA
 0004:00000000 00000004H .tls                    DATA
 0004:00000004 000000bdH .tls$                   DATA
 0004:000000c1 00000001H .tls$ZZZ                DATA
 0005:00000000 000000e4H .gfids$y                DATA

  Address         Publics by Value              Rva+Base       Lib:Object

 0000:00000000       ___guard_longjmp_table     00000000     <absolute>
 0000:00000000       ___guard_iat_count         00000000     <absolute>
 0000:00000000       ___guard_fids_count        00000000     <absolute>
 0000:00000000       __except_list              00000000     <absolute>
 0000:00000000       ___guard_fids_table        00000000     <absolute>
 0000:00000000       ___guard_longjmp_count     00000000     <absolute>
 0000:00000000       ___guard_iat_table         00000000     <absolute>
 0000:00000000       ___dynamic_value_reloc_table 00000000     <absolute>
 0000:0000002c       __tls_array                0000002c     <absolute>
 0000:00000076       ___safe_se_handler_count   00000076     <absolute>
 0000:00000100       ___guard_flags             00000100     <absolute>
 0000:00000000       ___ImageBase               00400000     <linker-defined>
 0001:00000000       __Dmain                    00401000 f i PatcherLibTestD.obj
 0001:00000030       __D3std5stdio16__T7writelnTAyaZ7writelnFNfAyaZv 00401030 f i PatcherLibTestD.obj
 0001:000001e0       __D3std5stdio4File17LockingTextWriter12__T3putTAyaZ3putMFNfAyaZv 004011e0 f i PatcherLibTestD.obj
 0001:00000290       __D3std5stdio4File17LockingTextWriter12__T3putTAyaZ3putMFAyaZ14__foreachbody4MFNbNiNfKwZi 00401290 f i PatcherLibTestD.obj
 0001:000002b0       __D3std5stdio4File17LockingTextWriter10__T3putTwZ3putMFNbNiNfwZv 004012b0 f i PatcherLibTestD.obj
 0001:00000380       __D3std11concurrency36__T4ListTS3std11concurrency7MessageZ4List4Node11__xopEqualsFKxS3std11concurrency36__T4ListTS3std11concurrency7MessageZ4List4NodeKxS3std11concurrency36__T4ListTS3std11concurrency7MessageZ4List4NodeZb 00401380 f i PatcherLibTestD.obj
 0001:000003b0       __D3std11concurrency36__T4ListTS3std11concurrency7MessageZ4List4Node9__xtoHashFNbNeKxS3std11concurrency36__T4ListTS3std11concurrency7MessageZ4List4NodeZk 004013b0 f i PatcherLibTestD.obj
 0001:000003e0       __D3std11concurrency36__T4ListTS3std11concurrency7MessageZ4List4Node15__fieldPostblitMFZv 004013e0 f i PatcherLibTestD.obj
 0001:000003f0       __D3std11concurrency36__T4ListTS3std11concurrency7MessageZ4List4Node11__fieldDtorMFZv 004013f0 f i PatcherLibTestD.obj
 0001:00000400       __D3std7variant18__T8VariantNVki16Z8VariantN11__xopEqualsFKxS3std7variant18__T8VariantNVki16Z8VariantNKxS3std7variant18__T8VariantNVki16Z8VariantNZb 00401400 f i PatcherLibTestD.obj
 0001:00000410       __D3std7variant18__T8VariantNVki16Z8VariantN5opCmpMxFKxS3std7variant18__T8VariantNVki16Z8VariantNZi 00401410 f i PatcherLibTestD.obj
 0001:00000480       __D3std7variant18__T8VariantNVki16Z8VariantN10__postblitMFZv 00401480 f i PatcherLibTestD.obj
 0001:00000490       __D3std7variant18__T8VariantNVki16Z8VariantN8toStringMFZAya 00401490 f i PatcherLibTestD.obj
 0001:000004d0       __D3std7variant18__T8VariantNVki16Z8VariantN6toHashMxFNbNfZk 004014d0 f i PatcherLibTestD.obj
 0001:000004f0       __D3std7variant18__T8VariantNVki16Z8VariantN6__dtorMFZv 004014f0 f i PatcherLibTestD.obj
 0001:00000500       _main                      00401500 f i PatcherLibTestD.obj
 0001:00000530       __D3std5stdio4File6__dtorMFNfZv 00401530 f i phobos2-ldc:stdio.obj
 0001:00000550       __D3std5stdio4File10__postblitMFNbNfZv 00401550 f i phobos2-ldc:stdio.obj
 0001:00000560       __D3std8internal7cstring23__T11tempCStringTaTAxaZ11tempCStringFNbNiNfAxaZS3std8internal7cstring23__T11tempCStringTaTAxaZ11tempCStringFAxaZ3Res 00401560 f i phobos2-ldc:stdio.obj
 0001:000006e0       __D3std8internal7cstring23__T11tempCStringTaTAxaZ11tempCStringFAxaZ3Res6__dtorMFNbNiNeZv 004016e0 f i phobos2-ldc:stdio.obj
 0001:000006e0       __D3std8internal7cstring23__T11tempCStringTuTAxaZ11tempCStringFAxaZ3Res6__dtorMFNbNiNeZv 004016e0 f i phobos2-ldc:cstring.obj
 0001:00000700       __D3std5stdio4File5closeMFNeZv 00401700 f i phobos2-ldc:stdio.obj
 0001:000008b0       __D3std5stdio4File5flushMFNeZv 004018b0 f i phobos2-ldc:stdio.obj
 0001:00000950       __D3std5stdio4File17LockingTextWriter6__dtorMFNeZv 00401950 f i phobos2-ldc:stdio.obj
 0001:00000980       __D3std5stdio4File17LockingTextWriter10__postblitMFNeZv 00401980 f i phobos2-ldc:stdio.obj
 0001:00000990       __D3std5stdio4File17lockingTextWriterMFNfZS3std5stdio4File17LockingTextWriter 00401990 f i phobos2-ldc:stdio.obj
 0001:000009f0       __D3std5stdio13trustedStdoutFNdNeZS3std5stdio4File 004019f0 f i phobos2-ldc:stdio.obj
 0001:00000a20       _std_stdio_static_this     00401a20 f i phobos2-ldc:stdio.obj
 0001:00000a70       __D3std9exception25__T7bailOutHTC9ExceptionZ7bailOutFNaNfAyakxAaZv 00401a70 f i phobos2-ldc:stdio.obj
 0001:00000b80       __D3std5range10primitives12__T5emptyTaZ5emptyFNaNbNdNiNfxAaZb 00401b80 f i phobos2-ldc:stdio.obj
 0001:00000b90       __D3std5range10primitives16__T8popFrontTxaZ8popFrontFNaNbNiNeKAxaZv 00401b90 f i phobos2-ldc:stdio.obj
 0001:00000bd0       __D3std5range10primitives13__T5frontTxaZ5frontFNaNdNfAxaZw 00401bd0 f i phobos2-ldc:stdio.obj
 0001:00000c20       __D3std3utf103__T10decodeImplVbi1VE3std8typecons55__T4FlagVAyaa19_7573655265706c6163656d656e744463686172Z4Flagi0TAxaZ10decodeImplFNaKAxaKkZw 00401c20 f i phobos2-ldc:stdio.obj
 0001:00000e20       __D3std3utf103__T10decodeImplVbi1VE3std8typecons55__T4FlagVAyaa19_7573655265706c6163656d656e744463686172Z4Flagi0TAxaZ10decodeImplFKAxaKkZ10invalidUTFMFNaNbZC3std3utf12UTFException 00401e20 f i phobos2-ldc:stdio.obj
 0001:00000e40       __D3std3utf103__T10decodeImplVbi1VE3std8typecons55__T4FlagVAyaa19_7573655265706c6163656d656e744463686172Z4Flagi0TAxaZ10decodeImplFKAxaKkZ18__T9exceptionTAxaZ9exceptionFNaNbNfAxaAyaZC3std3utf12UTFException 00401e40 f i phobos2-ldc:stdio.obj
 0001:00000f30       __D3std3utf103__T10decodeImplVbi1VE3std8typecons55__T4FlagVAyaa19_7573655265706c6163656d656e744463686172Z4Flagi0TAxaZ10decodeImplFKAxaKkZ11outOfBoundsMFNaNbZC3std3utf12UTFException 00401f30 f i phobos2-ldc:stdio.obj
 0001:00000f50       __D3std3utf12__T5byUTFTuZ75__T5byUTFTS3std3utf20__T10byCodeUnitTAxaZ10byCodeUnitFAxaZ14ByCodeUnitImplZ5byUTFFNcS3std3utf20__T10byCodeUnitTAxaZ10byCodeUnitFAxaZ14ByCodeUnitImplZ6Result5frontMFNaNbNdNiNfZu 00401f50 f i phobos2-ldc:stdio.obj
 0001:00001060       __D3std3utf164__T10decodeImplVbi1VE3std8typecons55__T4FlagVAyaa19_7573655265706c6163656d656e744463686172Z4Flagi1TS3std3utf20__T10byCodeUnitTAxaZ10byCodeUnitFAxaZ14ByCodeUnitImplZ10decodeImplFNaNbNiNfKS3std3utf20__T10byCodeUnitTAxaZ10byCodeUnitFAxaZ14ByCodeUnitImplKkZw 00402060 f i phobos2-ldc:stdio.obj
 0001:000011d0       __D3std8internal7cstring23__T11tempCStringTaTAxaZ11tempCStringFAxaZ14trustedReallocFNbNiNeAakPakZAa 004021d0 f i phobos2-ldc:stdio.obj
 0001:00001260       __D3std5array17__T8appenderTAyaZ8appenderFNaNbNfZS3std5array17__T8AppenderTAyaZ8Appender 00402260 f i phobos2-ldc:stdio.obj
 0001:00001290       __D3std9exception14__T7enforceTbZ7enforceFNaNfbLC6object9ThrowableZb 00402290 f i phobos2-ldc:stdio.obj
 0001:000012b0       __D3std5array17__T8AppenderTAyaZ8Appender4dataMNgFNaNbNdNiNeZAya 004022b0 f i phobos2-ldc:stdio.obj
 0001:000012d0       __D3std5array17__T8AppenderTAyaZ8Appender6__ctorMFNaNbNcNfnZS3std5array17__T8AppenderTAyaZ8Appender 004022d0 f i phobos2-ldc:stdio.obj
 0001:00001310       __D3std5array17__T8AppenderTAyaZ8Appender4Data9__xtoHashFNbNeKxS3std5array17__T8AppenderTAyaZ8Appender4DataZk 00402310 f i phobos2-ldc:stdio.obj
 0001:00001360       __D3std5array17__T8AppenderTAyaZ8Appender4Data11__xopEqualsFKxS3std5array17__T8AppenderTAyaZ8Appender4DataKxS3std5array17__T8AppenderTAyaZ8Appender4DataZb 00402360 f i phobos2-ldc:stdio.obj
 0001:000013a0       __D3std5array17__T8AppenderTAyaZ8Appender13ensureAddableMFNaNbNekZv 004023a0 f i phobos2-ldc:stdio.obj
 0001:000014d0       __D3std6format18__T10FormatSpecTaZ10FormatSpec63__T17writeUpToNextSpecTS3std5array17__T8AppenderTAyaZ8AppenderZ17writeUpToNextSpecMFNaNfS3std5array17__T8AppenderTAyaZ8AppenderZb 004024d0 f i phobos2-ldc:stdio.obj
 0001:00001680       __D3std9exception45__T9enforceExHTC3std6format15FormatExceptionZ16__T9enforceExTbZ9enforceExFNaNfbLAyaAyakZb 00402680 f i phobos2-ldc:stdio.obj
 0001:00001710       __D3std4conv15__T4textTAyaTaZ4textFNaNfAyaaZAya 00402710 f i phobos2-ldc:stdio.obj
 0001:00001740       __D3std6format17__T9getNthIntTPvZ9getNthIntFNaNfkPvZi 00402740 f i phobos2-ldc:stdio.obj
 0001:000017c0       __D3std5array17__T8AppenderTAyaZ8Appender10__T3putTwZ3putMFNaNfwZv 004027c0 f i phobos2-ldc:stdio.obj
 0001:00001910       __D3std3utf98__T13_utfExceptionVE3std8typecons55__T4FlagVAyaa19_7573655265706c6163656d656e744463686172Z4Flagi0Z13_utfExceptionFNaNfAyawZw 00402910 f i phobos2-ldc:stdio.obj
 0001:000019c0       __D3std6format27__T19needToSwapEndianessTaZ19needToSwapEndianessFNaNbNiNfKS3std6format18__T10FormatSpecTaZ10FormatSpecZb 004029c0 f i phobos2-ldc:stdio.obj
 0001:000019d0       __D3std5range10primitives51__T3putTS3std5array17__T8AppenderTAyaZ8AppenderTxaZ3putFNaNbNfKS3std5array17__T8AppenderTAyaZ8AppenderxaZv 004029d0 f i phobos2-ldc:stdio.obj
 0001:000019d0       __D3std5range10primitives50__T3putTS3std5array17__T8AppenderTAyaZ8AppenderTaZ3putFNaNbNfKS3std5array17__T8AppenderTAyaZ8AppenderaZv 004029d0 f i phobos2-ldc:stdio.obj
 0001:00001a10       __D3std6format64__T14formatIntegralTS3std5array17__T8AppenderTAyaZ8AppenderTmTaZ14formatIntegralFNaNbNfS3std5array17__T8AppenderTAyaZ8AppenderxmKxS3std6format18__T10FormatSpecTaZ10FormatSpeckmZv 00402a10 f i phobos2-ldc:stdio.obj
 0001:00001a50       __D3std6format64__T14formatUnsignedTS3std5array17__T8AppenderTAyaZ8AppenderTmTaZ14formatUnsignedFNaNbNfS3std5array17__T8AppenderTAyaZ8AppendermKxS3std6format18__T10FormatSpecTaZ10FormatSpeckbZv 00402a50 f i phobos2-ldc:stdio.obj
 0001:00001e30       __D3std4conv17__T4textTAyaTAxaZ4textFNaNbNfAyaAxaZAya 00402e30 f i phobos2-ldc:stdio.obj
 0001:00001ee0       __D3std4conv16__T5parseTiTAxaZ5parseFNaNfKAxaZi 00402ee0 f i phobos2-ldc:stdio.obj
 0001:00002150       __D3std4conv20__T9convErrorTAxaTiZ9convErrorFNaNfAxaAyakZC3std4conv13ConvException 00403150 f i phobos2-ldc:stdio.obj
 0001:00002260       __D3std4conv21__T4textTAyaTAyaTAyaZ4textFNaNbNfAyaAyaAyaZAya 00403260 f i phobos2-ldc:stdio.obj
 0001:000022c0       __D3std4conv27__T8textImplTAyaTAyaTwTAyaZ8textImplFNaNfAyawAyaZAya 004032c0 f i phobos2-ldc:stdio.obj
 0001:000023c0       __D3std6format61__T11formatValueTS3std5array17__T8AppenderTAyaZ8AppenderTkTaZ11formatValueFNaNfS3std5array17__T8AppenderTAyaZ8AppenderkKS3std6format18__T10FormatSpecTaZ10FormatSpecZv 004033c0 f i phobos2-ldc:stdio.obj
 0001:000026a0       __D3std4conv16__T5parseTkTAxaZ5parseFNaNfKAxaZk 004036a0 f i phobos2-ldc:stdio.obj
 0001:00002870       __D3std4conv20__T9convErrorTAxaTkZ9convErrorFNaNfAxaAyakZC3std4conv13ConvException 00403870 f i phobos2-ldc:stdio.obj
 0001:00002980       __D3std4conv16__T6toImplTiTxkZ6toImplFxkZ12__dgliteral2MFNaNbNfZC6object9Throwable 00403980 f i phobos2-ldc:stdio.obj
 0001:000029f0       __D3std4conv16__T5toStrTAyaTaZ5toStrFNaNfaZAya 004039f0 f i phobos2-ldc:stdio.obj
 0001:00002ae0       __D3std6format61__T11formatValueTS3std5array17__T8AppenderTAyaZ8AppenderTaTaZ11formatValueFNaNfS3std5array17__T8AppenderTAyaZ8AppenderaKS3std6format18__T10FormatSpecTaZ10FormatSpecZv 00403ae0 f i phobos2-ldc:stdio.obj
 0001:00002b50       __D3std6format61__T11formatValueTS3std5array17__T8AppenderTAyaZ8AppenderThTaZ11formatValueFNaNfS3std5array17__T8AppenderTAyaZ8AppenderhKS3std6format18__T10FormatSpecTaZ10FormatSpecZv 00403b50 f i phobos2-ldc:stdio.obj
 0001:00002d10       __D3std6format61__T11formatValueTS3std5array17__T8AppenderTAyaZ8AppenderThTaZ11formatValueFS3std5array17__T8AppenderTAyaZ8AppenderhKS3std6format18__T10FormatSpecTaZ10FormatSpecZ12__dgliteral5MFNaNbNiNfZAya 00403d10 f i phobos2-ldc:stdio.obj
 0001:00002d20       __D3std6format14__T9getNthIntZ9getNthIntFNaNfkZi 00403d20 f i phobos2-ldc:stdio.obj
 0001:00002d90       __D3std4conv17__T6toImplTAyaTkZ6toImplFNaNbNekkE3std5ascii10LetterCaseZAya 00403d90 f i phobos2-ldc:stdio.obj
 0001:000031c0       __D3std4conv33__T8textImplTAyaTAyaTkTAyaTkTAyaZ8textImplFNaNbNfAyakAyakAyaZAya 004041c0 f i phobos2-ldc:stdio.obj
 0001:00003260       __D3std4conv47__T7toCharsVii10TaVE3std5ascii10LetterCasei1TiZ7toCharsFNaNbNiNfiZ6Result10initializeMFNaNbNiNfiZv 00404260 f i phobos2-ldc:stdio.obj
 0001:000033b0       __D3std9exception14ErrnoException6__ctorMFNeAyaAyakZC3std9exception14ErrnoException 004043b0 f i phobos2-ldc:exception.obj
 0001:000034e0       __D3std3utf12UTFException11setSequenceMFNaNbNiNfAkXC3std3utf12UTFException 004044e0 f i phobos2-ldc:utf.obj
 0001:00003530       __D3std3utf12UTFException6__ctorMFNaNbNfAyakAyakC6object9ThrowableZC3std3utf12UTFException 00404530 f i phobos2-ldc:utf.obj
 0001:000035e0       __D3std3utf12UTFException8toStringMFZAya 004045e0 f i phobos2-ldc:utf.obj
 0001:00003730       __D3std3utf12isValidDcharFNaNbNiNfwZb 00404730 f i phobos2-ldc:utf.obj
 0001:00003750       __D3std3utf6toUTF8FNaNbNiNfNkJG4awZAa 00404750 f i phobos2-ldc:utf.obj
 0001:00003830       __D3std3utf6toUTF8FNaNfxAuZAya 00404830 f i phobos2-ldc:utf.obj
 0001:00003950       __D3std3utf90__T6encodeVE3std8typecons55__T4FlagVAyaa19_7573655265706c6163656d656e744463686172Z4Flagi0Z6encodeFNaNfKAawZv 00404950 f i phobos2-ldc:utf.obj
 0001:00003ab0       __D3std3utf7toUTF16FNaNfxAaZAyu 00404ab0 f i phobos2-ldc:utf.obj
 0001:00003ba0       __D3std3utf90__T6encodeVE3std8typecons55__T4FlagVAyaa19_7573655265706c6163656d656e744463686172Z4Flagi0Z6encodeFNaNfKAuwZv 00404ba0 f i phobos2-ldc:utf.obj
 0001:00003c80       __D3std3utf103__T10decodeImplVbi1VE3std8typecons55__T4FlagVAyaa19_7573655265706c6163656d656e744463686172Z4Flagi0TxAaZ10decodeImplFNaKxAaKkZw 00404c80 f i phobos2-ldc:utf.obj
 0001:00003e80       __D3std3utf103__T10decodeImplVbi1VE3std8typecons55__T4FlagVAyaa19_7573655265706c6163656d656e744463686172Z4Flagi0TxAaZ10decodeImplFKxAaKkZ10invalidUTFMFNaNbZC3std3utf12UTFException 00404e80 f i phobos2-ldc:utf.obj
 0001:00003ea0       __D3std3utf103__T10decodeImplVbi1VE3std8typecons55__T4FlagVAyaa19_7573655265706c6163656d656e744463686172Z4Flagi0TxAaZ10decodeImplFKxAaKkZ18__T9exceptionTAxaZ9exceptionFNaNbNfAxaAyaZC3std3utf12UTFException 00404ea0 f i phobos2-ldc:utf.obj
 0001:00004010       __D3std3utf103__T10decodeImplVbi1VE3std8typecons55__T4FlagVAyaa19_7573655265706c6163656d656e744463686172Z4Flagi0TxAaZ10decodeImplFKxAaKkZ11outOfBoundsMFNaNbZC3std3utf12UTFException 00405010 f i phobos2-ldc:utf.obj
 0001:00004030       __D3std3utf103__T10decodeImplVbi1VE3std8typecons55__T4FlagVAyaa19_7573655265706c6163656d656e744463686172Z4Flagi0TxAuZ10decodeImplFNaKxAuKkZw 00405030 f i phobos2-ldc:utf.obj
 0001:000040d0       __D3std3utf103__T10decodeImplVbi1VE3std8typecons55__T4FlagVAyaa19_7573655265706c6163656d656e744463686172Z4Flagi0TxAuZ10decodeImplFKxAuKkZ9exceptionMFNaNbNfAyaZC3std3utf12UTFException 004050d0 f i phobos2-ldc:utf.obj
 0001:000041a0       __D3std3uni7isWhiteFNaNbNiNfwZb 004051a0 f i phobos2-ldc:uni.obj
 0001:000041b0       __D3std3uni11isGraphicalFNaNbNiNfwZb 004051b0 f i phobos2-ldc:uni.obj
 0001:00004200       __D3std6format18__T10FormatSpecTaZ10FormatSpec6flDashMxFNaNbNdNiNfZb 00405200 f i phobos2-ldc:uni.obj
 0001:00004210       __D3std6format18__T10FormatSpecTaZ10FormatSpec6flDashMFNaNbNdNiNfbZv 00405210 f i phobos2-ldc:uni.obj
 0001:00004230       __D3std6format18__T10FormatSpecTaZ10FormatSpec6flZeroMxFNaNbNdNiNfZb 00405230 f i phobos2-ldc:uni.obj
 0001:00004240       __D3std6format18__T10FormatSpecTaZ10FormatSpec7flSpaceMxFNaNbNdNiNfZb 00405240 f i phobos2-ldc:uni.obj
 0001:00004250       __D3std6format18__T10FormatSpecTaZ10FormatSpec6flPlusMxFNaNbNdNiNfZb 00405250 f i phobos2-ldc:uni.obj
 0001:00004260       __D3std6format18__T10FormatSpecTaZ10FormatSpec6flHashMxFNaNbNdNiNfZb 00405260 f i phobos2-ldc:uni.obj
 0001:00004270       __D3std6format18__T10FormatSpecTaZ10FormatSpec6__ctorMFNaNbNcNiNfxAaZS3std6format18__T10FormatSpecTaZ10FormatSpec 00405270 f i phobos2-ldc:uni.obj
 0001:00004290       __D3std6format18__T10FormatSpecTaZ10FormatSpec6fillUpMFNaNfZv 00405290 f i phobos2-ldc:uni.obj
 0001:00004f30       __D3std6format18__T10FormatSpecTaZ10FormatSpec6fillUpMFZ12__dgliteral1MFNaNbNiNfZAya 00405f30 f i phobos2-ldc:uni.obj
 0001:00004ff0       __D3std6format18__T10FormatSpecTaZ10FormatSpec6fillUpMFZ12__dgliteral2MFNaNbNiNfZAya 00405ff0 f i phobos2-ldc:uni.obj
 0001:000050b0       __D3std6format18__T10FormatSpecTaZ10FormatSpec6fillUpMFZ12__dgliteral4MFNaNbNiNfZAya 004060b0 f i phobos2-ldc:uni.obj
 0001:00005170       __D3std3utf103__T10decodeImplVbi1VE3std8typecons55__T4FlagVAyaa19_7573655265706c6163656d656e744463686172Z4Flagi0TAyaZ10decodeImplFNaKAyaKkZw 00406170 f i phobos2-ldc:uni.obj
 0001:00005370       __D3std3utf103__T10decodeImplVbi1VE3std8typecons55__T4FlagVAyaa19_7573655265706c6163656d656e744463686172Z4Flagi0TAyaZ10decodeImplFKAyaKkZ10invalidUTFMFNaNbZC3std3utf12UTFException 00406370 f i phobos2-ldc:uni.obj
 0001:00005390       __D3std3utf103__T10decodeImplVbi1VE3std8typecons55__T4FlagVAyaa19_7573655265706c6163656d656e744463686172Z4Flagi0TAyaZ10decodeImplFKAyaKkZ18__T9exceptionTAyaZ9exceptionFNaNbNfAyaAyaZC3std3utf12UTFException 00406390 f i phobos2-ldc:uni.obj
 0001:00005480       __D3std3utf103__T10decodeImplVbi1VE3std8typecons55__T4FlagVAyaa19_7573655265706c6163656d656e744463686172Z4Flagi0TAyaZ10decodeImplFKAyaKkZ11outOfBoundsMFNaNbZC3std3utf12UTFException 00406480 f i phobos2-ldc:uni.obj
 0001:000054a0       __D3std3utf102__T10decodeImplVbi1VE3std8typecons55__T4FlagVAyaa19_7573655265706c6163656d656e744463686172Z4Flagi0TAuZ10decodeImplFNaKAuKkZw 004064a0 f i phobos2-ldc:uni.obj
 0001:00005540       __D3std3utf102__T10decodeImplVbi1VE3std8typecons55__T4FlagVAyaa19_7573655265706c6163656d656e744463686172Z4Flagi0TAuZ10decodeImplFKAuKkZ9exceptionMFNaNbNfAyaZC3std3utf12UTFException 00406540 f i phobos2-ldc:uni.obj
 0001:000055f0       __D3std6format32__T14formatUnsignedTDFAxaZvTmTaZ14formatUnsignedFDFAxaZvmKxS3std6format18__T10FormatSpecTaZ10FormatSpeckbZv 004065f0 f i phobos2-ldc:uni.obj
 0001:00005890       __D3std6format63__T11formatRangeTS3std5array17__T8AppenderTAyaZ8AppenderTAyaTaZ11formatRangeFNaNfKS3std5array17__T8AppenderTAyaZ8AppenderKAyaKS3std6format18__T10FormatSpecTaZ10FormatSpecZv 00406890 f i phobos2-ldc:uni.obj
 0001:00005e00       __D3std6format63__T13formatElementTS3std5array17__T8AppenderTAyaZ8AppenderTwTaZ13formatElementFNaNfS3std5array17__T8AppenderTAyaZ8AppenderwKS3std6format18__T10FormatSpecTaZ10FormatSpecZv 00406e00 f i phobos2-ldc:uni.obj
 0001:00005ed0       __D3std6format56__T10formatCharTS3std5array17__T8AppenderTAyaZ8AppenderZ10formatCharFNaNfS3std5array17__T8AppenderTAyaZ8AppenderxwxaZv 00406ed0 f i phobos2-ldc:uni.obj
 0001:00006080       __D3std6format64__T14formattedWriteTS3std5array17__T8AppenderTAyaZ8AppenderTaTkZ14formattedWriteFNaNfS3std5array17__T8AppenderTAyaZ8AppenderxAakZk 00407080 f i phobos2-ldc:uni.obj
 0001:000063f0       __D3std5array17__T8AppenderTAyaZ8Appender11__T3putTxwZ3putMFNaNfxwZv 004073f0 f i phobos2-ldc:uni.obj
 0001:00006540       __D3std6format64__T14formattedWriteTS3std5array17__T8AppenderTAyaZ8AppenderTaTkZ14formattedWriteFS3std5array17__T8AppenderTAyaZ8AppenderxAakZ12__dgliteral7MFNaNiNfZAya 00407540 f i phobos2-ldc:uni.obj
 0001:000065f0       __D3std4conv15__T6toImplTiTkZ6toImplFkZ12__dgliteral2MFNaNbNfZC6object9Throwable 004075f0 f i phobos2-ldc:uni.obj
 0001:00006680       __D3std7variant16VariantException6__ctorMFAyaZC3std7variant16VariantException 00407680 f i phobos2-ldc:variant.obj
 0001:000066b0       __D3std7variant16VariantException6__ctorMFC8TypeInfoC8TypeInfoZC3std7variant16VariantException 004076b0 f i phobos2-ldc:variant.obj
 0001:00006750       __D3std7variant18__T8VariantNVki16Z8VariantN15__T7handlerHTvZ7handlerFE3std7variant18__T8VariantNVki16Z8VariantN4OpIDPG16hPvZi 00407750 f i phobos2-ldc:variant.obj
 0001:000068e0       __D3std7variant18__T8VariantNVki16Z8VariantN4typeMxFNbNdNeZC8TypeInfo 004078e0 f i phobos2-ldc:variant.obj
 0001:00006980       __D3std7variant18__T8VariantNVki16Z8VariantN53__T5opCmpTS3std7variant18__T8VariantNVki16Z8VariantNZ5opCmpMFS3std7variant18__T8VariantNVki16Z8VariantNZi 00407980 f i phobos2-ldc:variant.obj
 0001:00006bd0       __D3std7variant18__T8VariantNVki16Z8VariantN57__T8opEqualsTxS3std7variant18__T8VariantNVki16Z8VariantNZ8opEqualsMxFKxS3std7variant18__T8VariantNVki16Z8VariantNZb 00407bd0 f i phobos2-ldc:variant.obj
 0001:00006c40       __D3std11concurrency7Message11__fieldDtorMFZv 00407c40 f i phobos2-ldc:concurrency.obj
 0001:00006c50       __D3std11concurrency7Message15__fieldPostblitMFZv 00407c50 f i phobos2-ldc:concurrency.obj
 0001:00006c60       __D3std11concurrency7Message9__xtoHashFNbNeKxS3std11concurrency7MessageZk 00407c60 f i phobos2-ldc:concurrency.obj
 0001:00006c90       __D3std11concurrency7Message11__xopEqualsFKxS3std11concurrency7MessageKxS3std11concurrency7MessageZb 00407c90 f i phobos2-ldc:concurrency.obj
 0001:00006cb0       __D3std11concurrency12_staticDtor1FZv 00407cb0 f i phobos2-ldc:concurrency.obj
 0001:00006ce0       __D3std11concurrency10ThreadInfo7cleanupMFZv 00407ce0 f i phobos2-ldc:concurrency.obj
 0001:00006db0       __D3std11concurrency24PriorityMessageException11__fieldDtorMFZv 00407db0 f i phobos2-ldc:concurrency.obj
 0001:00006dc0       __D3std6format33__T14formattedWriteTDFAxaZvTaTPvZ14formattedWriteFDFAxaZvxAaPvZk 00407dc0 f i phobos2-ldc:concurrency.obj
 0001:00006f90       __D3std11concurrency3Tid9__xtoHashFNbNeKxS3std11concurrency3TidZk 00407f90 f i phobos2-ldc:concurrency.obj
 0001:00006fb0       __D3std11concurrency3Tid11__xopEqualsFKxS3std11concurrency3TidKxS3std11concurrency3TidZb 00407fb0 f i phobos2-ldc:concurrency.obj
 0001:00006fc0       __D3std11concurrency10MessageBox6__ctorMFNeZC3std11concurrency10MessageBox 00407fc0 f i phobos2-ldc:concurrency.obj
 0001:00007130       _std_concurrency_static_this 00408130 f i phobos2-ldc:concurrency.obj
 0001:00007190       __D3std11concurrency12unregisterMeFZv 00408190 f i phobos2-ldc:concurrency.obj
 0001:000072f0       __D3std11concurrency10MessageBox5closeMFZv 004082f0 f i phobos2-ldc:concurrency.obj
 0001:00007420       __D3std11concurrency33__T5_sendTS3std11concurrency3TidZ5_sendFE3std11concurrency7MsgTypeS3std11concurrency3TidS3std11concurrency3TidZv 00408420 f i phobos2-ldc:concurrency.obj
 0001:00007550       __DThn8_3std11concurrency15ThreadScheduler5startMFDFZvZv@12 00408550 f i phobos2-ldc:concurrency.obj
 0001:00007550       __D3std11concurrency15ThreadScheduler5startMFDFZvZv 00408550 f i phobos2-ldc:concurrency.obj
 0001:00007560       __D3std11concurrency15ThreadScheduler8thisInfoMFNbNcNdZS3std11concurrency10ThreadInfo 00408560 f i phobos2-ldc:concurrency.obj
 0001:00007560       __DThn8_3std11concurrency15ThreadScheduler8thisInfoMFNbNcNdZS3std11concurrency10ThreadInfo@4 00408560 f i phobos2-ldc:concurrency.obj
 0001:00007580       __D3std11concurrency15ThreadScheduler12newConditionMFNbC4core4sync5mutex5MutexZC4core4sync9condition9Condition 00408580 f i phobos2-ldc:concurrency.obj
 0001:00007580       __DThn8_3std11concurrency15ThreadScheduler12newConditionMFNbC4core4sync5mutex5MutexZC4core4sync9condition9Condition@8 00408580 f i phobos2-ldc:concurrency.obj
 0001:000075f0       __DThn8_3std11concurrency15ThreadScheduler5spawnMFDFZvZv@12 004085f0 f i phobos2-ldc:concurrency.obj
 0001:000075f0       __D3std11concurrency15ThreadScheduler5spawnMFDFZvZv 004085f0 f i phobos2-ldc:concurrency.obj
 0001:00007640       __D3std11concurrency14FiberScheduler5startMFDFZvZv 00408640 f i phobos2-ldc:concurrency.obj
 0001:00007720       __D3std11concurrency14FiberScheduler8dispatchMFZv 00408720 f i phobos2-ldc:concurrency.obj
 0001:000077c0       __D3std11concurrency14FiberScheduler5spawnMFNbDFZvZv 004087c0 f i phobos2-ldc:concurrency.obj
 0001:000078a0       __D3std11concurrency14FiberScheduler8thisInfoMFNbNcNdZS3std11concurrency10ThreadInfo 004088a0 f i phobos2-ldc:concurrency.obj
 0001:000078e0       __D3std11concurrency14FiberScheduler12newConditionMFNbC4core4sync5mutex5MutexZC4core4sync9condition9Condition 004088e0 f i phobos2-ldc:concurrency.obj
 0001:00007980       __D3std11concurrency14FiberScheduler14FiberCondition4waitMFNbZv 00408980 f i phobos2-ldc:concurrency.obj
 0001:000079c0       __D3std11concurrency14FiberScheduler14FiberCondition4waitMFNbS4core4time8DurationZb 004089c0 f i phobos2-ldc:concurrency.obj
 0001:00007ab0       __D3std11concurrency14FiberScheduler14FiberCondition6notifyMFNbZv 00408ab0 f i phobos2-ldc:concurrency.obj
 0001:00007ab0       __D3std11concurrency14FiberScheduler14FiberCondition9notifyAllMFNbZv 00408ab0 f i phobos2-ldc:concurrency.obj
 0001:00007ae0       __D3std9algorithm8mutation75__T6removeVE3std9algorithm8mutation12SwapStrategyi2TAC4core6thread5FiberTkZ6removeFNaNbNiNfAC4core6thread5FiberkZAC4core6thread5Fiber 00408ae0 f i phobos2-ldc:concurrency.obj
 0001:00007b70       __D3std11concurrency14FiberScheduler6createMFNbDFZvZ4wrapMFZv 00408b70 f i phobos2-ldc:concurrency.obj
 0001:00007c10       __DThn8_3std11concurrency14FiberScheduler5startMFDFZvZv@12 00408c10 f i phobos2-ldc:concurrency.obj
 0001:00007d00       __DThn8_3std11concurrency14FiberScheduler5spawnMFNbDFZvZv@12 00408d00 f i phobos2-ldc:concurrency.obj
 0001:00007df0       __D3std11concurrency14FiberScheduler5yieldMFNbZv 00408df0 f i phobos2-ldc:concurrency.obj
 0001:00007df0       __DThn8_3std11concurrency14FiberScheduler5yieldMFNbZv@4 00408df0 f i phobos2-ldc:concurrency.obj
 0001:00007e00       __DThn8_3std11concurrency14FiberScheduler8thisInfoMFNbNcNdZS3std11concurrency10ThreadInfo@4 00408e00 f i phobos2-ldc:concurrency.obj
 0001:00007e40       __DThn8_3std11concurrency14FiberScheduler12newConditionMFNbC4core4sync5mutex5MutexZC4core4sync9condition9Condition@8 00408e40 f i phobos2-ldc:concurrency.obj
 0001:00007ee0       __D3std11concurrency10MessageBox3putMFKS3std11concurrency7MessageZv 00408ee0 f i phobos2-ldc:concurrency.obj
 0001:00008380       __D3std11concurrency10MessageBox5closeMFZ13onLinkDeadMsgMFKS3std11concurrency7MessageZv 00409380 f i phobos2-ldc:concurrency.obj
 0001:000084e0       __D3std11concurrency36__T4ListTS3std11concurrency7MessageZ4List7newNodeMFS3std11concurrency7MessageZPS3std11concurrency36__T4ListTS3std11concurrency7MessageZ4List4Node 004094e0 f i phobos2-ldc:concurrency.obj
 0001:00008870       __D3std6format30__T11formatValueTDFAxaZvTPvTaZ11formatValueFDFAxaZvPvKS3std6format18__T10FormatSpecTaZ10FormatSpecZv 00409870 f i phobos2-ldc:concurrency.obj
 0001:00008970       __D3std6format18__T10FormatSpecTaZ10FormatSpec31__T17writeUpToNextSpecTDFAxaZvZ17writeUpToNextSpecMFDFAxaZvZb 00409970 f i phobos2-ldc:concurrency.obj
 0001:00008a70       __D3std6format33__T14formattedWriteTDFAxaZvTaTPvZ14formattedWriteFDFAxaZvxAaPvZ12__dgliteral7MFNaNiNfZAya 00409a70 f i phobos2-ldc:concurrency.obj
 0001:00008ae0       __D3std6format30__T11formatValueTDFAxaZvTxmTaZ11formatValueFDFAxaZvxmKS3std6format18__T10FormatSpecTaZ10FormatSpecZv 00409ae0 f i phobos2-ldc:concurrency.obj
 0001:00008d50       __D3std7variant18__T8VariantNVki16Z8VariantN35__T7handlerTS3std11concurrency3TidZ7handlerFE3std7variant18__T8VariantNVki16Z8VariantN4OpIDPG16hPvZi 00409d50 f i phobos2-ldc:concurrency.obj
 0001:000091b0       __D3std7variant18__T8VariantNVki16Z8VariantN35__T7handlerTS3std11concurrency3TidZ7handlerFE3std7variant18__T8VariantNVki16Z8VariantN4OpIDPG16hPvZ12__dgliteral7MFNaNbNiNfZAxa 0040a1b0 f i phobos2-ldc:concurrency.obj
 0001:000091d0       __D3std6format83__T12formatObjectTS3std5array17__T8AppenderTAyaZ8AppenderTS3std11concurrency3TidTaZ12formatObjectFKS3std5array17__T8AppenderTAyaZ8AppenderKS3std11concurrency3TidKS3std6format18__T10FormatSpecTaZ10FormatSpecZ9__lambda7MFAxaZv 0040a1d0 f i phobos2-ldc:concurrency.obj
 0001:000092a0       __D3std8datetime4Date6__ctorMFNaNcNfiiiZS3std8datetime4Date 0040a2a0 f i phobos2-ldc:datetime.obj
 0001:00009460       __D3std8datetime9TimeOfDay6__ctorMFNaNcNfiiiZS3std8datetime9TimeOfDay 0040a460 f i phobos2-ldc:datetime.obj
 0001:00009600       __D3std8datetime7SysTime8opAssignMFNaNbNcNjNfS3std8datetime7SysTimeZS3std8datetime7SysTime 0040a600 f i phobos2-ldc:datetime.obj
 0001:00009620       __D3std8datetime4Date6__ctorMFNaNbNcNfiZS3std8datetime4Date 0040a620 f i phobos2-ldc:datetime.obj
 0001:00009960       __D3std8datetime4Date17dayOfGregorianCalMxFNaNbNdNfZi 0040a960 f i phobos2-ldc:datetime.obj
 0001:00009d10       __D3std8datetime4Date3dayMFNaNdNfiZv 0040ad10 f i phobos2-ldc:datetime.obj
 0001:00009e40       __D3std8datetime7SysTime8fracSecsMxFNbNdNfZS4core4time8Duration 0040ae40 f i phobos2-ldc:datetime.obj
 0001:00009eb0       __D3std8datetime8TimeZone11utcOffsetAtMxFNbNflZS4core4time8Duration 0040aeb0 f i phobos2-ldc:datetime.obj
 0001:00009ee0       __D3std8datetime7SysTime35__T6opCastTS3std8datetime8DateTimeZ6opCastMxFNbNfZS3std8datetime8DateTime 0040aee0 f i phobos2-ldc:datetime.obj
 0001:0000a040       __D3std8datetime8DateTime6secondMxFNaNbNdNfZh 0040b040 f i phobos2-ldc:datetime.obj
 0001:0000a050       __D3std8datetime8DateTime6minuteMxFNaNbNdNfZh 0040b050 f i phobos2-ldc:datetime.obj
 0001:0000a060       __D3std8datetime8DateTime4hourMxFNaNbNdNfZh 0040b060 f i phobos2-ldc:datetime.obj
 0001:0000a070       __D3std8datetime8DateTime3dayMxFNaNbNdNfZh 0040b070 f i phobos2-ldc:datetime.obj
 0001:0000a080       __D3std8datetime8DateTime5monthMxFNaNbNdNfZE3std8datetime5Month 0040b080 f i phobos2-ldc:datetime.obj
 0001:0000a090       __D3std8datetime8DateTime4yearMxFNaNbNdNfZs 0040b090 f i phobos2-ldc:datetime.obj
 0001:0000a0a0       __D3std8datetime4Date9dayOfYearMFNaNdNfiZv 0040b0a0 f i phobos2-ldc:datetime.obj
 0001:0000a250       __D3std8datetime8DateTime11_addSecondsMFNaNbNcNjNflZS3std8datetime8DateTime 0040b250 f i phobos2-ldc:datetime.obj
 0001:0000a380       __D3std7windows8registry5Value4nameMxFNaNbNdNfZAya 0040b380 f i phobos2-ldc:registry.obj
 0001:0000a380       __D3std8datetime8TimeZone7stdNameMxFNbNdNfZAya 0040b380 f i phobos2-ldc:datetime.obj
 0001:0000a380       __D6object15TypeInfo_Struct11initializerMxFNaNbNiNfZAxv 0040b380 f i druntime-ldc:object.obj
 0001:0000a390       __D3std8datetime8TimeZone7dstNameMxFNbNdNfZAya 0040b390 f i phobos2-ldc:datetime.obj
 0001:0000a3a0       __D3std8datetime9LocalTime7stdNameMxFNbNdNeZAya 0040b3a0 f i phobos2-ldc:datetime.obj
 0001:0000a4e0       __D3std8datetime9LocalTime7stdNameMxFNbNdNeZ14__foreachbody1MFNaNbNeKwZi 0040b4e0 f i phobos2-ldc:datetime.obj
 0001:0000a4e0       __D3std8datetime9LocalTime7dstNameMxFNbNdNeZ14__foreachbody1MFNaNbNeKwZi 0040b4e0 f i phobos2-ldc:datetime.obj
 0001:0000a510       __D3std8datetime9LocalTime7dstNameMxFNbNdNeZAya 0040b510 f i phobos2-ldc:datetime.obj
 0001:0000a650       __D3std8datetime9LocalTime6hasDSTMxFNbNdNeZb 0040b650 f i phobos2-ldc:datetime.obj
 0001:0000a690       __D3std8datetime9LocalTime11dstInEffectMxFNbNelZb 0040b690 f i phobos2-ldc:datetime.obj
 0001:0000a740       __D3std8datetime15WindowsTimeZone12_dstInEffectFNbNexPS4core3sys7windows7winbase21TIME_ZONE_INFORMATIONlZb 0040b740 f i phobos2-ldc:datetime.obj
 0001:0000aca0       __D3std8datetime9LocalTime7utcToTZMxFNbNelZl 0040bca0 f i phobos2-ldc:datetime.obj
 0001:0000ad50       __D3std8datetime9LocalTime7tzToUTCMxFNbNelZl 0040bd50 f i phobos2-ldc:datetime.obj
 0001:0000add0       __D3std8datetime15WindowsTimeZone8_tzToUTCFNbNexPS4core3sys7windows7winbase21TIME_ZONE_INFORMATIONlbZl 0040bdd0 f i phobos2-ldc:datetime.obj
 0001:0000afc0       __D3std8datetime9LocalTime6__ctorMyFNaNfZyC3std8datetime9LocalTime 0040bfc0 f i phobos2-ldc:datetime.obj
 0001:0000aff0       __D4core4time50__T7convertVAyaa6_686e73656373VAyaa6_686e73656373Z7convertFNaNbNiNflZl 0040bff0 f i druntime-ldc:time.obj
 0001:0000aff0       __D3std4conv11__T2toTAyaZ11__T2toTAyaZ2toFNaNbNiNfAyaZAya 0040bff0 f i phobos2-ldc:stdio.obj
 0001:0000aff0       __D2rt6config15rt_configOptionFNbNiAyaMDFNbNiAyaZAyabZ9__lambda4MFNbNiAyaZAya 0040bff0 f i druntime-ldc:config.obj
 0001:0000aff0       __D3std8datetime3UTC7utcToTZMxFNbNflZl 0040bff0 f i phobos2-ldc:datetime.obj
 0001:0000aff0       __D3std8datetime3UTC7tzToUTCMxFNbNflZl 0040bff0 f i phobos2-ldc:datetime.obj
 0001:0000aff0       __D4core4time27__T3durVAyaa6_686e73656373Z3durFNaNbNiNflZS4core4time8Duration 0040bff0 f i druntime-ldc:time.obj
 0001:0000b000       __D3std8datetime3UTC11utcOffsetAtMxFNbNflZS4core4time8Duration 0040c000 f i phobos2-ldc:datetime.obj
 0001:0000b010       __D3std8datetime3UTC6__ctorMyFNaNfZyC3std8datetime3UTC 0040c010 f i phobos2-ldc:datetime.obj
 0001:0000b040       __D3std8datetime14SimpleTimeZone7utcToTZMxFNbNflZl 0040c040 f i phobos2-ldc:datetime.obj
 0001:0000b060       __D3std8datetime14SimpleTimeZone7tzToUTCMxFNbNflZl 0040c060 f i phobos2-ldc:datetime.obj
 0001:0000b090       __D3std8datetime14SimpleTimeZone11utcOffsetAtMxFNbNflZS4core4time8Duration 0040c090 f i phobos2-ldc:datetime.obj
 0001:0000b0a0       __D3std8datetime13PosixTimeZone6hasDSTMxFNbNdNfZb 0040c0a0 f i phobos2-ldc:datetime.obj
 0001:0000b0b0       __D3std8datetime13PosixTimeZone11dstInEffectMxFNbNflZb 0040c0b0 f i phobos2-ldc:datetime.obj
 0001:0000b1b0       __D3std8datetime13PosixTimeZone7utcToTZMxFNbNflZl 0040c1b0 f i phobos2-ldc:datetime.obj
 0001:0000b3f0       __D3std8datetime13PosixTimeZone7tzToUTCMxFNbNflZl 0040c3f0 f i phobos2-ldc:datetime.obj
 0001:0000b7a0       __D3std8datetime15WindowsTimeZone6hasDSTMxFNbNdNfZb 0040c7a0 f i phobos2-ldc:datetime.obj
 0001:0000b7b0       __D3std8datetime15WindowsTimeZone11dstInEffectMxFNbNflZb 0040c7b0 f i phobos2-ldc:datetime.obj
 0001:0000b7d0       __D3std8datetime15WindowsTimeZone7utcToTZMxFNbNflZl 0040c7d0 f i phobos2-ldc:datetime.obj
 0001:0000b830       __D3std8datetime15WindowsTimeZone7tzToUTCMxFNbNflZl 0040c830 f i phobos2-ldc:datetime.obj
 0001:0000b860       __D3std8datetime15WindowsTimeZone8_tzToUTCFNbNexPS4core3sys7windows7winbase21TIME_ZONE_INFORMATIONlbZ27dstInEffectForLocalDateTimeMFS3std8datetime8DateTimeZb 0040c860 f i phobos2-ldc:datetime.obj
 0001:0000bbe0       __D3std6format15__T6formatTaTiZ6formatFNaNfxAaiZAya 0040cbe0 f i phobos2-ldc:datetime.obj
 0001:0000bc60       __D3std6format64__T14formattedWriteTS3std5array17__T8AppenderTAyaZ8AppenderTaTiZ14formattedWriteFNaNfS3std5array17__T8AppenderTAyaZ8AppenderxAaiZk 0040cc60 f i phobos2-ldc:datetime.obj
 0001:0000c050       __D3std6format15__T6formatTaTiZ6formatFxAaiZ12__dgliteral4MFNaNbNfZC6object9Throwable 0040d050 f i phobos2-ldc:datetime.obj
 0001:0000c0e0       __D3std6format63__T13formatGenericTS3std5array17__T8AppenderTAyaZ8AppenderTiTaZ13formatGenericFNaS3std5array17__T8AppenderTAyaZ8AppenderPxvKS3std6format18__T10FormatSpecTaZ10FormatSpecZv 0040d0e0 f i phobos2-ldc:datetime.obj
 0001:0000c100       __D3std6format61__T11formatValueTS3std5array17__T8AppenderTAyaZ8AppenderTiTaZ11formatValueFNaNfS3std5array17__T8AppenderTAyaZ8AppenderiKS3std6format18__T10FormatSpecTaZ10FormatSpecZv 0040d100 f i phobos2-ldc:datetime.obj
 0001:0000c2f0       __D3std6format64__T14formattedWriteTS3std5array17__T8AppenderTAyaZ8AppenderTaTiZ14formattedWriteFS3std5array17__T8AppenderTAyaZ8AppenderxAaiZ12__dgliteral7MFNaNiNfZAya 0040d2f0 f i phobos2-ldc:datetime.obj
 0001:0000c2f0       __D3std6format87__T14formattedWriteTS3std5array17__T8AppenderTAyaZ8AppenderTaTiTE3std8datetime5MonthTiZ14formattedWriteFS3std5array17__T8AppenderTAyaZ8AppenderxAaiE3std8datetime5MonthiZ13__dgliteral13MFNaNiNfZAya 0040d2f0 f i phobos2-ldc:datetime.obj
 0001:0000c3a0       __D3std6format61__T11formatValueTS3std5array17__T8AppenderTAyaZ8AppenderTiTaZ11formatValueFS3std5array17__T8AppenderTAyaZ8AppenderiKS3std6format18__T10FormatSpecTaZ10FormatSpecZ12__dgliteral5MFNaNbNiNfZAya 0040d3a0 f i phobos2-ldc:datetime.obj
 0001:0000c3b0       __D3std6format38__T6formatTaTiTE3std8datetime5MonthTiZ6formatFNaNfxAaiE3std8datetime5MonthiZAya 0040d3b0 f i phobos2-ldc:datetime.obj
 0001:0000c440       __D3std6format87__T14formattedWriteTS3std5array17__T8AppenderTAyaZ8AppenderTaTiTE3std8datetime5MonthTiZ14formattedWriteFNaNfS3std5array17__T8AppenderTAyaZ8AppenderxAaiE3std8datetime5MonthiZk 0040d440 f i phobos2-ldc:datetime.obj
 0001:0000c7c0       __D3std6format38__T6formatTaTiTE3std8datetime5MonthTiZ6formatFxAaiE3std8datetime5MonthiZ12__dgliteral6MFNaNbNfZC6object9Throwable 0040d7c0 f i phobos2-ldc:datetime.obj
 0001:0000c850       __D3std6format82__T13formatGenericTS3std5array17__T8AppenderTAyaZ8AppenderTE3std8datetime5MonthTaZ13formatGenericFNaS3std5array17__T8AppenderTAyaZ8AppenderPxvKS3std6format18__T10FormatSpecTaZ10FormatSpecZv 0040d850 f i phobos2-ldc:datetime.obj
 0001:0000c870       __D3std6format80__T11formatValueTS3std5array17__T8AppenderTAyaZ8AppenderTE3std8datetime5MonthTaZ11formatValueFNaNfS3std5array17__T8AppenderTAyaZ8AppenderE3std8datetime5MonthKS3std6format18__T10FormatSpecTaZ10FormatSpecZv 0040d870 f i phobos2-ldc:datetime.obj
 0001:0000cd10       __D3std8internal7cstring23__T11tempCStringTuTAxaZ11tempCStringFNbNiNfAxaZS3std8internal7cstring23__T11tempCStringTuTAxaZ11tempCStringFAxaZ3Res 0040dd10 f i phobos2-ldc:cstring.obj
 0001:0000ced0       __D3std8internal7cstring23__T11tempCStringTuTAxaZ11tempCStringFAxaZ3Res3ptrMxFNaNbNdNiNeZPxu 0040ded0 f i phobos2-ldc:cstring.obj
 0001:0000cee0       __D3std8internal7cstring23__T11tempCStringTuTAxaZ11tempCStringFAxaZ14trustedReallocFNbNiNeAukPukZAu 0040dee0 f i phobos2-ldc:cstring.obj
 0001:0000cfb0       __D3std7windows8syserror14sysErrorStringFNekiiZAya 0040dfb0 f i phobos2-ldc:syserror.obj
 0001:0000d0a0       __D3std7windows8syserror57__T11putSysErrorTS3std5array17__T8AppenderTAyaZ8AppenderZ11putSysErrorFkS3std5array17__T8AppenderTAyaZ8AppenderiZb 0040e0a0 f i phobos2-ldc:syserror.obj
 0001:0000d210       __D3std7windows8syserror16WindowsException4codeMFNdZk 0040e210 f i phobos2-ldc:syserror.obj
 0001:0000d220       __D3std7windows8syserror16WindowsException6__ctorMFNekAyaAyakZC3std7windows8syserror16WindowsException 0040e220 f i phobos2-ldc:syserror.obj
 0001:0000d370       __D3std6string17__T9stripLeftTAuZ9stripLeftFNaNfAuZAu 0040e370 f i phobos2-ldc:syserror.obj
 0001:0000d4b0       __D3std6string19__T10stripRightTAuZ10stripRightFAuZ14__foreachbody2MFNaNbNiNfKkKwZi 0040e4b0 f i phobos2-ldc:syserror.obj
 0001:0000d540       __D3std6format15FormatException6__ctorMFNaNbNfZC3std6format15FormatException 0040e540 f i phobos2-ldc:format.obj
 0001:0000d580       __D3std4conv13ConvException6__ctorMFNaNbNfAyaAyakZC3std4conv13ConvException 0040e580 f i phobos2-ldc:conv.obj
 0001:0000d580       __D3std4conv21ConvOverflowException6__ctorMFNaNbNfAyaAyakZC3std4conv21ConvOverflowException 0040e580 f i phobos2-ldc:conv.obj
 0001:0000d5b0       __D3std4conv16testEmplaceChunkFNaNbNiAvkkAyaZv 0040e5b0 f i phobos2-ldc:conv.obj
 0001:0000d5e0       __D3std9stdiobase18_sharedStaticCtor1FZv 0040e5e0 f i phobos2-ldc:stdiobase.obj
 0001:0000d610       __D3std8internal14unicode_tables10isWhiteGenFNaNbNiNfwZb 0040e610 f i phobos2-ldc:unicode_tables.obj
 0001:0000d6e0       __D3std5ascii7isDigitFNaNbNiNfwZb 0040e6e0 f i phobos2-ldc:ascii.obj
 0001:0000d6f0       __D3std5ascii7isWhiteFNaNbNiNfwZb 0040e6f0 f i phobos2-ldc:ascii.obj
 0001:0000d710       __D3std5ascii7isASCIIFNaNbNiNfwZb 0040e710 f i phobos2-ldc:ascii.obj
 0001:0000d7a0       __D3std15concurrencybase18_sharedStaticCtor1FZv 0040e7a0 f i phobos2-ldc:concurrencybase.obj
 0001:0000d7d0       __D3std12experimental6logger10filelogger10FileLogger6__ctorMFNfS3std5stdio4FilexE3std12experimental6logger4core8LogLevelZC3std12experimental6logger10filelogger10FileLogger 0040e7d0 f i phobos2-ldc:filelogger.obj
 0001:0000d890       __D3std12experimental6logger10filelogger10FileLogger4fileMFNdNfZS3std5stdio4File 0040e890 f i phobos2-ldc:filelogger.obj
 0001:0000d8d0       __D3std12experimental6logger10filelogger10FileLogger11beginLogMsgMFNfAyaiAyaAyaAyaE3std12experimental6logger4core8LogLevelS3std11concurrency3TidS3std8datetime7SysTimeC3std12experimental6logger4core6LoggerZv 0040e8d0 f i phobos2-ldc:filelogger.obj
 0001:0000da80       __D3std12experimental6logger4core60__T18systimeToISOStringTS3std5stdio4File17LockingTextWriterZ18systimeToISOStringFNfS3std5stdio4File17LockingTextWriterKxS3std8datetime7SysTimeZv 0040ea80 f i phobos2-ldc:filelogger.obj
 0001:0000dc10       __D3std6format68__T14formattedWriteTS3std5stdio4File17LockingTextWriterTaTAyaTAyaTiZ14formattedWriteFNfS3std5stdio4File17LockingTextWriterxAaAyaAyaiZk 0040ec10 f i phobos2-ldc:filelogger.obj
 0001:0000e080       __D3std12experimental6logger10filelogger10FileLogger10logMsgPartMFNfAxaZv 0040f080 f i phobos2-ldc:filelogger.obj
 0001:0000e0e0       __D3std6format62__T14formattedWriteTS3std5stdio4File17LockingTextWriterTaTAxaZ14formattedWriteFNfS3std5stdio4File17LockingTextWriterxAaAxaZk 0040f0e0 f i phobos2-ldc:filelogger.obj
 0001:0000e710       __D3std12experimental6logger10filelogger10FileLogger12finishLogMsgMFNfZv 0040f710 f i phobos2-ldc:filelogger.obj
 0001:0000e860       __D3std12experimental6logger10filelogger10FileLogger11writeLogMsgMFNfKS3std12experimental6logger4core6Logger8LogEntryZv 0040f860 f i phobos2-ldc:filelogger.obj
 0001:0000e950       __D3std12experimental6logger10filelogger10FileLogger11getFilenameMFZAya 0040f950 f i phobos2-ldc:filelogger.obj
 0001:0000e960       __D3std12experimental6logger10filelogger10FileLogger11__fieldDtorMFNeZv 0040f960 f i phobos2-ldc:filelogger.obj
 0001:0000e970       __D3std6format92__T14formattedWriteTS3std5stdio4File17LockingTextWriterTaTsTE3std8datetime5MonthThThThThTxlZ14formattedWriteFNfS3std5stdio4File17LockingTextWriterxAasE3std8datetime5MonthhhhhxlZk 0040f970 f i phobos2-ldc:filelogger.obj
 0001:0000f080       __D4core4time25__T3durVAyaa5_686f757273Z3durFNaNbNiNflZS4core4time8Duration 00410080 f i druntime-ldc:time.obj
 0001:0000f080       __D4core4time48__T7convertVAyaa5_686f757273VAyaa6_686e73656373Z7convertFNaNbNiNflZl 00410080 f i phobos2-ldc:filelogger.obj
 0001:0000f0a0       __D4core4time23__T3durVAyaa4_64617973Z3durFNaNbNiNflZS4core4time8Duration 004100a0 f i druntime-ldc:time.obj
 0001:0000f0a0       __D4core4time46__T7convertVAyaa4_64617973VAyaa6_686e73656373Z7convertFNaNbNiNflZl 004100a0 f i phobos2-ldc:filelogger.obj
 0001:0000f0d0       __D4core4time52__T7convertVAyaa7_6d696e75746573VAyaa6_686e73656373Z7convertFNaNbNiNflZl 004100d0 f i phobos2-ldc:filelogger.obj
 0001:0000f0f0       __D3std6format59__T13formatGenericTS3std5stdio4File17LockingTextWriterTsTaZ13formatGenericFS3std5stdio4File17LockingTextWriterPxvKS3std6format18__T10FormatSpecTaZ10FormatSpecZv 004100f0 f i phobos2-ldc:filelogger.obj
 0001:0000f1c0       __D3std6format57__T11formatValueTS3std5stdio4File17LockingTextWriterTsTaZ11formatValueFNfS3std5stdio4File17LockingTextWritersKS3std6format18__T10FormatSpecTaZ10FormatSpecZv 004101c0 f i phobos2-ldc:filelogger.obj
 0001:0000f4c0       __D3std6format78__T13formatGenericTS3std5stdio4File17LockingTextWriterTE3std8datetime5MonthTaZ13formatGenericFS3std5stdio4File17LockingTextWriterPxvKS3std6format18__T10FormatSpecTaZ10FormatSpecZv 004104c0 f i phobos2-ldc:filelogger.obj
 0001:0000f590       __D3std6format76__T11formatValueTS3std5stdio4File17LockingTextWriterTE3std8datetime5MonthTaZ11formatValueFNfS3std5stdio4File17LockingTextWriterE3std8datetime5MonthKS3std6format18__T10FormatSpecTaZ10FormatSpecZv 00410590 f i phobos2-ldc:filelogger.obj
 0001:0000ffd0       __D3std6format59__T13formatGenericTS3std5stdio4File17LockingTextWriterThTaZ13formatGenericFS3std5stdio4File17LockingTextWriterPxvKS3std6format18__T10FormatSpecTaZ10FormatSpecZv 00410fd0 f i phobos2-ldc:filelogger.obj
 0001:000100a0       __D3std6format57__T11formatValueTS3std5stdio4File17LockingTextWriterThTaZ11formatValueFNfS3std5stdio4File17LockingTextWriterhKS3std6format18__T10FormatSpecTaZ10FormatSpecZv 004110a0 f i phobos2-ldc:filelogger.obj
 0001:00010310       __D3std6format60__T13formatGenericTS3std5stdio4File17LockingTextWriterTxlTaZ13formatGenericFS3std5stdio4File17LockingTextWriterPxvKS3std6format18__T10FormatSpecTaZ10FormatSpecZv 00411310 f i phobos2-ldc:filelogger.obj
 0001:000103e0       __D3std6format58__T11formatValueTS3std5stdio4File17LockingTextWriterTxlTaZ11formatValueFNfS3std5stdio4File17LockingTextWriterxlKS3std6format18__T10FormatSpecTaZ10FormatSpecZv 004113e0 f i phobos2-ldc:filelogger.obj
 0001:000108a0       __D3std6format18__T10FormatSpecTaZ10FormatSpec59__T17writeUpToNextSpecTS3std5stdio4File17LockingTextWriterZ17writeUpToNextSpecMFNfS3std5stdio4File17LockingTextWriterZb 004118a0 f i phobos2-ldc:filelogger.obj
 0001:00010a40       __D3std6format60__T14formatUnsignedTS3std5stdio4File17LockingTextWriterTmTaZ14formatUnsignedFNfS3std5stdio4File17LockingTextWritermKxS3std6format18__T10FormatSpecTaZ10FormatSpeckbZv 00411a40 f i phobos2-ldc:filelogger.obj
 0001:00010e00       __D3std5stdio4File17LockingTextWriter11__T3putTAaZ3putMFNfAaZv 00411e00 f i phobos2-ldc:filelogger.obj
 0001:00010e00       __D3std5stdio4File17LockingTextWriter12__T3putTAxaZ3putMFNfAxaZv 00411e00 f i phobos2-ldc:filelogger.obj
 0001:00010eb0       __D3std5stdio4File17LockingTextWriter12__T3putTAxaZ3putMFAxaZ14__foreachbody4MFNbNiNfKwZi 00411eb0 f i phobos2-ldc:filelogger.obj
 0001:00010eb0       __D3std5stdio4File17LockingTextWriter11__T3putTAaZ3putMFAaZ14__foreachbody4MFNbNiNfKwZi 00411eb0 f i phobos2-ldc:filelogger.obj
 0001:00010ed0       __D3std6format59__T11formatRangeTS3std5stdio4File17LockingTextWriterTAyaTaZ11formatRangeFNfKS3std5stdio4File17LockingTextWriterKAyaKS3std6format18__T10FormatSpecTaZ10FormatSpecZv 00411ed0 f i phobos2-ldc:filelogger.obj
 0001:000114f0       __D3std6format58__T11formatValueTS3std5stdio4File17LockingTextWriterTyaTaZ11formatValueFNfS3std5stdio4File17LockingTextWriteryaKS3std6format18__T10FormatSpecTaZ10FormatSpecZv 004124f0 f i phobos2-ldc:filelogger.obj
 0001:000114f0       __D3std6format58__T11formatValueTS3std5stdio4File17LockingTextWriterTxaTaZ11formatValueFNfS3std5stdio4File17LockingTextWriterxaKS3std6format18__T10FormatSpecTaZ10FormatSpecZv 004124f0 f i phobos2-ldc:filelogger.obj
 0001:000115f0       __D3std6format59__T13formatElementTS3std5stdio4File17LockingTextWriterTwTaZ13formatElementFNfS3std5stdio4File17LockingTextWriterwKS3std6format18__T10FormatSpecTaZ10FormatSpecZv 004125f0 f i phobos2-ldc:filelogger.obj
 0001:000117f0       __D3std6format58__T11formatValueTS3std5stdio4File17LockingTextWriterTxlTaZ11formatValueFS3std5stdio4File17LockingTextWriterxlKS3std6format18__T10FormatSpecTaZ10FormatSpecZ12__dgliteral5MFNaNbNiNfZAya 004127f0 f i phobos2-ldc:filelogger.obj
 0001:000117f0       __D3std6format57__T11formatValueTS3std5stdio4File17LockingTextWriterTkTaZ11formatValueFS3std5stdio4File17LockingTextWriterkKS3std6format18__T10FormatSpecTaZ10FormatSpecZ12__dgliteral5MFNaNbNiNfZAya 004127f0 f i phobos2-ldc:filelogger.obj
 0001:000117f0       __D3std6format57__T11formatValueTS3std5stdio4File17LockingTextWriterTiTaZ11formatValueFS3std5stdio4File17LockingTextWriteriKS3std6format18__T10FormatSpecTaZ10FormatSpecZ12__dgliteral5MFNaNbNiNfZAya 004127f0 f i phobos2-ldc:filelogger.obj
 0001:000117f0       __D3std6format57__T11formatValueTS3std5stdio4File17LockingTextWriterThTaZ11formatValueFS3std5stdio4File17LockingTextWriterhKS3std6format18__T10FormatSpecTaZ10FormatSpecZ12__dgliteral5MFNaNbNiNfZAya 004127f0 f i phobos2-ldc:filelogger.obj
 0001:000117f0       __D3std6format57__T11formatValueTS3std5stdio4File17LockingTextWriterTsTaZ11formatValueFS3std5stdio4File17LockingTextWritersKS3std6format18__T10FormatSpecTaZ10FormatSpecZ12__dgliteral5MFNaNbNiNfZAya 004127f0 f i phobos2-ldc:filelogger.obj
 0001:00011800       __D3std6format18__T10FormatSpecTaZ10FormatSpec59__T17writeUpToNextSpecTS3std5stdio4File17LockingTextWriterZ17writeUpToNextSpecMFS3std5stdio4File17LockingTextWriterZ12__dgliteral2MFNaNbNiNfZAya 00412800 f i phobos2-ldc:filelogger.obj
 0001:00011810       __D3std6format57__T11formatValueTS3std5stdio4File17LockingTextWriterTkTaZ11formatValueFNfS3std5stdio4File17LockingTextWriterkKS3std6format18__T10FormatSpecTaZ10FormatSpecZv 00412810 f i phobos2-ldc:filelogger.obj
 0001:00011b80       __D3std6format52__T10formatCharTS3std5stdio4File17LockingTextWriterZ10formatCharFNfS3std5stdio4File17LockingTextWriterxwxaZv 00412b80 f i phobos2-ldc:filelogger.obj
 0001:00011d70       __D3std6format60__T14formattedWriteTS3std5stdio4File17LockingTextWriterTaTkZ14formattedWriteFNfS3std5stdio4File17LockingTextWriterxAakZk 00412d70 f i phobos2-ldc:filelogger.obj
 0001:000122e0       __D3std5stdio4File17LockingTextWriter11__T3putTxwZ3putMFNbNiNfxwZv 004132e0 f i phobos2-ldc:filelogger.obj
 0001:00012390       __D3std4conv16__T6toImplTiTxlZ6toImplFNaNfxlZi 00413390 f i phobos2-ldc:filelogger.obj
 0001:00012490       __D3std6format61__T13formatGenericTS3std5stdio4File17LockingTextWriterTAyaTaZ13formatGenericFS3std5stdio4File17LockingTextWriterPxvKS3std6format18__T10FormatSpecTaZ10FormatSpecZv 00413490 f i phobos2-ldc:filelogger.obj
 0001:000125b0       __D3std6format59__T13formatGenericTS3std5stdio4File17LockingTextWriterTiTaZ13formatGenericFS3std5stdio4File17LockingTextWriterPxvKS3std6format18__T10FormatSpecTaZ10FormatSpecZv 004135b0 f i phobos2-ldc:filelogger.obj
 0001:00012680       __D3std6format57__T11formatValueTS3std5stdio4File17LockingTextWriterTiTaZ11formatValueFNfS3std5stdio4File17LockingTextWriteriKS3std6format18__T10FormatSpecTaZ10FormatSpecZv 00413680 f i phobos2-ldc:filelogger.obj
 0001:00012a10       __D3std6format24__T9getNthIntTAyaTAyaTiZ9getNthIntFNaNfkAyaAyaiZi 00413a10 f i phobos2-ldc:filelogger.obj
 0001:00012b10       __D3std6format60__T14formattedWriteTS3std5stdio4File17LockingTextWriterTaTkZ14formattedWriteFS3std5stdio4File17LockingTextWriterxAakZ12__dgliteral7MFNaNiNfZAya 00413b10 f i phobos2-ldc:filelogger.obj
 0001:00012b10       __D3std6format92__T14formattedWriteTS3std5stdio4File17LockingTextWriterTaTsTE3std8datetime5MonthThThThThTxlZ14formattedWriteFS3std5stdio4File17LockingTextWriterxAasE3std8datetime5MonthhhhhxlZ13__dgliteral25MFNaNiNfZAya 00413b10 f i phobos2-ldc:filelogger.obj
 0001:00012b10       __D3std6format62__T14formattedWriteTS3std5stdio4File17LockingTextWriterTaTAxaZ14formattedWriteFS3std5stdio4File17LockingTextWriterxAaAxaZ12__dgliteral7MFNaNiNfZAya 00413b10 f i phobos2-ldc:filelogger.obj
 0001:00012b10       __D3std6format68__T14formattedWriteTS3std5stdio4File17LockingTextWriterTaTAyaTAyaTiZ14formattedWriteFS3std5stdio4File17LockingTextWriterxAaAyaAyaiZ13__dgliteral13MFNaNiNfZAya 00413b10 f i phobos2-ldc:filelogger.obj
 0001:00012bb0       __D3std6format59__T11formatRangeTS3std5stdio4File17LockingTextWriterTAxaTaZ11formatRangeFNfKS3std5stdio4File17LockingTextWriterKAxaKS3std6format18__T10FormatSpecTaZ10FormatSpecZv 00413bb0 f i phobos2-ldc:filelogger.obj
 0001:000132d0       __D3std6socket8_lasterrFNbNiNfZi 004142d0 f i phobos2-ldc:socket.obj
 0001:000132e0       __D3std6socket17formatSocketErrorFNeiZAya 004142e0 f i phobos2-ldc:socket.obj
 0001:000132f0       __D3std6socket17SocketOSException6__ctorMFNfAyaAyakC6object9ThrowableiPFNeiZAyaZC3std6socket17SocketOSException 004142f0 f i phobos2-ldc:socket.obj
 0001:00013390       __D3std6socket17SocketOSException6__ctorMFNfAyaiPFNeiZAyaAyakC6object9ThrowableZC3std6socket17SocketOSException 00414390 f i phobos2-ldc:socket.obj
 0001:00013430       __D3std6socket18_sharedStaticCtor1FZv 00414430 f i phobos2-ldc:socket.obj
 0001:00013520       __D3std6socket18_sharedStaticDtor2FNbNiZv 00414520 f i phobos2-ldc:socket.obj
 0001:00013530       __D3std6socket8Protocol8populateMFNaNbPS4core3sys7windows8winsock28protoentZv 00414530 f i phobos2-ldc:socket.obj
 0001:00013710       __D3std6socket8Protocol17getProtocolByNameMFNbNexAaZb 00414710 f i phobos2-ldc:socket.obj
 0001:00013780       __D3std6socket8Protocol17getProtocolByTypeMFNbNeE3std6socket12ProtocolTypeZb 00414780 f i phobos2-ldc:socket.obj
 0001:000137b0       __D3std6socket7Service8populateMFNaNbPS4core3sys7windows8winsock27serventZv 004147b0 f i phobos2-ldc:socket.obj
 0001:00013a40       __D3std6socket7Service16getServiceByNameMFNbNexAaxAaZb 00414a40 f i phobos2-ldc:socket.obj
 0001:00013af0       __D3std6socket7Service16getServiceByPortMFNbNetxAaZb 00414af0 f i phobos2-ldc:socket.obj
 0001:00013b60       __D3std6socket12InternetHost12validHostentMFNfxPS4core3sys7windows8winsock27hostentZv 00414b60 f i phobos2-ldc:socket.obj
 0001:00013c00       __D3std6socket12InternetHost8populateMFNaNbPS4core3sys7windows8winsock27hostentZv 00414c00 f i phobos2-ldc:socket.obj
 0001:00013e70       __D3std6socket12InternetHost13getHostByNameMFNexAaZb 00414e70 f i phobos2-ldc:socket.obj
 0001:00013ee0       __D3std6socket12InternetHost13getHostByAddrMFNekZb 00414ee0 f i phobos2-ldc:socket.obj
 0001:00013f30       __D3std6socket12InternetHost13getHostByAddrMFNexAaZb 00414f30 f i phobos2-ldc:socket.obj
 0001:00013f40       __D3std6socket12InternetHost530__T13getHostNoSyncVAyaa249_0d0a2020202020202020202020206175746f2078203d20696e65745f6164647228706172616d2e74656d7043537472696e672829293b0d0a202020202020202020202020656e666f726365287820213d20494e414444525f4e4f4e452c0d0a202020202020202020202020202020206e657720536f636b6574506172616d65746572457863657074696f6e2822496e76616c6964204950763420616464726573732229293b0d0a2020202020202020202020206175746f206865203d20676574686f73746279616464722826782c20342c206361737428696e74294164647265737346616d696c792e494e4554293b0d0a2020202020202020TAxaZ13getHostNoSyncMFAxaZb 00414f40 f i phobos2-ldc:socket.obj
 0001:00013ff0       __D3std6socket7Address13addressFamilyMxFNaNbNdNiNfZE3std6socket13AddressFamily 00414ff0 f i phobos2-ldc:socket.obj
 0001:00014000       __D3std6socket7Address12toHostStringMxFNebZAya 00415000 f i phobos2-ldc:socket.obj
 0001:00014150       __D3std6socket7Address12toHostStringMxFNebZ12__dgliteral2MFNaNfZC6object9Throwable 00415150 f i phobos2-ldc:socket.obj
 0001:00014270       __D3std6socket7Address15toServiceStringMxFNebZAya 00415270 f i phobos2-ldc:socket.obj
 0001:000143a0       __D3std6socket7Address15toServiceStringMxFNebZ12__dgliteral2MFNaNfZC6object9Throwable 004153a0 f i phobos2-ldc:socket.obj
 0001:000144c0       __D3std6socket7Address12toAddrStringMxFNfZAya 004154c0 f i phobos2-ldc:socket.obj
 0001:000144d0       __D3std6socket7Address16toHostNameStringMxFNfZAya 004154d0 f i phobos2-ldc:socket.obj
 0001:000144e0       __D3std6socket7Address12toPortStringMxFNfZAya 004154e0 f i phobos2-ldc:socket.obj
 0001:000144f0       __D3std6socket7Address19toServiceNameStringMxFNfZAya 004154f0 f i phobos2-ldc:socket.obj
 0001:00014500       __D3std6socket7Address8toStringMxFNfZAya 00415500 f i phobos2-ldc:socket.obj
 0001:00014690       __D3std6socket14UnknownAddress4nameMxFNaNbNdNiNfZPxS4core3sys7windows8winsock28sockaddr 00415690 f i phobos2-ldc:socket.obj
 0001:00014690       __D3std6socket14UnknownAddress4nameMFNaNbNdNiNfZPS4core3sys7windows8winsock28sockaddr 00415690 f i phobos2-ldc:socket.obj
 0001:00014690       __D3std6socket15InternetAddress4nameMxFNaNbNdNiNfZPxS4core3sys7windows8winsock28sockaddr 00415690 f i phobos2-ldc:socket.obj
 0001:00014690       __D3std6socket16Internet6Address4nameMFNaNbNdNiNfZPS4core3sys7windows8winsock28sockaddr 00415690 f i phobos2-ldc:socket.obj
 0001:00014690       __D3std6socket16Internet6Address4nameMxFNaNbNdNiNfZPxS4core3sys7windows8winsock28sockaddr 00415690 f i phobos2-ldc:socket.obj
 0001:00014690       __D3std6socket15InternetAddress4nameMFNaNbNdNiNfZPS4core3sys7windows8winsock28sockaddr 00415690 f i phobos2-ldc:socket.obj
 0001:000146a0       __D3std6socket15InternetAddress7nameLenMxFNaNbNdNiNfZi 004156a0 f i phobos2-ldc:socket.obj
 0001:000146a0       __D3std6socket14UnknownAddress7nameLenMxFNaNbNdNiNfZi 004156a0 f i phobos2-ldc:socket.obj
 0001:000146a0       __D2rt8typeinfo10ti_cdouble10TypeInfo_r5tsizeMxFNaNbNdNiNfZk 004156a0 f i druntime-ldc:ti_cdouble.obj
 0001:000146a0       __D6object15TypeInfo_Vector6talignMxFNaNbNdNiNfZk 004156a0 f i druntime-ldc:object.obj
 0001:000146a0       __D2rt8typeinfo8ti_creal10TypeInfo_c5tsizeMxFNaNbNdNiNfZk 004156a0 f i druntime-ldc:ti_creal.obj
 0001:000146b0       __D3std6socket9SocketSet8toFd_setMFNaNbNiNeZPS4core3sys7windows8winsock224__T13fd_set_customVki64Z13fd_set_custom 004156b0 f i phobos2-ldc:socket.obj
 0001:000146b0       __D3std7windows8registry5Value4typeMxFNaNbNdNfZE3std7windows8registry14REG_VALUE_TYPE 004156b0 f i phobos2-ldc:registry.obj
 0001:000146b0       __D3std6socket23UnknownAddressReference7nameLenMxFNaNbNdNiNfZi 004156b0 f i phobos2-ldc:socket.obj
 0001:000146b0       __D3std6socket6Socket13addressFamilyMFNdNfZE3std6socket13AddressFamily 004156b0 f i phobos2-ldc:socket.obj
 0001:000146c0       __D3std6socket15InternetAddress4addrMxFNaNbNdNiNfZk 004156c0 f i phobos2-ldc:socket.obj
 0001:000146d0       __D3std6socket15InternetAddress12toAddrStringMxFNeZAya 004156d0 f i phobos2-ldc:socket.obj
 0001:00014770       __D3std6socket15InternetAddress12toPortStringMxFNfZAya 00415770 f i phobos2-ldc:socket.obj
 0001:00014790       __D3std6socket15InternetAddress16toHostNameStringMxFNfZAya 00415790 f i phobos2-ldc:socket.obj
 0001:000148b0       __D3std6socket15InternetAddress8opEqualsMxFNfC6ObjectZb 004158b0 f i phobos2-ldc:socket.obj
 0001:000148f0       __D3std6socket16Internet6Address7nameLenMxFNaNbNdNiNfZi 004158f0 f i phobos2-ldc:socket.obj
 0001:00014900       __D3std6socket16Internet6Address4portMxFNaNbNdNiNfZt 00415900 f i phobos2-ldc:socket.obj
 0001:00014900       __D3std6socket15InternetAddress4portMxFNaNbNdNiNfZt 00415900 f i phobos2-ldc:socket.obj
 0001:00014910       __D3std6socket16Internet6Address4addrMxFNaNbNdNiNfZG16h 00415910 f i phobos2-ldc:socket.obj
 0001:00014930       __D3std6socket13HostException8__mixin16__ctorMFNfAyaAyakC6object9ThrowableiZC3std6socket13HostException 00415930 f i phobos2-ldc:socket.obj
 0001:00014930       __D3std6socket21SocketAcceptException8__mixin16__ctorMFNfAyaAyakC6object9ThrowableiZC3std6socket21SocketAcceptException 00415930 f i phobos2-ldc:socket.obj
 0001:000149d0       __D3std6socket9SocketSet5resetMFNaNbNiNfZv 004159d0 f i phobos2-ldc:socket.obj
 0001:000149e0       __D3std6socket9SocketSet3addMFNaNbNeE3std6socket8socket_tZv 004159e0 f i phobos2-ldc:socket.obj
 0001:00014a60       __D3std6socket9SocketSet3addMFNaNbNfC3std6socket6SocketZv 00415a60 f i phobos2-ldc:socket.obj
 0001:00014a70       __D3std6socket9SocketSet6removeMFNaNbNfE3std6socket8socket_tZv 00415a70 f i phobos2-ldc:socket.obj
 0001:00014ad0       __D3std6socket9SocketSet6removeMFNaNbNfC3std6socket6SocketZv 00415ad0 f i phobos2-ldc:socket.obj
 0001:00014ae0       __D3std6socket9SocketSet5isSetMxFNaNbNiNfE3std6socket8socket_tZi 00415ae0 f i phobos2-ldc:socket.obj
 0001:00014b20       __D3std6socket9SocketSet5isSetMxFNaNbNiNfC3std6socket6SocketZi 00415b20 f i phobos2-ldc:socket.obj
 0001:00014b30       __D3std6socket9SocketSet3maxMxFNaNbNdNiNfZk 00415b30 f i phobos2-ldc:socket.obj
 0001:00014b40       __D3std6socket9SocketSet7selectnMxFNaNbNiNfZi 00415b40 f i phobos2-ldc:socket.obj
 0001:00014b50       __D3std6socket6Socket6__dtorMFNbNiNfZv 00415b50 f i phobos2-ldc:socket.obj
 0001:00014b60       __D3std6socket6Socket5closeMFNbNiNeZv 00415b60 f i phobos2-ldc:socket.obj
 0001:00014b80       __D3std6socket6Socket8blockingMxFNbNdNiNeZb 00415b80 f i phobos2-ldc:socket.obj
 0001:00014b90       __D3std6socket6Socket8blockingMFNdNebZv 00415b90 f i phobos2-ldc:socket.obj
 0001:00014c50       __D3std6socket6Socket7isAliveMxFNdNeZb 00415c50 f i phobos2-ldc:socket.obj
 0001:00014c90       __D3std6socket6Socket4bindMFNeC3std6socket7AddressZv 00415c90 f i phobos2-ldc:socket.obj
 0001:00014d40       __D3std6socket6Socket7connectMFNeC3std6socket7AddressZv 00415d40 f i phobos2-ldc:socket.obj
 0001:00014e00       __D3std6socket6Socket6listenMFNeiZv 00415e00 f i phobos2-ldc:socket.obj
 0001:00014ea0       __D3std6socket6Socket9acceptingMFNaNbNfZC3std6socket6Socket 00415ea0 f i phobos2-ldc:socket.obj
 0001:00014ee0       __D3std6socket6Socket6acceptMFNeZC3std6socket6Socket 00415ee0 f i phobos2-ldc:socket.obj
 0001:00015030       __D3std6socket6Socket6_closeFNbNiE3std6socket8socket_tZv 00416030 f i phobos2-ldc:socket.obj
 0001:00015040       __D3std6socket6Socket8shutdownMFNbNiNeE3std6socket14SocketShutdownZv 00416040 f i phobos2-ldc:socket.obj
 0001:00015050       __D3std6socket6Socket13remoteAddressMFNdNeZC3std6socket7Address 00416050 f i phobos2-ldc:socket.obj
 0001:00015190       __D3std6socket6Socket13createAddressMFNaNbNfZC3std6socket7Address 00416190 f i phobos2-ldc:socket.obj
 0001:00015260       __D3std6socket6Socket12localAddressMFNdNeZC3std6socket7Address 00416260 f i phobos2-ldc:socket.obj
 0001:000153a0       __D3std6socket6Socket4sendMFNeAxvE3std6socket11SocketFlagsZi 004163a0 f i phobos2-ldc:socket.obj
 0001:000153f0       __D3std6socket6Socket4sendMFNfAxvZi 004163f0 f i phobos2-ldc:socket.obj
 0001:00015410       __D3std6socket6Socket6sendToMFNeAxvE3std6socket11SocketFlagsC3std6socket7AddressZi 00416410 f i phobos2-ldc:socket.obj
 0001:00015470       __D3std6socket6Socket6sendToMFNfAxvC3std6socket7AddressZi 00416470 f i phobos2-ldc:socket.obj
 0001:00015490       __D3std6socket6Socket6sendToMFNeAxvE3std6socket11SocketFlagsZi 00416490 f i phobos2-ldc:socket.obj
 0001:000154e0       __D3std6socket6Socket6sendToMFNfAxvZi 004164e0 f i phobos2-ldc:socket.obj
 0001:00015500       __D3std6socket6Socket7receiveMFNeAvE3std6socket11SocketFlagsZi 00416500 f i phobos2-ldc:socket.obj
 0001:00015550       __D3std6socket6Socket7receiveMFNfAvZi 00416550 f i phobos2-ldc:socket.obj
 0001:00015570       __D3std6socket6Socket11receiveFromMFNeAvE3std6socket11SocketFlagsKC3std6socket7AddressZi 00416570 f i phobos2-ldc:socket.obj
 0001:00015600       __D3std6socket6Socket11receiveFromMFNfAvKC3std6socket7AddressZi 00416600 f i phobos2-ldc:socket.obj
 0001:00015620       __D3std6socket6Socket11receiveFromMFNeAvE3std6socket11SocketFlagsZi 00416620 f i phobos2-ldc:socket.obj
 0001:00015680       __D3std6socket6Socket11receiveFromMFNfAvZi 00416680 f i phobos2-ldc:socket.obj
 0001:000156a0       __D3std6socket6Socket9getOptionMFNeE3std6socket17SocketOptionLevelE3std6socket12SocketOptionAvZi 004166a0 f i phobos2-ldc:socket.obj
 0001:00015760       __D3std6socket6Socket9getOptionMFNeE3std6socket17SocketOptionLevelE3std6socket12SocketOptionJiZi 00416760 f i phobos2-ldc:socket.obj
 0001:00015760       __D3std6socket6Socket9getOptionMFNeE3std6socket17SocketOptionLevelE3std6socket12SocketOptionJS3std6socket6LingerZi 00416760 f i phobos2-ldc:socket.obj
 0001:00015790       __D3std6socket6Socket9getOptionMFNeE3std6socket17SocketOptionLevelE3std6socket12SocketOptionJS4core4time8DurationZv 00416790 f i phobos2-ldc:socket.obj
 0001:00015830       __D3std6socket6Socket9getOptionMFNeE3std6socket17SocketOptionLevelE3std6socket12SocketOptionJS4core4time8DurationZ12__dgliteral4MFNaNfZC6object9Throwable 00416830 f i phobos2-ldc:socket.obj
 0001:000158c0       __D3std6socket6Socket9setOptionMFNeE3std6socket17SocketOptionLevelE3std6socket12SocketOptionAvZv 004168c0 f i phobos2-ldc:socket.obj
 0001:00015970       __D3std6socket6Socket9setOptionMFNeE3std6socket17SocketOptionLevelE3std6socket12SocketOptioniZv 00416970 f i phobos2-ldc:socket.obj
 0001:000159a0       __D3std6socket6Socket9setOptionMFNeE3std6socket17SocketOptionLevelE3std6socket12SocketOptionS3std6socket6LingerZv 004169a0 f i phobos2-ldc:socket.obj
 0001:000159c0       __D3std6socket6Socket9setOptionMFNeE3std6socket17SocketOptionLevelE3std6socket12SocketOptionS4core4time8DurationZv 004169c0 f i phobos2-ldc:socket.obj
 0001:00015a90       __D3std6socket6Socket9setOptionMFNeE3std6socket17SocketOptionLevelE3std6socket12SocketOptionS4core4time8DurationZ12__dgliteral4MFNaNfZC6object9Throwable 00416a90 f i phobos2-ldc:socket.obj
 0001:00015b20       __D3std6socket6Socket9setOptionMFNeE3std6socket17SocketOptionLevelE3std6socket12SocketOptionS4core4time8DurationZ12__dgliteral5MFNaNbNfZC6object9Throwable 00416b20 f i phobos2-ldc:socket.obj
 0001:00015b90       __D3std6socket6Socket12getErrorTextMFNfZAya 00416b90 f i phobos2-ldc:socket.obj
 0001:00015bc0       __D3std6socket6Socket12setKeepAliveMFNeiiZv 00416bc0 f i phobos2-ldc:socket.obj
 0001:00015c40       __D3std6socket6Socket12setKeepAliveMFNeiiZ12__dgliteral3MFNaNfZC6object9Throwable 00416c40 f i phobos2-ldc:socket.obj
 0001:00015d00       __D3std6socket9TcpSocket6__ctorMFNfZC3std6socket9TcpSocket 00416d00 f i phobos2-ldc:socket.obj
 0001:00015da0       __D3std6socket9UdpSocket6__ctorMFNfZC3std6socket9UdpSocket 00416da0 f i phobos2-ldc:socket.obj
 0001:00015e40       __D3std6socket12InternetHost530__T13getHostNoSyncVAyaa249_0d0a2020202020202020202020206175746f2078203d20696e65745f6164647228706172616d2e74656d7043537472696e672829293b0d0a202020202020202020202020656e666f726365287820213d20494e414444525f4e4f4e452c0d0a202020202020202020202020202020206e657720536f636b6574506172616d65746572457863657074696f6e2822496e76616c6964204950763420616464726573732229293b0d0a2020202020202020202020206175746f206865203d20676574686f73746279616464722826782c20342c206361737428696e74294164647265737346616d696c792e494e4554293b0d0a2020202020202020TAxaZ13getHostNoSyncMFAxaZ12__dgliteral2MFNaNbNfZC6object9Throwable 00416e40 f i phobos2-ldc:socket.obj
 0001:00015eb0       __D3std4conv17__T6toImplTAyaTtZ6toImplFNaNbNetkE3std5ascii10LetterCaseZAya 00416eb0 f i phobos2-ldc:socket.obj
 0001:00016250       __D3std4conv42__T6toImplTAyaTE3std6socket12SocketOptionZ6toImplFNaNfE3std6socket12SocketOptionZAya 00417250 f i phobos2-ldc:socket.obj
 0001:00016780       __D3std4conv15__T6toImplTiTlZ6toImplFNaNflZi 00417780 f i phobos2-ldc:socket.obj
 0001:00016880       __D4core4time52__T7convertVAyaa7_7365636f6e6473VAyaa6_686e73656373Z7convertFNaNbNiNflZl 00417880 f i phobos2-ldc:socket.obj
 0001:00016880       __D4core4time29__T3durVAyaa7_7365636f6e6473Z3durFNaNbNiNflZS4core4time8Duration 00417880 f i druntime-ldc:time.obj
 0001:000168e0       __D3std7windows8registry17RegistryException6__ctorMFNfAyaiAyakC6object9ThrowableZC3std7windows8registry17RegistryException 004178e0 f i phobos2-ldc:registry.obj
 0001:00016910       __D3std7windows8registry14Win32Exception5errorMFNdZi 00417910 f i phobos2-ldc:registry.obj
 0001:00016920       __D3std7windows8registry17RegistryException6__ctorMFNfAyaAyakC6object9ThrowableZC3std7windows8registry17RegistryException 00417920 f i phobos2-ldc:registry.obj
 0001:00016920       __D3std7windows8registry14Win32Exception6__ctorMFNfAyaAyakC6object9ThrowableZC3std7windows8registry14Win32Exception 00417920 f i phobos2-ldc:registry.obj
 0001:00016950       __D3std7windows8registry12regCreateKeyFxPvxAyaxkxE3std7windows8registry6REGSAMxPS4core3sys7windows5winnt19SECURITY_ATTRIBUTESJkZPv 00417950 f i phobos2-ldc:registry.obj
 0001:00016af0       __D3std7windows8registry12regDeleteKeyFxPvxAyaxE3std7windows8registry6REGSAMZv 00417af0 f i phobos2-ldc:registry.obj
 0001:00016c80       __D3std7windows8registry12regDeleteKeyFxPvxAyaxE3std7windows8registry6REGSAMZ12__dgliteral4MFNaNbNfZAya 00417c80 f i phobos2-ldc:registry.obj
 0001:00016cd0       __D3std7windows8registry14regDeleteValueFxPvxAyaZv 00417cd0 f i phobos2-ldc:registry.obj
 0001:00016e40       __D3std7windows8registry15regGetValueTypeFxPvxAyaZE3std7windows8registry14REG_VALUE_TYPE 00417e40 f i phobos2-ldc:registry.obj
 0001:00016fc0       __D3std7windows8registry10regOpenKeyFxPvxAyaxE3std7windows8registry6REGSAMZPv 00417fc0 f i phobos2-ldc:registry.obj
 0001:00017150       __D3std7windows8registry13regQueryValueFxPvAyaJAyaE3std7windows8registry14REG_VALUE_TYPEZv 00418150 f i phobos2-ldc:registry.obj
 0001:000174e0       __D3std7windows8registry13regQueryValueFxPvxAyaJAAyaE3std7windows8registry14REG_VALUE_TYPEZv 004184e0 f i phobos2-ldc:registry.obj
 0001:000178e0       __D3std7windows8registry13regQueryValueFxPvxAyaJkE3std7windows8registry14REG_VALUE_TYPEZv 004188e0 f i phobos2-ldc:registry.obj
 0001:00017ae0       __D3std7windows8registry13regQueryValueFxPvxAyaJkE3std7windows8registry14REG_VALUE_TYPEZ12__dgliteral6MFNaNfZC6object9Throwable 00418ae0 f i phobos2-ldc:registry.obj
 0001:00017b50       __D3std7windows8registry13regQueryValueFxPvxAyaJmE3std7windows8registry14REG_VALUE_TYPEZv 00418b50 f i phobos2-ldc:registry.obj
 0001:00017d50       __D3std7windows8registry13regQueryValueFxPvxAyaJmE3std7windows8registry14REG_VALUE_TYPEZ12__dgliteral6MFNaNfZC6object9Throwable 00418d50 f i phobos2-ldc:registry.obj
 0001:00017dc0       __D3std7windows8registry13regQueryValueFxPvxAyaJAgE3std7windows8registry14REG_VALUE_TYPEZv 00418dc0 f i phobos2-ldc:registry.obj
 0001:000180c0       __D3std7windows8registry11regSetValueFxPvxAyaxE3std7windows8registry14REG_VALUE_TYPExPvxkZv 004190c0 f i phobos2-ldc:registry.obj
 0001:00018230       __D3std7windows8registry16regProcessNthKeyFPvMDFMDFkJAyaZiZvZ9__lambda3MFkJAyaZi 00419230 f i phobos2-ldc:registry.obj
 0001:000182f0       __D3std7windows8registry18regProcessNthValueFPvMDFMDFkJAyaZiZvZ9__lambda3MFkJAyaZi 004192f0 f i phobos2-ldc:registry.obj
 0001:000183b0       __D3std7windows8registry3Key6__dtorMFZv 004193b0 f i phobos2-ldc:registry.obj
 0001:000183e0       __D3std7windows8registry3Key4nameMxFNaNbNdNfZAya 004193e0 f i phobos2-ldc:registry.obj
 0001:000183e0       __D6object16TypeInfo_Typedef8toStringMxFNaNbNfZAya 004193e0 f i druntime-ldc:object.obj
 0001:000183f0       __D3std7windows8registry3Key8keyCountMxFNdZk 004193f0 f i phobos2-ldc:registry.obj
 0001:000184b0       __D3std7windows8registry3Key4keysMFNaNdNfZC3std7windows8registry11KeySequence 004194b0 f i phobos2-ldc:registry.obj
 0001:000184e0       __D3std7windows8registry3Key8keyNamesMFNaNdNfZC3std7windows8registry15KeyNameSequence 004194e0 f i phobos2-ldc:registry.obj
 0001:00018510       __D3std7windows8registry3Key10valueCountMxFNdZk 00419510 f i phobos2-ldc:registry.obj
 0001:000185d0       __D3std7windows8registry3Key6valuesMFNaNdNfZC3std7windows8registry13ValueSequence 004195d0 f i phobos2-ldc:registry.obj
 0001:00018600       __D3std7windows8registry3Key10valueNamesMFNaNdNfZC3std7windows8registry17ValueNameSequence 00419600 f i phobos2-ldc:registry.obj
 0001:00018630       __D3std7windows8registry3Key9createKeyMFAyaE3std7windows8registry6REGSAMZC3std7windows8registry3Key 00419630 f i phobos2-ldc:registry.obj
 0001:00018730       __D3std7windows8registry3Key9createKeyMFAyaE3std7windows8registry6REGSAMZ12__dgliteral3MFNaNfZC6object9Throwable 00419730 f i phobos2-ldc:registry.obj
 0001:000187a0       __D3std7windows8registry3Key6getKeyMFAyaE3std7windows8registry6REGSAMZC3std7windows8registry3Key 004197a0 f i phobos2-ldc:registry.obj
 0001:00018910       __D3std7windows8registry3Key9deleteKeyMFAyaE3std7windows8registry6REGSAMZv 00419910 f i phobos2-ldc:registry.obj
 0001:00018940       __D3std7windows8registry3Key9deleteKeyMFAyaE3std7windows8registry6REGSAMZ12__dgliteral3MFNaNfZC6object9Throwable 00419940 f i phobos2-ldc:registry.obj
 0001:000189b0       __D3std7windows8registry3Key8getValueMFAyaZC3std7windows8registry5Value 004199b0 f i phobos2-ldc:registry.obj
 0001:00018a00       __D3std7windows8registry3Key8setValueMFAyakZv 00419a00 f i phobos2-ldc:registry.obj
 0001:00018a20       __D3std7windows8registry3Key8setValueMFAyakE3std6system6EndianZv 00419a20 f i phobos2-ldc:registry.obj
 0001:00018a70       __D3std7windows8registry3Key8setValueMFAyamZv 00419a70 f i phobos2-ldc:registry.obj
 0001:00018ab0       __D3std7windows8registry3Key8setValueMFAyaAyaZv 00419ab0 f i phobos2-ldc:registry.obj
 0001:00018ad0       __D3std7windows8registry3Key8setValueMFAyaAyabZv 00419ad0 f i phobos2-ldc:registry.obj
 0001:00018bb0       __D3std7windows8registry3Key8setValueMFAyaAAyaZv 00419bb0 f i phobos2-ldc:registry.obj
 0001:00018c50       __D3std5array18__T4joinTAAyuTAyuZ4joinFNaNbNfAAyuAyuZAyu 00419c50 f i phobos2-ldc:registry.obj
 0001:00018e20       __D3std7windows8registry3Key8setValueMFAyaAgZv 00419e20 f i phobos2-ldc:registry.obj
 0001:00018e40       __D3std7windows8registry3Key11deleteValueMFAyaZv 00419e40 f i phobos2-ldc:registry.obj
 0001:00018e60       __D3std7windows8registry3Key5flushMFZv 00419e60 f i phobos2-ldc:registry.obj
 0001:00018ee0       __D3std7windows8registry5Value8value_SZMxFNdZAya 00419ee0 f i phobos2-ldc:registry.obj
 0001:00018f20       __D3std7windows8registry5Value15value_EXPAND_SZMxFNdZAya 00419f20 f i phobos2-ldc:registry.obj
 0001:00019040       __D3std7windows8registry5Value14value_MULTI_SZMxFNdZAAya 0041a040 f i phobos2-ldc:registry.obj
 0001:00019080       __D3std7windows8registry5Value11value_DWORDMxFNdZk 0041a080 f i phobos2-ldc:registry.obj
 0001:000190b0       __D3std7windows8registry5Value11value_QWORDMxFNdZm 0041a0b0 f i phobos2-ldc:registry.obj
 0001:000190f0       __D3std7windows8registry5Value12value_BINARYMxFNdZAg 0041a0f0 f i phobos2-ldc:registry.obj
 0001:00019130       __D3std7windows8registry15KeyNameSequence10getKeyNameMFkZAya 0041a130 f i phobos2-ldc:registry.obj
 0001:00019240       __D3std7windows8registry15KeyNameSequence7opApplyMFMDFKAyaZiZi 0041a240 f i phobos2-ldc:registry.obj
 0001:00019360       __D6object14TypeInfo_Const6equalsMxFxPvxPvZb 0041a360 f i druntime-ldc:object.obj
 0001:00019360       __D6object15TypeInfo_Vector6equalsMxFxPvxPvZb 0041a360 f i druntime-ldc:object.obj
 0001:00019360       __D6object16TypeInfo_Typedef6equalsMxFxPvxPvZb 0041a360 f i druntime-ldc:object.obj
 0001:00019360       __D3std7windows8registry11KeySequence5countMxFNdZk 0041a360 f i phobos2-ldc:registry.obj
 0001:00019360       __D3std7windows8registry15KeyNameSequence5countMxFNdZk 0041a360 f i phobos2-ldc:registry.obj
 0001:00019370       __D3std7windows8registry11KeySequence6getKeyMFkZC3std7windows8registry3Key 0041a370 f i phobos2-ldc:registry.obj
 0001:00019490       __D3std7windows8registry13ValueSequence7opIndexMFkZC3std7windows8registry5Value 0041a490 f i phobos2-ldc:registry.obj
 0001:00019490       __D3std7windows8registry11KeySequence7opIndexMFkZC3std7windows8registry3Key 0041a490 f i phobos2-ldc:registry.obj
 0001:00019490       __D3std7windows8registry15KeyNameSequence7opIndexMFkZAya 0041a490 f i phobos2-ldc:registry.obj
 0001:00019490       __D3std7windows8registry17ValueNameSequence7opIndexMFkZAya 0041a490 f i phobos2-ldc:registry.obj
 0001:000194a0       __D3std7windows8registry11KeySequence7opApplyMFMDFKC3std7windows8registry3KeyZiZi 0041a4a0 f i phobos2-ldc:registry.obj
 0001:00019530       __D3std7windows8registry11KeySequence7opApplyMFMDFKC3std7windows8registry3KeyZiZ9__lambda2MFMDFkJAyaZiZv 0041a530 f i phobos2-ldc:registry.obj
 0001:000196f0       __D3std7windows8registry17ValueNameSequence12getValueNameMFkZAya 0041a6f0 f i phobos2-ldc:registry.obj
 0001:00019800       __D3std7windows8registry17ValueNameSequence7opApplyMFMDFKAyaZiZi 0041a800 f i phobos2-ldc:registry.obj
 0001:00019920       __D3std7windows8registry13ValueSequence8getValueMFkZC3std7windows8registry5Value 0041a920 f i phobos2-ldc:registry.obj
 0001:00019a40       __D3std7windows8registry13ValueSequence7opApplyMFMDFKC3std7windows8registry5ValueZiZi 0041aa40 f i phobos2-ldc:registry.obj
 0001:00019ba0       __D3std4conv17__T6toImplTAyaTmZ6toImplFNaNbNemkE3std5ascii10LetterCaseZAya 0041aba0 f i phobos2-ldc:registry.obj
 0001:0001a0c0       __D3std5array100__T5arrayTS3std9algorithm9iteration39__T8splitterVAyaa6_61203d3d2062TAuTAyaZ8splitterFAuAyaZ6ResultZ5arrayFNaNfS3std9algorithm9iteration39__T8splitterVAyaa6_61203d3d2062TAuTAyaZ8splitterFAuAyaZ6ResultZAAu 0041b0c0 f i phobos2-ldc:registry.obj
 0001:0001a300       __D3std9algorithm9searching48__T16simpleMindedFindVAyaa6_61203d3d2062TAuTAyaZ16simpleMindedFindFNaNfAuAyaZAu 0041b300 f i phobos2-ldc:registry.obj
 0001:0001a490       __D3std5array17__T8AppenderTAAuZ8Appender4Data9__xtoHashFNbNeKxS3std5array17__T8AppenderTAAuZ8Appender4DataZk 0041b490 f i phobos2-ldc:registry.obj
 0001:0001a4e0       __D3std5array17__T8AppenderTAAuZ8Appender4Data11__xopEqualsFKxS3std5array17__T8AppenderTAAuZ8Appender4DataKxS3std5array17__T8AppenderTAAuZ8Appender4DataZb 0041b4e0 f i phobos2-ldc:registry.obj
 0001:0001a520       __D3std5array17__T8AppenderTAAuZ8Appender13ensureAddableMFNaNbNekZv 0041b520 f i phobos2-ldc:registry.obj
 0001:0001a660       __D3std9exception52__T7bailOutHTC3std7windows8registry14Win32ExceptionZ7bailOutFNfAyakxAaZv 0041b660 f i phobos2-ldc:registry.obj
 0001:0001a8e0       __D3std7process3Pid6__dtorMFZv 0041b8e0 f i phobos2-ldc:process.obj
 0001:0001a920       __D3std12experimental6logger4core18_sharedStaticCtor1FZv 0041b920 f i phobos2-ldc:core.obj
 0001:0001a980       __D3std12experimental6logger4core6Logger10logMsgPartMFNfAxaZv 0041b980 f i phobos2-ldc:core.obj
 0001:0001a9e0       __D3std12experimental6logger4core6Logger6__ctorMFNfE3std12experimental6logger4core8LogLevelZC3std12experimental6logger4core6Logger 0041b9e0 f i phobos2-ldc:core.obj
 0001:0001aa60       __D3std12experimental6logger4core6Logger6__ctorMFNfE3std12experimental6logger4core8LogLevelZ12__dgliteral2MFNfZv 0041ba60 f i phobos2-ldc:core.obj
 0001:0001aad0       __D3std12experimental6logger4core6Logger11beginLogMsgMFNfAyaiAyaAyaAyaE3std12experimental6logger4core8LogLevelS3std11concurrency3TidS3std8datetime7SysTimeC3std12experimental6logger4core6LoggerZv 0041bad0 f i phobos2-ldc:core.obj
 0001:0001ac00       __D3std12experimental6logger4core6Logger12finishLogMsgMFNfZv 0041bc00 f i phobos2-ldc:core.obj
 0001:0001ac30       __D3std12experimental6logger4core6Logger10forwardMsgMFNeKS3std12experimental6logger4core6Logger8LogEntryZv 0041bc30 f i phobos2-ldc:core.obj
 0001:0001ad10       __D3std12experimental6logger4core23defaultSharedLoggerImplFNdNeZC3std12experimental6logger4core6Logger 0041bd10 f i phobos2-ldc:core.obj
 0001:0001ae50       __D3std12experimental6logger4core16StdForwardLogger11writeLogMsgMFNfKS3std12experimental6logger4core6Logger8LogEntryZv 0041be50 f i phobos2-ldc:core.obj
 0001:0001ae70       __D3std12experimental6logger4core10TestLogger11writeLogMsgMFNfKS3std12experimental6logger4core6Logger8LogEntryZv 0041be70 f i phobos2-ldc:core.obj
 0001:0001af30       __D3std8internal7windows8advapi3218_sharedStaticCtor1FZv 0041bf30 f i phobos2-ldc:advapi32.obj
 0001:0001af80       __D3std8internal7windows8advapi3212loadAdvapi32FZv 0041bf80 f i phobos2-ldc:advapi32.obj
 0001:0001b0b0       __D3std8internal7windows8advapi3212_staticDtor2FZv 0041c0b0 f i phobos2-ldc:advapi32.obj
 0001:0001b1a0       __aApplycd1                0041c1a0 f i druntime-ldc:aApply.obj
 0001:0001b220       __aApplywd1                0041c220 f i druntime-ldc:aApply.obj
 0001:0001b2b0       _lifetime_init             0041c2b0 f i druntime-ldc:lifetime.obj
 0001:0001b2e0       __d_allocmemory            0041c2e0 f i druntime-ldc:lifetime.obj
 0001:0001b2f0       __d_newclass               0041c2f0 f i druntime-ldc:lifetime.obj
 0001:0001b380       __d_allocclass             0041c380 f i druntime-ldc:lifetime.obj
 0001:0001b3f0       __D2rt8lifetime9unqualifyFNaNbNiNgC8TypeInfoZNgC8TypeInfo 0041c3f0 f i druntime-ldc:lifetime.obj
 0001:0001b440       __D2rt8lifetime21__setArrayAllocLengthFNaNbKS4core6memory8BlkInfo_kbxC8TypeInfokZb 0041c440 f i druntime-ldc:lifetime.obj
 0001:0001b540       __D2rt8lifetime12__arrayAllocFkKS4core6memory8BlkInfo_xC8TypeInfoxC8TypeInfoZS4core6memory8BlkInfo_ 0041c540 f i druntime-ldc:lifetime.obj
 0001:0001b640       __D2rt8lifetime12_staticDtor1FZv 0041c640 f i druntime-ldc:lifetime.obj
 0001:0001b680       __D2rt8lifetime14processGCMarksFNbPS4core6memory8BlkInfo_MDFNbPvZiZv 0041c680 f i druntime-ldc:lifetime.obj
 0001:0001b6d0       __d_arraysetcapacity       0041c6d0 f i druntime-ldc:lifetime.obj
 0001:0001be40       __d_newarrayU              0041ce40 f i druntime-ldc:lifetime.obj
 0001:0001c050       __d_newarrayT              0041d050 f i druntime-ldc:lifetime.obj
 0001:0001c120       __d_newarrayiT             0041d120 f i druntime-ldc:lifetime.obj
 0001:0001c450       __d_newitemU               0041d450 f i druntime-ldc:lifetime.obj
 0001:0001c510       __d_newitemT               0041d510 f i druntime-ldc:lifetime.obj
 0001:0001c540       __d_newitemiT              0041d540 f i druntime-ldc:lifetime.obj
 0001:0001c570       _rt_hasFinalizerInSegment  0041d570 f i druntime-ldc:lifetime.obj
 0001:0001c600       _rt_finalize2              0041d600 f i druntime-ldc:lifetime.obj
 0001:0001c760       _rt_finalizeFromGC         0041d760 f i druntime-ldc:lifetime.obj
 0001:0001c920       __d_arraysetlengthT        0041d920 f i druntime-ldc:lifetime.obj
 0001:0001d740       __d_arraysetlengthiT       0041e740 f i druntime-ldc:lifetime.obj
 0001:0001e6a0       __d_arrayappendT           0041f6a0 f i druntime-ldc:lifetime.obj
 0001:0001e820       __d_arrayappendcTX         0041f820 f i druntime-ldc:lifetime.obj
 0001:0001f390       __d_arrayappendcd          00420390 f i druntime-ldc:lifetime.obj
 0001:0001f480       __d_arraycatT              00420480 f i druntime-ldc:lifetime.obj
 0001:0001f740       __d_arraycatnTX            00420740 f i druntime-ldc:lifetime.obj
 0001:0001fa90       __D3ldc2eh4msvc17msvc_eh_terminateFNbZv 00420a90 f   druntime-ldc:msvc.obj
 0001:0001fad0       __d_throw_exception        00420ad0 f i druntime-ldc:msvc.obj
 0001:0001fc50       __D3ldc2eh4msvc12getThrowInfoFC14TypeInfo_ClassZPS3ldc2eh4msvc10_ThrowInfo 00420c50 f i druntime-ldc:msvc.obj
 0001:0001fd60       __D3ldc2eh4msvc16getCatchableTypeFC14TypeInfo_ClassZPS3ldc2eh4msvc13CatchableType 00420d60 f i druntime-ldc:msvc.obj
 0001:0001fe30       __d_eh_enter_catch         00420e30 f i druntime-ldc:msvc.obj
 0001:0001ffb0       __D3ldc2eh4msvc21tlsUncaughtExceptionsFNbZk 00420fb0 f i druntime-ldc:msvc.obj
 0001:0001ffd0       __D3ldc2eh4msvc22tlsOldTerminateHandlerFNbNiNfZPFZv 00420fd0 f i druntime-ldc:msvc.obj
 0001:0001fff0       __D3ldc2eh4msvc12FiberContext11__fieldDtorMFNbZv 00420ff0 f i druntime-ldc:msvc.obj
 0001:00020010       __d_eh_swapContext         00421010 f i druntime-ldc:msvc.obj
 0001:000201e0       __D3ldc2eh4msvc12_staticDtor1FZv 004211e0 f i druntime-ldc:msvc.obj
 0001:00020290       __d_enter_cleanup          00421290 f i druntime-ldc:msvc.obj
 0001:000202a0       __D3ldc2eh4msvc18_sharedStaticCtor2FZv 004212a0 f i druntime-ldc:msvc.obj
 0001:00020310       __D2rt4util9container7hashtab57__T7HashTabTC14TypeInfo_ClassTPS3ldc2eh4msvc10_ThrowInfoZ7HashTab4Node9__xtoHashFNbNeKxS2rt4util9container7hashtab57__T7HashTabTC14TypeInfo_ClassTPS3ldc2eh4msvc10_ThrowInfoZ7HashTab4NodeZk 00421310 f i druntime-ldc:msvc.obj
 0001:00020360       __D2rt4util9container7hashtab57__T7HashTabTC14TypeInfo_ClassTPS3ldc2eh4msvc10_ThrowInfoZ7HashTab3getMFC14TypeInfo_ClassZPPS3ldc2eh4msvc10_ThrowInfo 00421360 f i druntime-ldc:msvc.obj
 0001:00020490       __D2rt4util9container7hashtab57__T7HashTabTC14TypeInfo_ClassTPS3ldc2eh4msvc10_ThrowInfoZ7HashTab4growMFNbZv 00421490 f i druntime-ldc:msvc.obj
 0001:00020490       __D2rt4util9container7hashtab60__T7HashTabTC14TypeInfo_ClassTPS3ldc2eh4msvc13CatchableTypeZ7HashTab4growMFNbZv 00421490 f i druntime-ldc:msvc.obj
 0001:00020560       __D2rt4util9container7hashtab60__T7HashTabTC14TypeInfo_ClassTPS3ldc2eh4msvc13CatchableTypeZ7HashTab4Node9__xtoHashFNbNeKxS2rt4util9container7hashtab60__T7HashTabTC14TypeInfo_ClassTPS3ldc2eh4msvc13CatchableTypeZ7HashTab4NodeZk 00421560 f i druntime-ldc:msvc.obj
 0001:000205b0       __D2rt4util9container7hashtab60__T7HashTabTC14TypeInfo_ClassTPS3ldc2eh4msvc13CatchableTypeZ7HashTab4Node11__xopEqualsFKxS2rt4util9container7hashtab60__T7HashTabTC14TypeInfo_ClassTPS3ldc2eh4msvc13CatchableTypeZ7HashTab4NodeKxS2rt4util9container7hashtab60__T7HashTabTC14TypeInfo_ClassTPS3ldc2eh4msvc13CatchableTypeZ7HashTab4NodeZb 004215b0 f i druntime-ldc:msvc.obj
 0001:000205b0       __D2rt4util9container7hashtab57__T7HashTabTC14TypeInfo_ClassTPS3ldc2eh4msvc10_ThrowInfoZ7HashTab4Node11__xopEqualsFKxS2rt4util9container7hashtab57__T7HashTabTC14TypeInfo_ClassTPS3ldc2eh4msvc10_ThrowInfoZ7HashTab4NodeKxS2rt4util9container7hashtab57__T7HashTabTC14TypeInfo_ClassTPS3ldc2eh4msvc10_ThrowInfoZ7HashTab4NodeZb 004215b0 f i druntime-ldc:msvc.obj
 0001:000205e0       __D2rt4util9container7hashtab60__T7HashTabTC14TypeInfo_ClassTPS3ldc2eh4msvc13CatchableTypeZ7HashTab3getMFC14TypeInfo_ClassZPPS3ldc2eh4msvc13CatchableType 004215e0 f i druntime-ldc:msvc.obj
 0001:00020730       __D4core9exception10RangeError6__ctorMFNaNbNfAyakC6object9ThrowableZC4core9exception10RangeError 00421730 f i druntime-ldc:exception.obj
 0001:00020760       __D4core9exception11AssertError6__ctorMFNaNbNfAyakZC4core9exception11AssertError 00421760 f i druntime-ldc:exception.obj
 0001:00020790       __D4core9exception17SuppressTraceInfo8instanceFNaNbNiNeZC4core9exception17SuppressTraceInfo 00421790 f i druntime-ldc:exception.obj
 0001:000207a0       __D4core9exception13FinalizeError8toStringMxFNfZAya 004217a0 f i druntime-ldc:exception.obj
 0001:000207c0       __D4core9exception16OutOfMemoryError8toStringMxFNeZAya 004217c0 f i druntime-ldc:exception.obj
 0001:000207e0       __D4core9exception27InvalidMemoryOperationError8toStringMxFNeZAya 004217e0 f i druntime-ldc:exception.obj
 0001:00020800       __D4core9exception16UnicodeException6__ctorMFNaNbNfAyakAyakC6object9ThrowableZC4core9exception16UnicodeException 00421800 f i druntime-ldc:exception.obj
 0001:00020830       _onRangeError              00421830 f i druntime-ldc:exception.obj
 0001:000208a0       _onFinalizeError           004218a0 f i druntime-ldc:exception.obj
 0001:000208f0       __D4core9exception85__T11staticErrorTC4core9exception13FinalizeErrorTC8TypeInfoTC6object9ThrowableTAyaTkZ11staticErrorFNaNbNiKC8TypeInfoKC6object9ThrowableKAyaKkZC4core9exception13FinalizeError 004218f0 f i druntime-ldc:exception.obj
 0001:000209b0       _onOutOfMemoryError        004219b0 f i druntime-ldc:exception.obj
 0001:000209c0       __D4core9exception52__T11staticErrorTC4core9exception16OutOfMemoryErrorZ11staticErrorFNaNbNiZC4core9exception16OutOfMemoryError 004219c0 f i druntime-ldc:exception.obj
 0001:00020a50       _onOutOfMemoryErrorNoGC    00421a50 f i druntime-ldc:exception.obj
 0001:00020a60       __D4core9exception54__T11staticErrorTC4core9exception16OutOfMemoryErrorTbZ11staticErrorFNaNbNibZC4core9exception16OutOfMemoryError 00421a60 f i druntime-ldc:exception.obj
 0001:00020b20       _onInvalidMemoryOperationError 00421b20 f i druntime-ldc:exception.obj
 0001:00020b30       __D4core9exception63__T11staticErrorTC4core9exception27InvalidMemoryOperationErrorZ11staticErrorFNaNbNiZC4core9exception27InvalidMemoryOperationError 00421b30 f i druntime-ldc:exception.obj
 0001:00020bc0       _onUnicodeError            00421bc0 f i druntime-ldc:exception.obj
 0001:00020c40       __d_assert                 00421c40 f i druntime-ldc:exception.obj
 0001:00020cd0       __d_arraybounds            00421cd0 f i druntime-ldc:exception.obj
 0001:00020cf0       __D3std8datetime3UTC11dstInEffectMxFNbNflZb 00421cf0 f i phobos2-ldc:datetime.obj
 0001:00020cf0       __D4core9exception17SuppressTraceInfo7opApplyMxFMDFKxAaZiZi 00421cf0 f i druntime-ldc:exception.obj
 0001:00020cf0       __DThn8_4core9exception17SuppressTraceInfo7opApplyMxFMDFKkKxAaZiZi@12 00421cf0 f i druntime-ldc:exception.obj
 0001:00020cf0       __DThn8_4core9exception17SuppressTraceInfo7opApplyMxFMDFKxAaZiZi@12 00421cf0 f i druntime-ldc:exception.obj
 0001:00020cf0       __D4core9exception17SuppressTraceInfo7opApplyMxFMDFKkKxAaZiZi 00421cf0 f i druntime-ldc:exception.obj
 0001:00020cf0       __D3std8datetime14SimpleTimeZone11dstInEffectMxFNbNflZb 00421cf0 f i phobos2-ldc:datetime.obj
 0001:00020d20       __adEq2                    00421d20 f i druntime-ldc:adi.obj
 0001:00020d90       __D2rt8typeinfo5ti_Ag11TypeInfo_Ag8toStringMxFNaNbNfZAya 00421d90 f i druntime-ldc:ti_Ag.obj
 0001:00020da0       __D2rt8typeinfo5ti_Ag11TypeInfo_Ag7getHashMxFNbNexPvZk 00421da0 f i druntime-ldc:ti_Ag.obj
 0001:00020dc0       __D2rt8typeinfo5ti_Ag11TypeInfo_Ag6equalsMxFxPvxPvZb 00421dc0 f i druntime-ldc:ti_Ag.obj
 0001:00020df0       __D2rt8typeinfo5ti_Ag11TypeInfo_Ag7compareMxFxPvxPvZi 00421df0 f i druntime-ldc:ti_Ag.obj
 0001:00020e50       __D2rt8typeinfo5ti_Ag11TypeInfo_Ag4nextMNgFNaNbNdNiZNgC8TypeInfo 00421e50 f i druntime-ldc:ti_Ag.obj
 0001:00020e60       __D2rt8typeinfo5ti_Ag11TypeInfo_Ah8toStringMxFNaNbNfZAya 00421e60 f i druntime-ldc:ti_Ag.obj
 0001:00020e70       __D2rt8typeinfo5ti_Ag11TypeInfo_Ah7compareMxFxPvxPvZi 00421e70 f i druntime-ldc:ti_Ag.obj
 0001:00020e90       __D2rt8typeinfo5ti_Ag11TypeInfo_Ah4nextMNgFNaNbNdNiZNgC8TypeInfo 00421e90 f i druntime-ldc:ti_Ag.obj
 0001:00020ea0       __D2rt8typeinfo5ti_Ag11TypeInfo_Av8toStringMxFNaNbNfZAya 00421ea0 f i druntime-ldc:ti_Ag.obj
 0001:00020eb0       __D2rt8typeinfo5ti_Ag11TypeInfo_Av4nextMNgFNaNbNdNiZNgC8TypeInfo 00421eb0 f i druntime-ldc:ti_Ag.obj
 0001:00020ec0       __D2rt8typeinfo5ti_Ag11TypeInfo_Ab8toStringMxFNaNbNfZAya 00421ec0 f i druntime-ldc:ti_Ag.obj
 0001:00020ed0       __D2rt8typeinfo5ti_Ag11TypeInfo_Ab4nextMNgFNaNbNdNiZNgC8TypeInfo 00421ed0 f i druntime-ldc:ti_Ag.obj
 0001:00020ee0       __D2rt8typeinfo5ti_Ag11TypeInfo_Aa8toStringMxFNaNbNfZAya 00421ee0 f i druntime-ldc:ti_Ag.obj
 0001:00020ef0       __D2rt8typeinfo5ti_Ag11TypeInfo_Aa7getHashMxFNbNexPvZk 00421ef0 f i druntime-ldc:ti_Ag.obj
 0001:00020f20       __D2rt8typeinfo5ti_Ag11TypeInfo_Aa4nextMNgFNaNbNdNiZNgC8TypeInfo 00421f20 f i druntime-ldc:ti_Ag.obj
 0001:00020f30       __D2rt8typeinfo5ti_Ag12TypeInfo_Aya8toStringMxFNaNbNfZAya 00421f30 f i druntime-ldc:ti_Ag.obj
 0001:00020f40       __D2rt8typeinfo5ti_Ag12TypeInfo_Aya4nextMNgFNaNbNdNiZNgC8TypeInfo 00421f40 f i druntime-ldc:ti_Ag.obj
 0001:00020f50       __D2rt8typeinfo5ti_Ag12TypeInfo_Axa8toStringMxFNaNbNfZAya 00421f50 f i druntime-ldc:ti_Ag.obj
 0001:00020f60       __D2rt8typeinfo5ti_Ag12TypeInfo_Axa4nextMNgFNaNbNdNiZNgC8TypeInfo 00421f60 f i druntime-ldc:ti_Ag.obj
 0001:00020f90       __D6object6Object5opCmpMFC6ObjectZi 00421f90 f i druntime-ldc:object.obj
 0001:00021020       __D6object9Exception6__ctorMFNaNbNiNfAyaAyakC6object9ThrowableZC9Exception 00422020 f i druntime-ldc:object.obj
 0001:00021060       __D6object6Object8opEqualsMFC6ObjectZb 00422060 f i druntime-ldc:object.obj
 0001:00021070       __D6object14TypeInfo_Class6createMxFZC6Object 00422070 f i druntime-ldc:object.obj
 0001:000210b0       __D6object14TypeInfo_Class8opEqualsMFC6ObjectZb 004220b0 f i druntime-ldc:object.obj
 0001:00021110       __D6object8opEqualsFC6ObjectC6ObjectZb 00422110 f i druntime-ldc:object.obj
 0001:00021110       __D6object8opEqualsFxC6ObjectxC6ObjectZb 00422110 f i druntime-ldc:object.obj
 0001:00021170       __D6object14TypeInfo_Const7getHashMxFNbNfxPvZk 00422170 f i druntime-ldc:object.obj
 0001:00021170       __D6object16TypeInfo_Typedef7getHashMxFNbNfxPvZk 00422170 f i druntime-ldc:object.obj
 0001:00021170       __D6object15TypeInfo_Vector7getHashMxFNbNfxPvZk 00422170 f i druntime-ldc:object.obj
 0001:00021180       __D6object6Object8toStringMFZAya 00422180 f i druntime-ldc:object.obj
 0001:00021180       __D6object8TypeInfo8toStringMxFNaNbNfZAya 00422180 f i druntime-ldc:object.obj
 0001:00021190       __D6object8TypeInfo6toHashMxFNbNeZk 00422190 f i druntime-ldc:object.obj
 0001:00021240       __D6object8TypeInfo5opCmpMFC6ObjectZi 00422240 f i druntime-ldc:object.obj
 0001:00021290       __D6object8TypeInfo8opEqualsMFC6ObjectZb 00422290 f i druntime-ldc:object.obj
 0001:000212f0       __D6object8TypeInfo7getHashMxFNbNexPvZk 004222f0 f i druntime-ldc:object.obj
 0001:00021300       __D6object8TypeInfo6equalsMxFxPvxPvZb 00422300 f i druntime-ldc:object.obj
 0001:00021310       __D6object8TypeInfo7compareMxFxPvxPvZi 00422310 f i druntime-ldc:object.obj
 0001:00021320       __D6object7_xopCmpFxPvxPvZb 00422320 f i druntime-ldc:object.obj
 0001:00021390       __D6object8TypeInfo4swapMxFPvPvZv 00422390 f i druntime-ldc:object.obj
 0001:00021430       __D6object8TypeInfo6rtInfoMxFNaNbNdNiNfZPyv 00422430 f i druntime-ldc:object.obj
 0001:00021430       __D6object8TypeInfo5flagsMxFNaNbNdNiNfZk 00422430 f i druntime-ldc:object.obj
 0001:00021430       __D3std8datetime3UTC6hasDSTMxFNbNdNfZb 00422430 f i phobos2-ldc:datetime.obj
 0001:00021430       __D6object8TypeInfo5tsizeMxFNaNbNdNiNfZk 00422430 f i druntime-ldc:object.obj
 0001:00021430       __D3std8datetime14SimpleTimeZone6hasDSTMxFNbNdNfZb 00422430 f i phobos2-ldc:datetime.obj
 0001:00021430       __D6object8TypeInfo4nextMNgFNaNbNdNiZNgC8TypeInfo 00422430 f i druntime-ldc:object.obj
 0001:00021430       __D6object17TypeInfo_Function5tsizeMxFNaNbNdNiNfZk 00422430 f i druntime-ldc:object.obj
 0001:00021440       __DThn8_4core9exception17SuppressTraceInfo8toStringMxFZAya@4 00422440 f i druntime-ldc:exception.obj
 0001:00021440       __D4core9exception17SuppressTraceInfo8toStringMxFZAya 00422440 f i druntime-ldc:exception.obj
 0001:00021440       __D6object8TypeInfo11initializerMxFNaNbNiNfZAxv 00422440 f i druntime-ldc:object.obj
 0001:00021440       __D6object8TypeInfo5offTiMxFZAxS6object14OffsetTypeInfo 00422440 f i druntime-ldc:object.obj
 0001:00021440       __D6object17TypeInfo_Function11initializerMxFNaNbNiNfZAxv 00422440 f i druntime-ldc:object.obj
 0001:00021450       __D6object8TypeInfo8postblitMxFPvZv 00422450 f i druntime-ldc:object.obj
 0001:00021450       __D6object8TypeInfo7destroyMxFPvZv 00422450 f i druntime-ldc:object.obj
 0001:00021460       __D6object8TypeInfo6talignMxFNaNbNdNiNfZk 00422460 f i druntime-ldc:object.obj
 0001:00021470       __D6object16TypeInfo_Typedef8opEqualsMFC6ObjectZb 00422470 f i druntime-ldc:object.obj
 0001:00021510       __D6object14TypeInfo_Const4swapMxFPvPvZv 00422510 f i druntime-ldc:object.obj
 0001:00021510       __D3std7windows8registry17ValueNameSequence5countMxFNdZk 00422510 f i phobos2-ldc:registry.obj
 0001:00021510       __D6object15TypeInfo_Vector4swapMxFPvPvZv 00422510 f i druntime-ldc:object.obj
 0001:00021510       __D3std7windows8registry13ValueSequence5countMxFNdZk 00422510 f i phobos2-ldc:registry.obj
 0001:00021510       __D6object16TypeInfo_Typedef4swapMxFPvPvZv 00422510 f i druntime-ldc:object.obj
 0001:00021520       __D6object16TypeInfo_Typedef11initializerMxFNaNbNiNfZAxv 00422520 f i druntime-ldc:object.obj
 0001:00021540       __D6object16TypeInfo_Typedef6rtInfoMxFNaNbNdNiNfZPyv 00422540 f i druntime-ldc:object.obj
 0001:00021550       __D6object16TypeInfo_Pointer8toStringMxFNaNbNfZAya 00422550 f i druntime-ldc:object.obj
 0001:00021570       __D6object16TypeInfo_Pointer8opEqualsMFC6ObjectZb 00422570 f i druntime-ldc:object.obj
 0001:000215f0       __D2rt8typeinfo6ti_int10TypeInfo_i7getHashMxFNaNbNexPvZk 004225f0 f i druntime-ldc:ti_int.obj
 0001:000215f0       __D2rt8typeinfo8ti_dchar10TypeInfo_w7getHashMxFNaNbNexPvZk 004225f0 f i druntime-ldc:ti_dchar.obj
 0001:000215f0       __D2rt8typeinfo7ti_uint10TypeInfo_k7getHashMxFNaNbNexPvZk 004225f0 f i druntime-ldc:ti_uint.obj
 0001:000215f0       __D6object16TypeInfo_Pointer7getHashMxFNbNexPvZk 004225f0 f i druntime-ldc:object.obj
 0001:00021600       __D6object16TypeInfo_Pointer7compareMxFxPvxPvZi 00422600 f i druntime-ldc:object.obj
 0001:00021620       __D6object14TypeInfo_Array8toStringMxFNaNbNfZAya 00422620 f i druntime-ldc:object.obj
 0001:00021640       __D6object14TypeInfo_Array8opEqualsMFC6ObjectZb 00422640 f i druntime-ldc:object.obj
 0001:000216c0       __D6object14TypeInfo_Array7getHashMxFNbNexPvZk 004226c0 f i druntime-ldc:object.obj
 0001:00021730       __D6object14TypeInfo_Array6equalsMxFxPvxPvZb 00422730 f i druntime-ldc:object.obj
 0001:000217b0       __D6object14TypeInfo_Array7compareMxFxPvxPvZi 004227b0 f i druntime-ldc:object.obj
 0001:00021840       __D2rt8typeinfo9ti_cfloat10TypeInfo_q4swapMxFNaNbNePvPvZv 00422840 f i druntime-ldc:ti_cfloat.obj
 0001:00021840       __D6object14TypeInfo_Array4swapMxFPvPvZv 00422840 f i druntime-ldc:object.obj
 0001:00021870       __D6object20TypeInfo_StaticArray8toStringMxFNaNbNfZAya 00422870 f i druntime-ldc:object.obj
 0001:000218f0       __D6object20TypeInfo_StaticArray8opEqualsMFC6ObjectZb 004228f0 f i druntime-ldc:object.obj
 0001:00021970       __D6object20TypeInfo_StaticArray7getHashMxFNbNexPvZk 00422970 f i druntime-ldc:object.obj
 0001:000219d0       __D6object20TypeInfo_StaticArray6equalsMxFxPvxPvZb 004229d0 f i druntime-ldc:object.obj
 0001:00021a30       __D6object20TypeInfo_StaticArray7compareMxFxPvxPvZi 00422a30 f i druntime-ldc:object.obj
 0001:00021a90       __D6object20TypeInfo_StaticArray5tsizeMxFNaNbNdNiNfZk 00422a90 f i druntime-ldc:object.obj
 0001:00021ab0       __D6object20TypeInfo_StaticArray4swapMxFPvPvZv 00422ab0 f i druntime-ldc:object.obj
 0001:00021b90       __D6object20TypeInfo_StaticArray7destroyMxFPvZv 00422b90 f i druntime-ldc:object.obj
 0001:00021be0       __D6object20TypeInfo_StaticArray8postblitMxFPvZv 00422be0 f i druntime-ldc:object.obj
 0001:00021c20       __D6object20TypeInfo_StaticArray6talignMxFNaNbNdNiNfZk 00422c20 f i druntime-ldc:object.obj
 0001:00021c20       __D6object14TypeInfo_Const6talignMxFNaNbNdNiNfZk 00422c20 f i druntime-ldc:object.obj
 0001:00021c20       __D6object16TypeInfo_Typedef6talignMxFNaNbNdNiNfZk 00422c20 f i druntime-ldc:object.obj
 0001:00021c30       __D6object25TypeInfo_AssociativeArray8toStringMxFNaNbNfZAya 00422c30 f i druntime-ldc:object.obj
 0001:00021ca0       __D6object25TypeInfo_AssociativeArray8opEqualsMFC6ObjectZb 00422ca0 f i druntime-ldc:object.obj
 0001:00021da0       __D6object25TypeInfo_AssociativeArray6equalsMxFNexPvxPvZb 00422da0 f i druntime-ldc:object.obj
 0001:00021dc0       __D6object25TypeInfo_AssociativeArray7getHashMxFNbNexPvZk 00422dc0 f i druntime-ldc:object.obj
 0001:00021dd0       __D3std6socket6Socket6handleMxFNaNbNdNiNfZE3std6socket8socket_t 00422dd0 f i phobos2-ldc:socket.obj
 0001:00021dd0       __D3std6socket23UnknownAddressReference4nameMxFNaNbNdNiNfZPxS4core3sys7windows8winsock28sockaddr 00422dd0 f i phobos2-ldc:socket.obj
 0001:00021dd0       __D3std6socket23UnknownAddressReference4nameMFNaNbNdNiNfZPS4core3sys7windows8winsock28sockaddr 00422dd0 f i phobos2-ldc:socket.obj
 0001:00021dd0       __D6object20TypeInfo_StaticArray4nextMNgFNaNbNdNiZNgC8TypeInfo 00422dd0 f i druntime-ldc:object.obj
 0001:00021dd0       __D6object25TypeInfo_AssociativeArray4nextMNgFNaNbNdNiZNgC8TypeInfo 00422dd0 f i druntime-ldc:object.obj
 0001:00021dd0       __D6object14TypeInfo_Array4nextMNgFNaNbNdNiZNgC8TypeInfo 00422dd0 f i druntime-ldc:object.obj
 0001:00021dd0       __D6object16TypeInfo_Pointer4nextMNgFNaNbNdNiZNgC8TypeInfo 00422dd0 f i druntime-ldc:object.obj
 0001:00021de0       __D6object15TypeInfo_Vector8toStringMxFNaNbNfZAya 00422de0 f i druntime-ldc:object.obj
 0001:00021e30       __D6object15TypeInfo_Vector8opEqualsMFC6ObjectZb 00422e30 f i druntime-ldc:object.obj
 0001:00021eb0       __D6object20TypeInfo_StaticArray5flagsMxFNaNbNdNiNfZk 00422eb0 f i druntime-ldc:object.obj
 0001:00021eb0       __D6object14TypeInfo_Const5flagsMxFNaNbNdNiNfZk 00422eb0 f i druntime-ldc:object.obj
 0001:00021eb0       __D6object15TypeInfo_Vector5flagsMxFNaNbNdNiNfZk 00422eb0 f i druntime-ldc:object.obj
 0001:00021eb0       __D6object16TypeInfo_Typedef5flagsMxFNaNbNdNiNfZk 00422eb0 f i druntime-ldc:object.obj
 0001:00021ec0       __D6object17TypeInfo_Function8toStringMxFNaNbNfZAya 00422ec0 f i druntime-ldc:object.obj
 0001:00021ee0       __D6object17TypeInfo_Function8opEqualsMFC6ObjectZb 00422ee0 f i druntime-ldc:object.obj
 0001:00021f30       __D6object17TypeInfo_Delegate8toStringMxFNaNbNfZAya 00422f30 f i druntime-ldc:object.obj
 0001:00021f50       __D6object17TypeInfo_Delegate8opEqualsMFC6ObjectZb 00422f50 f i druntime-ldc:object.obj
 0001:00021fa0       __D6object17TypeInfo_Delegate7getHashMxFNbNexPvZk 00422fa0 f i druntime-ldc:object.obj
 0001:00021fb0       __D6object17TypeInfo_Delegate6equalsMxFxPvxPvZb 00422fb0 f i druntime-ldc:object.obj
 0001:00021fd0       __D6object17TypeInfo_Delegate7compareMxFxPvxPvZi 00422fd0 f i druntime-ldc:object.obj
 0001:00022020       __D6object17TypeInfo_Delegate11initializerMxFNaNbNiNeZAxv 00423020 f i druntime-ldc:object.obj
 0001:00022020       __D2rt8typeinfo7ti_long10TypeInfo_l11initializerMxFNaNbNiNeZAxv 00423020 f i druntime-ldc:ti_long.obj
 0001:00022020       __D6object14TypeInfo_Array11initializerMxFNaNbNiNeZAxv 00423020 f i druntime-ldc:object.obj
 0001:00022020       __D2rt8typeinfo8ti_ulong10TypeInfo_m11initializerMxFNaNbNiNeZAxv 00423020 f i druntime-ldc:ti_ulong.obj
 0001:00022030       __D6object14TypeInfo_Class8toStringMxFNaNbNfZAya 00423030 f i druntime-ldc:object.obj
 0001:00022040       __D6object14TypeInfo_Class7getHashMxFNbNexPvZk 00423040 f i druntime-ldc:object.obj
 0001:00022060       __D6object14TypeInfo_Class6equalsMxFxPvxPvZb 00423060 f i druntime-ldc:object.obj
 0001:00022090       __D6object14TypeInfo_Class7compareMxFxPvxPvZi 00423090 f i druntime-ldc:object.obj
 0001:000220d0       __D6object14TypeInfo_Class11initializerMxFNaNbNiNfZAxv 004230d0 f i druntime-ldc:object.obj
 0001:000220d0       __D3std8datetime8TimeZone4nameMxFNbNdNfZAya 004230d0 f i phobos2-ldc:datetime.obj
 0001:000220d0       __D6object15TypeInfo_Struct8toStringMxFNaNbNfZAya 004230d0 f i druntime-ldc:object.obj
 0001:000220e0       __D6object14TypeInfo_Class5offTiMxFNaNbNdZAxS6object14OffsetTypeInfo 004230e0 f i druntime-ldc:object.obj
 0001:000220f0       __D3std11concurrency15ThreadScheduler5yieldMFNbZv 004230f0 f i phobos2-ldc:concurrency.obj
 0001:000220f0       __D6object6Object6toHashMFNbNeZk 004230f0 f i druntime-ldc:object.obj
 0001:000220f0       __D3std7windows8registry11KeySequence11__invariantMxFNaNbNfZv 004230f0 f i phobos2-ldc:registry.obj
 0001:000220f0       __D3std6socket6Socket6__ctorMFNaNbNiNfZC3std6socket6Socket 004230f0 f i phobos2-ldc:socket.obj
 0001:000220f0       __D3std6socket16Internet6Address6__ctorMFNaNbNiNfZC3std6socket16Internet6Address 004230f0 f i phobos2-ldc:socket.obj
 0001:000220f0       __D3std7windows8registry5Value11__invariantMxFNaNbNfZv 004230f0 f i phobos2-ldc:registry.obj
 0001:000220f0       __d_leave_cleanup          004230f0 f i druntime-ldc:msvc.obj
 0001:000220f0       __D3std6socket15InternetAddress6__ctorMFNaNbNiNfZC3std6socket15InternetAddress 004230f0 f i phobos2-ldc:socket.obj
 0001:000220f0       __D6object14TypeInfo_Class4infoMxFNaNbNdNiNfZxC14TypeInfo_Class 004230f0 f i druntime-ldc:object.obj
 0001:000220f0       __DThn8_3std11concurrency15ThreadScheduler5yieldMFNbZv@4 004230f0 f i phobos2-ldc:concurrency.obj
 0001:000220f0       __D3std7windows8registry17ValueNameSequence11__invariantMxFNaNbNfZv 004230f0 f i phobos2-ldc:registry.obj
 0001:000220f0       __D2rt12sections_ldc12SectionGroup11moduleGroupMNgFNcNdZNgS2rt5minfo11ModuleGroup 004230f0 f i druntime-ldc:sections_ldc.obj
 0001:000220f0       __D3std7windows8registry15KeyNameSequence11__invariantMxFNaNbNfZv 004230f0 f i phobos2-ldc:registry.obj
 0001:000220f0       __D6object14TypeInfo_Class8typeinfoMxFNaNbNdNiNfZxC14TypeInfo_Class 004230f0 f i druntime-ldc:object.obj
 0001:000220f0       __D3std7windows8registry3Key11__invariantMxFNaNbNfZv 004230f0 f i phobos2-ldc:registry.obj
 0001:000220f0       __D3std7windows8registry13ValueSequence11__invariantMxFNaNbNfZv 004230f0 f i phobos2-ldc:registry.obj
 0001:00022100       __D6object14TypeInfo_Class6rtInfoMxFNaNbNdNiNfZPyv 00423100 f i druntime-ldc:object.obj
 0001:00022110       __D6object10ModuleInfo7opApplyFMDFPS6object10ModuleInfoZiZi 00423110 f i druntime-ldc:object.obj
 0001:00022140       __D6object18TypeInfo_Interface8toStringMxFNaNbNfZAya 00423140 f i druntime-ldc:object.obj
 0001:00022150       __D6object18TypeInfo_Interface8opEqualsMFC6ObjectZb 00423150 f i druntime-ldc:object.obj
 0001:000221a0       __D6object18TypeInfo_Interface7getHashMxFNbNexPvZk 004231a0 f i druntime-ldc:object.obj
 0001:000221c0       __D6object18TypeInfo_Interface6equalsMxFxPvxPvZb 004231c0 f i druntime-ldc:object.obj
 0001:00022250       __D6object18TypeInfo_Interface7compareMxFxPvxPvZi 00423250 f i druntime-ldc:object.obj
 0001:000222f0       __D6object15TypeInfo_Struct8opEqualsMFC6ObjectZb 004232f0 f i druntime-ldc:object.obj
 0001:00022350       __D6object15TypeInfo_Struct7getHashMxFNaNbNfxPvZk 00423350 f i druntime-ldc:object.obj
 0001:00022380       __D6object15TypeInfo_Struct6equalsMxFNaNbNexPvxPvZb 00423380 f i druntime-ldc:object.obj
 0001:000223d0       __D6object15TypeInfo_Struct7compareMxFNaNbNexPvxPvZi 004233d0 f i druntime-ldc:object.obj
 0001:00022420       __D6object15TypeInfo_Struct5tsizeMxFNaNbNdNiNfZk 00423420 f i druntime-ldc:object.obj
 0001:00022430       __D6object15TypeInfo_Struct5flagsMxFNaNbNdNiNfZk 00423430 f i druntime-ldc:object.obj
 0001:00022440       __D6object15TypeInfo_Struct6talignMxFNaNbNdNiNfZk 00423440 f i druntime-ldc:object.obj
 0001:00022450       __D6object15TypeInfo_Struct7destroyMxFPvZv 00423450 f i druntime-ldc:object.obj
 0001:00022470       __D6object15TypeInfo_Struct8postblitMxFPvZv 00423470 f i druntime-ldc:object.obj
 0001:00022480       __D6object15TypeInfo_Struct6rtInfoMxFNaNbNdNiNfZPyv 00423480 f i druntime-ldc:object.obj
 0001:00022490       __D6object14TypeInfo_Tuple8toStringMxFNaNbNfZAya 00423490 f i druntime-ldc:object.obj
 0001:00022540       __D6object14TypeInfo_Tuple8opEqualsMFC6ObjectZb 00423540 f i druntime-ldc:object.obj
 0001:00022630       __D6object14TypeInfo_Tuple8postblitMxFPvZv 00423630 f i druntime-ldc:object.obj
 0001:00022630       __D2rt8typeinfo7ti_void10TypeInfo_v7getHashMxFNaNbNexPvZk 00423630 f i druntime-ldc:ti_void.obj
 0001:00022630       __D6object14TypeInfo_Tuple5tsizeMxFNaNbNdNiNfZk 00423630 f i druntime-ldc:object.obj
 0001:00022630       __D6object14TypeInfo_Tuple6talignMxFNaNbNdNiNfZk 00423630 f i druntime-ldc:object.obj
 0001:00022630       __D6object14TypeInfo_Tuple7getHashMxFNbNfxPvZk 00423630 f i druntime-ldc:object.obj
 0001:00022630       __D6object14TypeInfo_Tuple6equalsMxFxPvxPvZb 00423630 f i druntime-ldc:object.obj
 0001:00022630       __D6object14TypeInfo_Tuple11initializerMxFNaNbNiNeZAxv 00423630 f i druntime-ldc:object.obj
 0001:00022630       __D6object14TypeInfo_Tuple7destroyMxFPvZv 00423630 f i druntime-ldc:object.obj
 0001:00022630       __D6object14TypeInfo_Tuple7compareMxFxPvxPvZi 00423630 f i druntime-ldc:object.obj
 0001:00022630       __D6object14TypeInfo_Tuple4swapMxFPvPvZv 00423630 f i druntime-ldc:object.obj
 0001:00022640       __D6object14TypeInfo_Const8toStringMxFNaNbNfZAya 00423640 f i druntime-ldc:object.obj
 0001:00022690       __D6object14TypeInfo_Const8opEqualsMFC6ObjectZb 00423690 f i druntime-ldc:object.obj
 0001:00022740       __D6object14TypeInfo_Const7compareMxFxPvxPvZi 00423740 f i druntime-ldc:object.obj
 0001:00022740       __D6object15TypeInfo_Vector7compareMxFxPvxPvZi 00423740 f i druntime-ldc:object.obj
 0001:00022740       __D6object16TypeInfo_Typedef7compareMxFxPvxPvZi 00423740 f i druntime-ldc:object.obj
 0001:00022750       __D6object15TypeInfo_Vector5tsizeMxFNaNbNdNiNfZk 00423750 f i druntime-ldc:object.obj
 0001:00022750       __D6object16TypeInfo_Typedef5tsizeMxFNaNbNdNiNfZk 00423750 f i druntime-ldc:object.obj
 0001:00022750       __D6object14TypeInfo_Const5tsizeMxFNaNbNdNiNfZk 00423750 f i druntime-ldc:object.obj
 0001:00022760       __D6object14TypeInfo_Const4nextMNgFNaNbNdNiZNgC8TypeInfo 00423760 f i druntime-ldc:object.obj
 0001:00022760       __D6object15TypeInfo_Vector4nextMNgFNaNbNdNiZNgC8TypeInfo 00423760 f i druntime-ldc:object.obj
 0001:00022760       __D6object16TypeInfo_Typedef4nextMNgFNaNbNdNiZNgC8TypeInfo 00423760 f i druntime-ldc:object.obj
 0001:00022770       __D6object14TypeInfo_Const11initializerMxFNaNbNiNfZAxv 00423770 f i druntime-ldc:object.obj
 0001:00022770       __D6object20TypeInfo_StaticArray11initializerMxFNaNbNiNfZAxv 00423770 f i druntime-ldc:object.obj
 0001:00022770       __D6object15TypeInfo_Vector11initializerMxFNaNbNiNfZAxv 00423770 f i druntime-ldc:object.obj
 0001:00022780       __D6object18TypeInfo_Invariant8toStringMxFNaNbNfZAya 00423780 f i druntime-ldc:object.obj
 0001:000227d0       __D6object15TypeInfo_Shared8toStringMxFNaNbNfZAya 004237d0 f i druntime-ldc:object.obj
 0001:00022820       __D6object14TypeInfo_Inout8toStringMxFNaNbNfZAya 00423820 f i druntime-ldc:object.obj
 0001:00022870       __D6object10ModuleInfo5flagsMxFNaNbNdZk 00423870 f i druntime-ldc:object.obj
 0001:00022880       __D6object10ModuleInfo7tlsctorMxFNaNbNdZPFZv 00423880 f i druntime-ldc:object.obj
 0001:00022890       __D6object10ModuleInfo7tlsdtorMxFNaNbNdZPFZv 00423890 f i druntime-ldc:object.obj
 0001:000228b0       __D6object10ModuleInfo4ctorMxFNaNbNdZPFZv 004238b0 f i druntime-ldc:object.obj
 0001:000228e0       __D6object10ModuleInfo4dtorMxFNaNbNdZPFZv 004238e0 f i druntime-ldc:object.obj
 0001:00022910       __D6object10ModuleInfo5ictorMxFNaNbNdZPFZv 00423910 f i druntime-ldc:object.obj
 0001:00022950       __D6object10ModuleInfo8unitTestMxFNaNbNdZPFZv 00423950 f i druntime-ldc:object.obj
 0001:000229a0       __D6object10ModuleInfo15importedModulesMxFNaNbNdZAyPS6object10ModuleInfo 004239a0 f i druntime-ldc:object.obj
 0001:00022a00       __D6object10ModuleInfo4nameMxFNaNbNdZAya 00423a00 f i druntime-ldc:object.obj
 0001:00022a70       __D6object9Throwable8toStringMFZAya 00423a70 f i druntime-ldc:object.obj
 0001:00022aa0       __D6object9Throwable8toStringMxFMDFxAaZvZv 00423aa0 f i druntime-ldc:object.obj
 0001:00022be0       __D6object9Throwable8toStringMFZ18__T9__lambda1TxAaZ9__lambda1MFxAaZv 00423be0 f i druntime-ldc:object.obj
 0001:00022c10       __D6object9Throwable8toStringMxFMDFxAaZvZ14__foreachbody2MFKxAaZi 00423c10 f i druntime-ldc:object.obj
 0001:00022c40       __D6object5Error6__ctorMFNaNbNiNfAyaC6object9ThrowableZC6object5Error 00423c40 f i druntime-ldc:object.obj
 0001:00022c70       __D6object5Error6__ctorMFNaNbNiNfAyaAyakC6object9ThrowableZC6object5Error 00423c70 f i druntime-ldc:object.obj
 0001:00022cb0       __D6object12getArrayHashFNbNexC8TypeInfoxPvxkZ15hasCustomToHashFNaNbNexC8TypeInfoZb 00423cb0 f i druntime-ldc:object.obj
 0001:00022dc0       _rt_args                   00423dc0 f i druntime-ldc:dmain2.obj
 0001:00022dd0       _rt_init                   00423dd0 f i druntime-ldc:dmain2.obj
 0001:00022ed0       __d_print_throwable        00423ed0 f i druntime-ldc:dmain2.obj
 0001:000232c0       _rt_term                   004242c0 f i druntime-ldc:dmain2.obj
 0001:00023400       _rt_setTraceHandler        00424400 f i druntime-ldc:dmain2.obj
 0001:00023410       __d_run_main               00424410 f i druntime-ldc:dmain2.obj
 0001:00023780       __D2rt6dmain211_d_run_mainUiPPaPUAAaZiZ7tryExecMFMDFZvZv 00424780 f i druntime-ldc:dmain2.obj
 0001:00023840       __D2rt6dmain211_d_run_mainUiPPaPUAAaZiZ6runAllMFZ9__lambda1MFZv 00424840 f i druntime-ldc:dmain2.obj
 0001:00023860       __D2rt6dmain218_d_print_throwableUC6object9ThrowableZ5WSink4sinkMFNbxAaZv 00424860 f i druntime-ldc:dmain2.obj
 0001:000238d0       __D2rt6dmain218_d_print_throwableUC6object9ThrowableZ4sinkMFNbxAaZv 004248d0 f i druntime-ldc:dmain2.obj
 0001:00023950       __D2rt8typeinfo7ti_uint10TypeInfo_k8toStringMxFNaNbNfZAya 00424950 f i druntime-ldc:ti_uint.obj
 0001:00023960       __D2rt8typeinfo8ti_dchar10TypeInfo_w6equalsMxFNaNbNexPvxPvZb 00424960 f i druntime-ldc:ti_dchar.obj
 0001:00023960       __D6object16TypeInfo_Pointer6equalsMxFxPvxPvZb 00424960 f i druntime-ldc:object.obj
 0001:00023960       __D2rt8typeinfo7ti_uint10TypeInfo_k6equalsMxFNaNbNexPvxPvZb 00424960 f i druntime-ldc:ti_uint.obj
 0001:00023960       __D2rt8typeinfo6ti_int10TypeInfo_i6equalsMxFNaNbNexPvxPvZb 00424960 f i druntime-ldc:ti_int.obj
 0001:00023980       __D2rt8typeinfo7ti_uint10TypeInfo_k7compareMxFNaNbNexPvxPvZi 00424980 f i druntime-ldc:ti_uint.obj
 0001:000239b0       __D6object14TypeInfo_Class5tsizeMxFNaNbNdNiNfZk 004249b0 f i druntime-ldc:object.obj
 0001:000239b0       __D2rt8typeinfo9ti_cfloat10TypeInfo_q6talignMxFNaNbNdNiNfZk 004249b0 f i druntime-ldc:ti_cfloat.obj
 0001:000239b0       __D2rt8typeinfo6ti_int10TypeInfo_i5tsizeMxFNaNbNdNiNeZk 004249b0 f i druntime-ldc:ti_int.obj
 0001:000239b0       __D6object25TypeInfo_AssociativeArray6talignMxFNaNbNdNiNfZk 004249b0 f i druntime-ldc:object.obj
 0001:000239b0       __D6object25TypeInfo_AssociativeArray5tsizeMxFNaNbNdNiNfZk 004249b0 f i druntime-ldc:object.obj
 0001:000239b0       __D2rt8typeinfo7ti_uint10TypeInfo_k5tsizeMxFNaNbNdNiNeZk 004249b0 f i druntime-ldc:ti_uint.obj
 0001:000239b0       __D2rt8typeinfo8ti_dchar10TypeInfo_w5tsizeMxFNaNbNdNiNeZk 004249b0 f i druntime-ldc:ti_dchar.obj
 0001:000239b0       __D6object16TypeInfo_Pointer5tsizeMxFNaNbNdNiNfZk 004249b0 f i druntime-ldc:object.obj
 0001:000239b0       __D6object18TypeInfo_Interface5tsizeMxFNaNbNdNiNfZk 004249b0 f i druntime-ldc:object.obj
 0001:000239b0       __D2rt8typeinfo8ti_float10TypeInfo_f5tsizeMxFNaNbNdNiNfZk 004249b0 f i druntime-ldc:ti_float.obj
 0001:000239b0       __D6object17TypeInfo_Delegate6talignMxFNaNbNdNiNfZk 004249b0 f i druntime-ldc:object.obj
 0001:000239b0       __D6object14TypeInfo_Array6talignMxFNaNbNdNiNfZk 004249b0 f i druntime-ldc:object.obj
 0001:000239c0       __D6object16TypeInfo_Pointer11initializerMxFNaNbNiNeZAxv 004249c0 f i druntime-ldc:object.obj
 0001:000239c0       __D6object25TypeInfo_AssociativeArray11initializerMxFNaNbNiNeZAxv 004249c0 f i druntime-ldc:object.obj
 0001:000239c0       __D2rt8typeinfo6ti_int10TypeInfo_i11initializerMxFNaNbNiNeZAxv 004249c0 f i druntime-ldc:ti_int.obj
 0001:000239c0       __D2rt8typeinfo7ti_uint10TypeInfo_k11initializerMxFNaNbNiNeZAxv 004249c0 f i druntime-ldc:ti_uint.obj
 0001:000239c0       __D6object18TypeInfo_Interface11initializerMxFNaNbNiNeZAxv 004249c0 f i druntime-ldc:object.obj
 0001:000239f0       __D2rt8typeinfo8ti_ubyte10TypeInfo_h8toStringMxFNaNbNfZAya 004249f0 f i druntime-ldc:ti_ubyte.obj
 0001:00023a00       __D2rt8typeinfo8ti_ubyte10TypeInfo_h7getHashMxFNaNbNexPvZk 00424a00 f i druntime-ldc:ti_ubyte.obj
 0001:00023a00       __D2rt8typeinfo7ti_char10TypeInfo_a7getHashMxFNaNbNexPvZk 00424a00 f i druntime-ldc:ti_char.obj
 0001:00023a10       __D2rt8typeinfo7ti_byte10TypeInfo_g6equalsMxFNaNbNexPvxPvZb 00424a10 f i druntime-ldc:ti_byte.obj
 0001:00023a10       __D2rt8typeinfo7ti_char10TypeInfo_a6equalsMxFNaNbNexPvxPvZb 00424a10 f i druntime-ldc:ti_char.obj
 0001:00023a10       __D2rt8typeinfo7ti_void10TypeInfo_v6equalsMxFNaNbNexPvxPvZb 00424a10 f i druntime-ldc:ti_void.obj
 0001:00023a10       __D2rt8typeinfo8ti_ubyte10TypeInfo_h6equalsMxFNaNbNexPvxPvZb 00424a10 f i druntime-ldc:ti_ubyte.obj
 0001:00023a30       __D2rt8typeinfo8ti_ubyte10TypeInfo_h7compareMxFNaNbNexPvxPvZi 00424a30 f i druntime-ldc:ti_ubyte.obj
 0001:00023a30       __D2rt8typeinfo7ti_char10TypeInfo_a7compareMxFNaNbNexPvxPvZi 00424a30 f i druntime-ldc:ti_char.obj
 0001:00023a50       __D2rt8typeinfo8ti_ubyte10TypeInfo_b8toStringMxFNaNbNfZAya 00424a50 f i druntime-ldc:ti_ubyte.obj
 0001:00023a80       _fwide                     00424a80 f i druntime-ldc:wchar_.obj
 0001:00023ab0       __D2rt8typeinfo7ti_char10TypeInfo_a8toStringMxFNaNbNfZAya 00424ab0 f i druntime-ldc:ti_char.obj
 0001:00023ac0       __D2rt8typeinfo7ti_void10TypeInfo_v4swapMxFNaNbNePvPvZv 00424ac0 f i druntime-ldc:ti_void.obj
 0001:00023ac0       __D2rt8typeinfo8ti_ubyte10TypeInfo_h4swapMxFNaNbNePvPvZv 00424ac0 f i druntime-ldc:ti_ubyte.obj
 0001:00023ac0       __D2rt8typeinfo7ti_byte10TypeInfo_g4swapMxFNaNbNePvPvZv 00424ac0 f i druntime-ldc:ti_byte.obj
 0001:00023ac0       __D2rt8typeinfo7ti_char10TypeInfo_a4swapMxFNaNbNePvPvZv 00424ac0 f i druntime-ldc:ti_char.obj
 0001:00023ae0       __D2rt8typeinfo7ti_char10TypeInfo_a11initializerMxFNaNbNiNeZAxv 00424ae0 f i druntime-ldc:ti_char.obj
 0001:00023b10       __D4core4stdc5errno5errnoFNbNdNiNeZi 00424b10 f i druntime-ldc:errno.obj
 0001:00023b60       __D4core5bitop3bsrFNaNbNiNfkZi 00424b60 f i druntime-ldc:bitop.obj
 0001:00023b70       __D4core5bitop2btFNaNbNixPkkZi 00424b70 f i druntime-ldc:bitop.obj
 0001:00023bb0       __d_array_slice_copy       00424bb0 f i druntime-ldc:arrayinit.obj
 0001:00023ce0       __D4core6memory2GC6enableFNbZv 00424ce0 f i druntime-ldc:memory.obj
 0001:00023cf0       __D4core6memory2GC7disableFNbZv 00424cf0 f i druntime-ldc:memory.obj
 0001:00023d00       __D4core6memory2GC7getAttrFNaNbPvZk 00424d00 f i druntime-ldc:memory.obj
 0001:00023d10       __D4core6memory2GC7setAttrFNaNbPvkZk 00424d10 f i druntime-ldc:memory.obj
 0001:00023d20       __D4core6memory2GC6mallocFNaNbkkxC8TypeInfoZPv 00424d20 f i druntime-ldc:memory.obj
 0001:00023d40       __D4core6memory2GC6qallocFNaNbkkxC8TypeInfoZS4core6memory8BlkInfo_ 00424d40 f i druntime-ldc:memory.obj
 0001:00023d60       __D4core6memory2GC6callocFNaNbkkxC8TypeInfoZPv 00424d60 f i druntime-ldc:memory.obj
 0001:00023d80       __D4core6memory2GC6extendFNaNbPvkkxC8TypeInfoZk 00424d80 f i druntime-ldc:memory.obj
 0001:00023da0       __D4core6memory2GC4freeFNaNbPvZv 00424da0 f i druntime-ldc:memory.obj
 0001:00023db0       __D4core6memory2GC5queryFNaNbPvZS4core6memory8BlkInfo_ 00424db0 f i druntime-ldc:memory.obj
 0001:00023dc0       __D4core6memory2GC8addRangeFNbNixPvkxC8TypeInfoZv 00424dc0 f i druntime-ldc:memory.obj
 0001:00023e00       __D2rt12sections_ldc12SectionGroup14opApplyReverseFMDFKS2rt12sections_ldc12SectionGroupZiZi 00424e00 f i druntime-ldc:sections_ldc.obj
 0001:00023e00       __D2rt12sections_ldc12SectionGroup7opApplyFMDFKS2rt12sections_ldc12SectionGroupZiZi 00424e00 f i druntime-ldc:sections_ldc.obj
 0001:00023e10       __D2rt12sections_ldc12SectionGroup7modulesMxFNdZAyPS6object10ModuleInfo 00424e10 f i druntime-ldc:sections_ldc.obj
 0001:00023e20       __D2rt12sections_ldc12SectionGroup8gcRangesMNgFNdZANgAv 00424e20 f i druntime-ldc:sections_ldc.obj
 0001:00023e30       __D2rt12sections_ldc12initSectionsFZv 00424e30 f i druntime-ldc:sections_ldc.obj
 0001:00024030       __D2rt12sections_ldc12finiSectionsFZv 00425030 f i druntime-ldc:sections_ldc.obj
 0001:00024050       __D2rt12sections_ldc13initTLSRangesFZAv 00425050 f i druntime-ldc:sections_ldc.obj
 0001:00024070       __D2rt12sections_ldc13finiTLSRangesFAvZv 00425070 f i druntime-ldc:sections_ldc.obj
 0001:00024080       __D2rt12sections_ldc13scanTLSRangesFNbAvMDFNbPvPvZvZv 00425080 f i druntime-ldc:sections_ldc.obj
 0001:000240c0       __D2rt8typeinfo8ti_dchar10TypeInfo_w8toStringMxFNaNbNfZAya 004250c0 f i druntime-ldc:ti_dchar.obj
 0001:000240d0       __D2rt8typeinfo8ti_dchar10TypeInfo_w7compareMxFNaNbNexPvxPvZi 004250d0 f i druntime-ldc:ti_dchar.obj
 0001:000240e0       __D2rt8typeinfo8ti_dchar10TypeInfo_w11initializerMxFNaNbNiNeZAxv 004250e0 f i druntime-ldc:ti_dchar.obj
 0001:00024110       __D2rt8typeinfo8ti_wchar10TypeInfo_u8toStringMxFNaNbNeZAya 00425110 f i druntime-ldc:ti_wchar.obj
 0001:00024120       __D2rt8typeinfo9ti_ushort10TypeInfo_t6equalsMxFNaNbNexPvxPvZb 00425120 f i druntime-ldc:ti_ushort.obj
 0001:00024120       __D2rt8typeinfo8ti_wchar10TypeInfo_u6equalsMxFNaNbNexPvxPvZb 00425120 f i druntime-ldc:ti_wchar.obj
 0001:00024120       __D2rt8typeinfo8ti_short10TypeInfo_s6equalsMxFNaNbNexPvxPvZb 00425120 f i druntime-ldc:ti_short.obj
 0001:00024140       __D2rt8typeinfo9ti_ushort10TypeInfo_t7compareMxFNaNbNexPvxPvZi 00425140 f i druntime-ldc:ti_ushort.obj
 0001:00024140       __D2rt8typeinfo8ti_wchar10TypeInfo_u7compareMxFNaNbNexPvxPvZi 00425140 f i druntime-ldc:ti_wchar.obj
 0001:00024160       __D2rt8typeinfo8ti_wchar10TypeInfo_u11initializerMxFNaNbNiNeZAxv 00425160 f i druntime-ldc:ti_wchar.obj
 0001:00024190       __D2rt8typeinfo9ti_ushort10TypeInfo_t8toStringMxFNaNbNfZAya 00425190 f i druntime-ldc:ti_ushort.obj
 0001:000241a0       __D2rt8typeinfo8ti_wchar10TypeInfo_u7getHashMxFNaNbNexPvZk 004251a0 f i druntime-ldc:ti_wchar.obj
 0001:000241a0       __D2rt8typeinfo9ti_ushort10TypeInfo_t7getHashMxFNaNbNexPvZk 004251a0 f i druntime-ldc:ti_ushort.obj
 0001:000241d0       __D4core8internal6string20unsignedToTempStringFNaNbNiNfmAakZAa 004251d0 f i druntime-ldc:string.obj
 0001:00024280       __D4core8internal6string7dstrcmpFNaNbNiNexAaxAaZi 00425280 f i druntime-ldc:string.obj
 0001:000242f0       __D2rt8typeinfo9ti_Ashort11TypeInfo_As8toStringMxFNaNbNfZAya 004252f0 f i druntime-ldc:ti_Ashort.obj
 0001:00024300       __D2rt8typeinfo9ti_Ashort11TypeInfo_As7getHashMxFNbNexPvZk 00425300 f i druntime-ldc:ti_Ashort.obj
 0001:00024320       __D2rt8typeinfo9ti_Ashort11TypeInfo_As6equalsMxFxPvxPvZb 00425320 f i druntime-ldc:ti_Ashort.obj
 0001:00024350       __D2rt8typeinfo9ti_Ashort11TypeInfo_As7compareMxFxPvxPvZi 00425350 f i druntime-ldc:ti_Ashort.obj
 0001:000243b0       __D2rt8typeinfo9ti_Ashort11TypeInfo_As4nextMNgFNaNbNdNiZNgC8TypeInfo 004253b0 f i druntime-ldc:ti_Ashort.obj
 0001:000243c0       __D2rt8typeinfo9ti_Ashort11TypeInfo_At8toStringMxFNaNbNfZAya 004253c0 f i druntime-ldc:ti_Ashort.obj
 0001:000243d0       __D2rt8typeinfo9ti_Ashort11TypeInfo_At7compareMxFxPvxPvZi 004253d0 f i druntime-ldc:ti_Ashort.obj
 0001:00024430       __D2rt8typeinfo9ti_Ashort11TypeInfo_At4nextMNgFNaNbNdNiZNgC8TypeInfo 00425430 f i druntime-ldc:ti_Ashort.obj
 0001:00024440       __D2rt8typeinfo9ti_Ashort11TypeInfo_Au8toStringMxFNaNbNfZAya 00425440 f i druntime-ldc:ti_Ashort.obj
 0001:00024450       __D2rt8typeinfo9ti_Ashort11TypeInfo_Au4nextMNgFNaNbNdNiZNgC8TypeInfo 00425450 f i druntime-ldc:ti_Ashort.obj
 0001:00024480       __D2rt8typeinfo7ti_Aint11TypeInfo_Ai8opEqualsMFC6ObjectZb 00425480 f i druntime-ldc:ti_Aint.obj
 0001:00024480       __D2rt8typeinfo9ti_Ashort11TypeInfo_As8opEqualsMFC6ObjectZb 00425480 f i druntime-ldc:ti_Ashort.obj
 0001:00024480       __D2rt8typeinfo8ti_Along11TypeInfo_Al8opEqualsMFC6ObjectZb 00425480 f i druntime-ldc:ti_Along.obj
 0001:00024480       __D2rt8typeinfo5ti_Ag11TypeInfo_Ag8opEqualsMFC6ObjectZb 00425480 f i druntime-ldc:ti_Ag.obj
 0001:00024490       __D2rt8typeinfo7ti_Aint11TypeInfo_Ai8toStringMxFNaNbNfZAya 00425490 f i druntime-ldc:ti_Aint.obj
 0001:000244a0       __D2rt8typeinfo7ti_Aint11TypeInfo_Ai7getHashMxFNbNexPvZk 004254a0 f i druntime-ldc:ti_Aint.obj
 0001:000244c0       __D2rt8typeinfo7ti_Aint11TypeInfo_Ai6equalsMxFxPvxPvZb 004254c0 f i druntime-ldc:ti_Aint.obj
 0001:000244f0       __D2rt8typeinfo7ti_Aint11TypeInfo_Ai7compareMxFxPvxPvZi 004254f0 f i druntime-ldc:ti_Aint.obj
 0001:00024570       __D2rt8typeinfo7ti_Aint11TypeInfo_Ai4nextMNgFNaNbNdNiZNgC8TypeInfo 00425570 f i druntime-ldc:ti_Aint.obj
 0001:00024580       __D2rt8typeinfo7ti_Aint11TypeInfo_Ak8toStringMxFNaNbNfZAya 00425580 f i druntime-ldc:ti_Aint.obj
 0001:00024590       __D2rt8typeinfo7ti_Aint11TypeInfo_Ak7compareMxFxPvxPvZi 00425590 f i druntime-ldc:ti_Aint.obj
 0001:00024610       __D2rt8typeinfo7ti_Aint11TypeInfo_Ak4nextMNgFNaNbNdNiZNgC8TypeInfo 00425610 f i druntime-ldc:ti_Aint.obj
 0001:00024620       __D2rt8typeinfo7ti_Aint11TypeInfo_Aw8toStringMxFNaNbNfZAya 00425620 f i druntime-ldc:ti_Aint.obj
 0001:00024630       __D2rt8typeinfo7ti_Aint11TypeInfo_Aw4nextMNgFNaNbNdNiZNgC8TypeInfo 00425630 f i druntime-ldc:ti_Aint.obj
 0001:00024660       __D2rt8typeinfo6ti_int10TypeInfo_i8toStringMxFNaNbNfZAya 00425660 f i druntime-ldc:ti_int.obj
 0001:00024670       __D2rt8typeinfo6ti_int10TypeInfo_i7compareMxFNaNbNexPvxPvZi 00425670 f i druntime-ldc:ti_int.obj
 0001:000246b0       __D2rt8typeinfo7ti_void10TypeInfo_v8toStringMxFNaNbNfZAya 004256b0 f i druntime-ldc:ti_void.obj
 0001:000246e0       __D2rt3aaA4Impl6shrinkMFxC8TypeInfoZv 004256e0 f i druntime-ldc:aaA.obj
 0001:000247a0       __aaInX                    004257a0 f i druntime-ldc:aaA.obj
 0001:00024840       __aaDelX                   00425840 f i druntime-ldc:aaA.obj
 0001:00024930       __aaKeys                   00425930 f i druntime-ldc:aaA.obj
 0001:000249c0       __aaEqual                  004259c0 f i druntime-ldc:aaA.obj
 0001:00024b00       __aaGetHash                00425b00 f i druntime-ldc:aaA.obj
 0001:00024bc0       __D4core4sync5mutex5Mutex6__ctorMFNbNeZC4core4sync5mutex5Mutex 00425bc0 f i druntime-ldc:mutex.obj
 0001:00024be0       __D4core4sync5mutex5Mutex6__dtorMFZv 00425be0 f i druntime-ldc:mutex.obj
 0001:00024c00       __D4core4sync5mutex5Mutex12lock_nothrowMFNbNiNeZv 00425c00 f i druntime-ldc:mutex.obj
 0001:00024c00       __D4core4sync5mutex5Mutex4lockMFNeZv 00425c00 f i druntime-ldc:mutex.obj
 0001:00024c10       __D4core4sync5mutex5Mutex14unlock_nothrowMFNbNiNeZv 00425c10 f i druntime-ldc:mutex.obj
 0001:00024c10       __D4core4sync5mutex5Mutex6unlockMFNeZv 00425c10 f i druntime-ldc:mutex.obj
 0001:00024c20       __D4core4sync5mutex5Mutex7tryLockMFZb 00425c20 f i druntime-ldc:mutex.obj
 0001:00024c30       __DThn8_4core4sync5mutex5Mutex4lockMFNeZv@4 00425c30 f i druntime-ldc:mutex.obj
 0001:00024c40       __DThn8_4core4sync5mutex5Mutex6unlockMFNeZv@4 00425c40 f i druntime-ldc:mutex.obj
 0001:00024c70       __D4core4sync9condition9Condition6__ctorMFNbNfC4core4sync5mutex5MutexZC4core4sync9condition9Condition 00425c70 f i druntime-ldc:condition.obj
 0001:00024e90       __D4core4sync9condition9Condition6__dtorMFZv 00425e90 f i druntime-ldc:condition.obj
 0001:00024eb0       __D4core4sync9condition9Condition5mutexMFNdZC4core4sync5mutex5Mutex 00425eb0 f i druntime-ldc:condition.obj
 0001:00024eb0       __D4core4sync9condition9Condition13mutex_nothrowMFNaNbNdNiNfZC4core4sync5mutex5Mutex 00425eb0 f i druntime-ldc:condition.obj
 0001:00024ec0       __D4core4sync9condition9Condition4waitMFZv 00425ec0 f i druntime-ldc:condition.obj
 0001:00024ed0       __D4core4sync9condition9Condition9timedWaitMFkZb 00425ed0 f i druntime-ldc:condition.obj
 0001:00025140       __D4core4sync9condition9Condition4waitMFS4core4time8DurationZb 00426140 f i druntime-ldc:condition.obj
 0001:000251f0       __D4core4sync9condition9Condition6notifyMFZv 004261f0 f i druntime-ldc:condition.obj
 0001:00025200       __D4core4sync9condition9Condition6notifyMFbZv 00426200 f i druntime-ldc:condition.obj
 0001:00025360       __D4core4sync9condition9Condition9notifyAllMFZv 00426360 f i druntime-ldc:condition.obj
 0001:000253c0       __D2rt8monitor_13ensureMonitorFNbC6ObjectZPOS2rt8monitor_7Monitor 004263c0 f i druntime-ldc:monitor_.obj
 0001:00025450       __d_monitordelete          00426450 f i druntime-ldc:monitor_.obj
 0001:000254d0       __d_monitorenter           004264d0 f i druntime-ldc:monitor_.obj
 0001:000254f0       __d_monitorexit            004264f0 f i druntime-ldc:monitor_.obj
 0001:00025510       __d_monitor_staticctor     00426510 f i druntime-ldc:monitor_.obj
 0001:00025520       __d_monitor_staticdtor     00426520 f i druntime-ldc:monitor_.obj
 0001:00025550       _fiber_switchContext       00426550 f   druntime-ldc:thread.obj
 0001:000255a0       __D4core6thread5Fiber9initStackMFNbZ3fs0FNbZPS4core6thread5Fiber9initStackMFNbZ22EXCEPTION_REGISTRATION 004265a0 f   druntime-ldc:thread.obj
 0001:000255b0       __D3std6format15FormatException6__ctorMFNaNbNfAyaAyakC6object9ThrowableZC3std6format15FormatException 004265b0 f i phobos2-ldc:format.obj
 0001:000255b0       __D4core4time13TimeException6__ctorMFNaNbNfAyaAyakC6object9ThrowableZC4core4time13TimeException 004265b0 f i druntime-ldc:time.obj
 0001:000255b0       __D3std6socket22SocketFeatureException8__mixin16__ctorMFNaNbNiNfAyaAyakC6object9ThrowableZC3std6socket22SocketFeatureException 004265b0 f i phobos2-ldc:socket.obj
 0001:000255b0       __D4core6thread15ThreadException6__ctorMFNaNbNfAyaAyakC6object9ThrowableZC4core6thread15ThreadException 004265b0 f i druntime-ldc:thread.obj
 0001:000255b0       __D3std3utf12UTFException6__ctorMFNaNbNiNfAyaAyakC6object9ThrowableZC3std3utf12UTFException 004265b0 f i phobos2-ldc:utf.obj
 0001:000255b0       __D3std6socket24SocketParameterException8__mixin16__ctorMFNaNbNiNfAyaAyakC6object9ThrowableZC3std6socket24SocketParameterException 004265b0 f i phobos2-ldc:socket.obj
 0001:000255e0       _thread_entryPoint@4       004265e0 f i druntime-ldc:thread.obj
 0001:00025890       __D4core6thread6Thread6removeFNbC4core6thread6ThreadZv 00426890 f i druntime-ldc:thread.obj
 0001:00025930       __D4core6thread6Thread6__ctorMFDFZvkZC4core6thread6Thread 00426930 f i druntime-ldc:thread.obj
 0001:00025960       __D4core6thread6Thread6__dtorMFZv 00426960 f i druntime-ldc:thread.obj
 0001:000259a0       __D4core6thread6Thread5startMFNbZC4core6thread6Thread 004269a0 f i druntime-ldc:thread.obj
 0001:00025b90       __D4core6thread13onThreadErrorFNbAyaC6object9ThrowableZv 00426b90 f i druntime-ldc:thread.obj
 0001:00025bd0       __D4core6thread6Thread4joinMFbZC6object9Throwable 00426bd0 f i druntime-ldc:thread.obj
 0001:00025c80       __D4core6thread6Thread5sleepFNbNiS4core4time8DurationZv 00426c80 f i druntime-ldc:thread.obj
 0001:00025d70       __D4core6thread6Thread5yieldFNbNiZv 00426d70 f i druntime-ldc:thread.obj
 0001:00025d80       _thread_init               00426d80 f i druntime-ldc:thread.obj
 0001:00025e40       _thread_attachThis         00426e40 f i druntime-ldc:thread.obj
 0001:00026010       _thread_term               00427010 f i druntime-ldc:thread.obj
 0001:00026040       _thread_joinAll            00427040 f i druntime-ldc:thread.obj
 0001:00026100       __D4core6thread18_sharedStaticDtor9FZv 00427100 f i druntime-ldc:thread.obj
 0001:00026160       __D4core6thread18callWithStackShellFNbMDFNbPvZvZv 00427160 f i druntime-ldc:thread.obj
 0001:00026190       __D4core6thread7suspendFNbC4core6thread6ThreadZb 00427190 f i druntime-ldc:thread.obj
 0001:00026360       _thread_suspendAll         00427360 f i druntime-ldc:thread.obj
 0001:000263f0       __D4core6thread6resumeFNbC4core6thread6ThreadZv 004273f0 f i druntime-ldc:thread.obj
 0001:00026490       _thread_resumeAll          00427490 f i druntime-ldc:thread.obj
 0001:00026500       __D4core6thread18thread_scanAllTypeUNbMDFNbE4core6thread8ScanTypePvPvZvZ17__T9__lambda2TPvZ9__lambda2MFNbPvZv 00427500 f i druntime-ldc:thread.obj
 0001:00026520       __D4core6thread15scanAllTypeImplFNbMDFNbE4core6thread8ScanTypePvPvZvPvZv 00427520 f i druntime-ldc:thread.obj
 0001:00026630       __D4core6thread15scanAllTypeImplFNbMDFNbE4core6thread8ScanTypePvPvZvPvZ20__T9__lambda3TPvTPvZ9__lambda3MFNbPvPvZv 00427630 f i druntime-ldc:thread.obj
 0001:00026650       _thread_scanAll            00427650 f i druntime-ldc:thread.obj
 0001:00026690       __D4core6thread14thread_scanAllUNbMDFNbPvPvZvZ43__T9__lambda2TE4core6thread8ScanTypeTPvTPvZ9__lambda2MFNbE4core6thread8ScanTypePvPvZv 00427690 f i druntime-ldc:thread.obj
 0001:000266b0       _thread_processGCMarks     004276b0 f i druntime-ldc:thread.obj
 0001:000266f0       _fiber_entryPoint          004276f0 f i druntime-ldc:thread.obj
 0001:00026820       __D4core6thread5Fiber7getThisFNbZC4core6thread5Fiber 00427820 f i druntime-ldc:thread.obj
 0001:00026840       __D4core6thread5Fiber10allocStackMFNbkZv 00427840 f i druntime-ldc:thread.obj
 0001:00026950       __D4core6thread5Fiber6__ctorMFNbDFZvkZC4core6thread5Fiber 00427950 f i druntime-ldc:thread.obj
 0001:00026a20       __D4core6thread5Fiber6__dtorMFNbZv 00427a20 f i druntime-ldc:thread.obj
 0001:00026a90       __D4core6thread5Fiber4callMFE4core6thread5Fiber7RethrowZC6object9Throwable 00427a90 f i druntime-ldc:thread.obj
 0001:00026ad0       __D4core6thread5Fiber8callImplMFNbZv 00427ad0 f i druntime-ldc:thread.obj
 0001:00026ba0       __D4core6thread5Fiber5stateMxFNbNdZE4core6thread5Fiber5State 00427ba0 f i druntime-ldc:thread.obj
 0001:00026bb0       __D4core6thread5Fiber5yieldFNbZv 00427bb0 f i druntime-ldc:thread.obj
 0001:00026c10       __D4core6thread5Fiber6__ctorMFNbZC4core6thread5Fiber 00427c10 f i druntime-ldc:thread.obj
 0001:00026ce0       __d_dynamic_cast           00427ce0 f i druntime-ldc:cast_.obj
 0001:00026d20       __d_isbaseof2              00427d20 f i druntime-ldc:cast_.obj
 0001:00026da0       __d_isbaseof               00427da0 f i druntime-ldc:cast_.obj
 0001:00026e30       __D4core4time8Duration6__ctorMFNaNbNcNiNflZS4core4time8Duration 00427e30 f i druntime-ldc:time.obj
 0001:00026e40       __D4core4time8Duration5opCmpMxFNaNbNiNfS4core4time8DurationZi 00427e40 f i druntime-ldc:time.obj
 0001:00026e70       __D4core4time8Duration10isNegativeMxFNaNbNdNiNfZb 00427e70 f i druntime-ldc:time.obj
 0001:00026e80       __d_initMonoTime           00427e80 f i druntime-ldc:time.obj
 0001:00026f20       __D4core4time13convClockFreqFNaNbNiNflllZl 00427f20 f i druntime-ldc:time.obj
 0001:00026fa0       __D4core4time42__T12MonoTimeImplVE4core4time9ClockTypei0Z12MonoTimeImpl14ticksPerSecondFNaNbNdNiNfZl 00427fa0 f i druntime-ldc:time.obj
 0001:00026fb0       __D4core4time12TickDuration19_sharedStaticCtor61FNeZv 00427fb0 f i druntime-ldc:time.obj
 0001:00027040       __D4core4time25__T3durVAyaa5_6d73656373Z3durFNaNbNiNflZS4core4time8Duration 00428040 f i druntime-ldc:time.obj
 0001:00027060       __D4core4time25__T3durVAyaa5_7573656373Z3durFNaNbNiNflZS4core4time8Duration 00428060 f i druntime-ldc:time.obj
 0001:00027080       __D4core4time42__T12MonoTimeImplVE4core4time9ClockTypei0Z12MonoTimeImpl8currTimeFNbNdNiNeZS4core4time42__T12MonoTimeImplVE4core4time9ClockTypei0Z12MonoTimeImpl 00428080 f i druntime-ldc:time.obj
 0001:00027110       __d_switch_string          00428110 f i druntime-ldc:switch_.obj
 0001:000271d0       __D4core3sys7windows7winbase23QueryPerformanceCounterFNbNiPlZi 004281d0 f i druntime-ldc:winbase.obj
 0001:000271e0       __D4core3sys7windows7winbase25QueryPerformanceFrequencyFNbNiPlZi 004281e0 f i druntime-ldc:winbase.obj
 0001:00027210       __aApplyRwd2               00428210 f i druntime-ldc:aApplyR.obj
 0001:000272f0       __D2rt8typeinfo8ti_Along11TypeInfo_Al8toStringMxFNaNbNfZAya 004282f0 f i druntime-ldc:ti_Along.obj
 0001:00027300       __D2rt8typeinfo8ti_Along11TypeInfo_Al7getHashMxFNbNexPvZk 00428300 f i druntime-ldc:ti_Along.obj
 0001:00027320       __D2rt8typeinfo8ti_Along11TypeInfo_Al6equalsMxFxPvxPvZb 00428320 f i druntime-ldc:ti_Along.obj
 0001:00027350       __D2rt8typeinfo8ti_Along11TypeInfo_Al7compareMxFxPvxPvZi 00428350 f i druntime-ldc:ti_Along.obj
 0001:000273f0       __D2rt8typeinfo8ti_Along11TypeInfo_Al4nextMNgFNaNbNdNiZNgC8TypeInfo 004283f0 f i druntime-ldc:ti_Along.obj
 0001:00027400       __D2rt8typeinfo8ti_Along11TypeInfo_Am8toStringMxFNaNbNfZAya 00428400 f i druntime-ldc:ti_Along.obj
 0001:00027410       __D2rt8typeinfo8ti_Along11TypeInfo_Am7compareMxFxPvxPvZi 00428410 f i druntime-ldc:ti_Along.obj
 0001:000274b0       __D2rt8typeinfo8ti_Along11TypeInfo_Am4nextMNgFNaNbNdNiZNgC8TypeInfo 004284b0 f i druntime-ldc:ti_Along.obj
 0001:000274e0       __D2rt8typeinfo7ti_long10TypeInfo_l8toStringMxFNaNbNfZAya 004284e0 f i druntime-ldc:ti_long.obj
 0001:000274f0       __D2rt8typeinfo7ti_long10TypeInfo_l7compareMxFNaNbNexPvxPvZi 004284f0 f i druntime-ldc:ti_long.obj
 0001:00027530       __D2rt8typeinfo7ti_long10TypeInfo_l4swapMxFNaNbNePvPvZv 00428530 f i druntime-ldc:ti_long.obj
 0001:00027530       __D2rt8typeinfo8ti_ulong10TypeInfo_m4swapMxFNaNbNePvPvZv 00428530 f i druntime-ldc:ti_ulong.obj
 0001:00027570       __D2rt8typeinfo8ti_ulong10TypeInfo_m8toStringMxFNaNbNfZAya 00428570 f i druntime-ldc:ti_ulong.obj
 0001:00027580       __D2rt8typeinfo7ti_long10TypeInfo_l7getHashMxFNaNbNexPvZk 00428580 f i druntime-ldc:ti_long.obj
 0001:00027580       __D2rt8typeinfo8ti_ulong10TypeInfo_m7getHashMxFNaNbNexPvZk 00428580 f i druntime-ldc:ti_ulong.obj
 0001:00027590       __D2rt8typeinfo8ti_ulong10TypeInfo_m6equalsMxFNaNbNexPvxPvZb 00428590 f i druntime-ldc:ti_ulong.obj
 0001:00027590       __D2rt8typeinfo7ti_long10TypeInfo_l6equalsMxFNaNbNexPvxPvZb 00428590 f i druntime-ldc:ti_long.obj
 0001:000275b0       __D2rt8typeinfo8ti_ulong10TypeInfo_m7compareMxFNaNbNexPvxPvZi 004285b0 f i druntime-ldc:ti_ulong.obj
 0001:00027610       __D4core3sys7windows5winnt10MAKELANGIDFNaNbNikkZt 00428610 f i druntime-ldc:winnt.obj
 0001:00027640       __D2rt8typeinfo7ti_byte10TypeInfo_g8toStringMxFNaNbNfZAya 00428640 f i druntime-ldc:ti_byte.obj
 0001:00027650       __D2rt8typeinfo7ti_byte10TypeInfo_g7getHashMxFNaNbNexPvZk 00428650 f i druntime-ldc:ti_byte.obj
 0001:00027660       __D2rt8typeinfo7ti_void10TypeInfo_v7compareMxFNaNbNexPvxPvZi 00428660 f i druntime-ldc:ti_void.obj
 0001:00027660       __D2rt8typeinfo7ti_byte10TypeInfo_g7compareMxFNaNbNexPvxPvZi 00428660 f i druntime-ldc:ti_byte.obj
 0001:00027680       __D2rt8typeinfo7ti_char10TypeInfo_a5tsizeMxFNaNbNdNiNeZk 00428680 f i druntime-ldc:ti_char.obj
 0001:00027680       __D2rt8typeinfo8ti_ubyte10TypeInfo_h5tsizeMxFNaNbNdNiNeZk 00428680 f i druntime-ldc:ti_ubyte.obj
 0001:00027680       __D6object16TypeInfo_Pointer5flagsMxFNaNbNdNiNfZk 00428680 f i druntime-ldc:object.obj
 0001:00027680       __D2rt8typeinfo7ti_void10TypeInfo_v5tsizeMxFNaNbNdNiNeZk 00428680 f i druntime-ldc:ti_void.obj
 0001:00027680       __D2rt8typeinfo7ti_byte10TypeInfo_g5tsizeMxFNaNbNdNiNeZk 00428680 f i druntime-ldc:ti_byte.obj
 0001:00027680       __D2rt8typeinfo7ti_void10TypeInfo_v5flagsMxFNaNbNdNiNeZk 00428680 f i druntime-ldc:ti_void.obj
 0001:00027680       __D6object17TypeInfo_Delegate5flagsMxFNaNbNdNiNfZk 00428680 f i druntime-ldc:object.obj
 0001:00027680       __D6object14TypeInfo_Array5flagsMxFNaNbNdNiNfZk 00428680 f i druntime-ldc:object.obj
 0001:00027680       __D6object14TypeInfo_Class5flagsMxFNaNbNdNiNfZk 00428680 f i druntime-ldc:object.obj
 0001:00027680       __D6object18TypeInfo_Interface5flagsMxFNaNbNdNiNfZk 00428680 f i druntime-ldc:object.obj
 0001:00027680       __D6object25TypeInfo_AssociativeArray5flagsMxFNaNbNdNiNfZk 00428680 f i druntime-ldc:object.obj
 0001:00027690       __D2rt8typeinfo7ti_byte10TypeInfo_g11initializerMxFNaNbNiNeZAxv 00428690 f i druntime-ldc:ti_byte.obj
 0001:00027690       __D2rt8typeinfo7ti_void10TypeInfo_v11initializerMxFNaNbNiNeZAxv 00428690 f i druntime-ldc:ti_void.obj
 0001:00027690       __D2rt8typeinfo8ti_ubyte10TypeInfo_h11initializerMxFNaNbNiNeZAxv 00428690 f i druntime-ldc:ti_ubyte.obj
 0001:000276c0       __D2rt8typeinfo8ti_short10TypeInfo_s8toStringMxFNaNbNfZAya 004286c0 f i druntime-ldc:ti_short.obj
 0001:000276d0       __D2rt8typeinfo8ti_short10TypeInfo_s7getHashMxFNaNbNexPvZk 004286d0 f i druntime-ldc:ti_short.obj
 0001:000276e0       __D2rt8typeinfo8ti_short10TypeInfo_s7compareMxFNaNbNexPvxPvZi 004286e0 f i druntime-ldc:ti_short.obj
 0001:00027700       __D2rt8typeinfo8ti_wchar10TypeInfo_u5tsizeMxFNaNbNdNiNeZk 00428700 f i druntime-ldc:ti_wchar.obj
 0001:00027700       __D2rt8typeinfo8ti_short10TypeInfo_s5tsizeMxFNaNbNdNiNeZk 00428700 f i druntime-ldc:ti_short.obj
 0001:00027700       __D2rt8typeinfo9ti_ushort10TypeInfo_t5tsizeMxFNaNbNdNiNeZk 00428700 f i druntime-ldc:ti_ushort.obj
 0001:00027710       __D2rt8typeinfo9ti_ushort10TypeInfo_t11initializerMxFNaNbNiNeZAxv 00428710 f i druntime-ldc:ti_ushort.obj
 0001:00027710       __D2rt8typeinfo8ti_short10TypeInfo_s11initializerMxFNaNbNiNeZAxv 00428710 f i druntime-ldc:ti_short.obj
 0001:00027720       __D2rt8typeinfo8ti_short10TypeInfo_s4swapMxFNaNbNePvPvZv 00428720 f i druntime-ldc:ti_short.obj
 0001:00027720       __D2rt8typeinfo8ti_wchar10TypeInfo_u4swapMxFNaNbNePvPvZv 00428720 f i druntime-ldc:ti_wchar.obj
 0001:00027720       __D2rt8typeinfo9ti_ushort10TypeInfo_t4swapMxFNaNbNePvPvZv 00428720 f i druntime-ldc:ti_ushort.obj
 0001:00027760       __D2rt8typeinfo8ti_float10TypeInfo_f8toStringMxFNaNbNfZAya 00428760 f i druntime-ldc:ti_float.obj
 0001:00027770       __D2rt8typeinfo8ti_float10TypeInfo_f7getHashMxFNaNbNexPvZk 00428770 f i druntime-ldc:ti_float.obj
 0001:00027790       __D2rt8typeinfo8ti_float10TypeInfo_f6equalsMxFNaNbNexPvxPvZb 00428790 f i druntime-ldc:ti_float.obj
 0001:000277b0       __D2rt8typeinfo8ti_float10TypeInfo_f7compareMxFNaNbNexPvxPvZi 004287b0 f i druntime-ldc:ti_float.obj
 0001:00027800       __D2rt8typeinfo8ti_dchar10TypeInfo_w4swapMxFNaNbNePvPvZv 00428800 f i druntime-ldc:ti_dchar.obj
 0001:00027800       __D2rt8typeinfo6ti_int10TypeInfo_i4swapMxFNaNbNePvPvZv 00428800 f i druntime-ldc:ti_int.obj
 0001:00027800       __D2rt8typeinfo8ti_float10TypeInfo_f4swapMxFNaNbNePvPvZv 00428800 f i druntime-ldc:ti_float.obj
 0001:00027800       __D6object16TypeInfo_Pointer4swapMxFPvPvZv 00428800 f i druntime-ldc:object.obj
 0001:00027800       __D2rt8typeinfo7ti_uint10TypeInfo_k4swapMxFNaNbNePvPvZv 00428800 f i druntime-ldc:ti_uint.obj
 0001:00027820       __D2rt8typeinfo8ti_float10TypeInfo_f11initializerMxFNaNbNiNeZAxv 00428820 f i druntime-ldc:ti_float.obj
 0001:00027850       __D2rt8typeinfo9ti_double10TypeInfo_d8toStringMxFNaNbNfZAya 00428850 f i druntime-ldc:ti_double.obj
 0001:00027860       __D2rt8typeinfo7ti_real10TypeInfo_e6equalsMxFNaNbNexPvxPvZb 00428860 f i druntime-ldc:ti_real.obj
 0001:00027860       __D2rt8typeinfo9ti_double10TypeInfo_d6equalsMxFNaNbNexPvxPvZb 00428860 f i druntime-ldc:ti_double.obj
 0001:00027880       __D2rt8typeinfo8ti_ulong10TypeInfo_m6talignMxFNaNbNdNiNeZk 00428880 f i druntime-ldc:ti_ulong.obj
 0001:00027880       __D6object17TypeInfo_Delegate5tsizeMxFNaNbNdNiNfZk 00428880 f i druntime-ldc:object.obj
 0001:00027880       __D2rt8typeinfo7ti_real10TypeInfo_e5tsizeMxFNaNbNdNiNfZk 00428880 f i druntime-ldc:ti_real.obj
 0001:00027880       __D6object14TypeInfo_Array5tsizeMxFNaNbNdNiNfZk 00428880 f i druntime-ldc:object.obj
 0001:00027880       __D2rt8typeinfo7ti_long10TypeInfo_l5tsizeMxFNaNbNdNiNeZk 00428880 f i druntime-ldc:ti_long.obj
 0001:00027880       __D2rt8typeinfo9ti_double10TypeInfo_d5tsizeMxFNaNbNdNiNfZk 00428880 f i druntime-ldc:ti_double.obj
 0001:00027880       __D2rt8typeinfo7ti_long10TypeInfo_l6talignMxFNaNbNdNiNeZk 00428880 f i druntime-ldc:ti_long.obj
 0001:00027880       __D2rt8typeinfo8ti_creal10TypeInfo_c6talignMxFNaNbNdNiNfZk 00428880 f i druntime-ldc:ti_creal.obj
 0001:00027880       __D2rt8typeinfo7ti_real10TypeInfo_e6talignMxFNaNbNdNiNfZk 00428880 f i druntime-ldc:ti_real.obj
 0001:00027880       __D2rt8typeinfo8ti_ulong10TypeInfo_m5tsizeMxFNaNbNdNiNeZk 00428880 f i druntime-ldc:ti_ulong.obj
 0001:00027880       __D2rt8typeinfo9ti_double10TypeInfo_d6talignMxFNaNbNdNiNfZk 00428880 f i druntime-ldc:ti_double.obj
 0001:00027880       __D2rt8typeinfo10ti_cdouble10TypeInfo_r6talignMxFNaNbNdNiNfZk 00428880 f i druntime-ldc:ti_cdouble.obj
 0001:00027880       __D2rt8typeinfo9ti_cfloat10TypeInfo_q5tsizeMxFNaNbNdNiNfZk 00428880 f i druntime-ldc:ti_cfloat.obj
 0001:00027890       __D2rt8typeinfo9ti_double10TypeInfo_d11initializerMxFNaNbNiNeZAxv 00428890 f i druntime-ldc:ti_double.obj
 0001:000278c0       __D2rt8typeinfo7ti_real10TypeInfo_e8toStringMxFNaNbNfZAya 004288c0 f i druntime-ldc:ti_real.obj
 0001:000278d0       __D2rt8typeinfo7ti_real10TypeInfo_e7getHashMxFNaNbNexPvZk 004288d0 f i druntime-ldc:ti_real.obj
 0001:000278d0       __D2rt8typeinfo9ti_double10TypeInfo_d7getHashMxFNaNbNexPvZk 004288d0 f i druntime-ldc:ti_double.obj
 0001:00027910       __D2rt8typeinfo9ti_double10TypeInfo_d7compareMxFNaNbNexPvxPvZi 00428910 f i druntime-ldc:ti_double.obj
 0001:00027910       __D2rt8typeinfo7ti_real10TypeInfo_e7compareMxFNaNbNexPvxPvZi 00428910 f i druntime-ldc:ti_real.obj
 0001:00027970       __D2rt8typeinfo7ti_real10TypeInfo_e4swapMxFNaNbNePvPvZv 00428970 f i druntime-ldc:ti_real.obj
 0001:00027970       __D2rt8typeinfo9ti_double10TypeInfo_d4swapMxFNaNbNePvPvZv 00428970 f i druntime-ldc:ti_double.obj
 0001:00027990       __D2rt8typeinfo7ti_real10TypeInfo_e11initializerMxFNaNbNiNeZAxv 00428990 f i druntime-ldc:ti_real.obj
 0001:000279c0       __D2rt8typeinfo9ti_ifloat10TypeInfo_o8toStringMxFNaNbNfZAya 004289c0 f i druntime-ldc:ti_ifloat.obj
 0001:000279f0       __D2rt8typeinfo10ti_idouble10TypeInfo_p8toStringMxFNaNbNfZAya 004289f0 f i druntime-ldc:ti_idouble.obj
 0001:00027a20       __D2rt8typeinfo8ti_ireal10TypeInfo_j8toStringMxFNaNbNfZAya 00428a20 f i druntime-ldc:ti_ireal.obj
 0001:00027a50       __D2rt8typeinfo9ti_cfloat10TypeInfo_q8toStringMxFNaNbNfZAya 00428a50 f i druntime-ldc:ti_cfloat.obj
 0001:00027a60       __D2rt8typeinfo9ti_cfloat10TypeInfo_q7getHashMxFNaNbNexPvZk 00428a60 f i druntime-ldc:ti_cfloat.obj
 0001:00027ab0       __D2rt8typeinfo9ti_cfloat10TypeInfo_q6equalsMxFNaNbNexPvxPvZb 00428ab0 f i druntime-ldc:ti_cfloat.obj
 0001:00027ae0       __D2rt8typeinfo9ti_cfloat10TypeInfo_q7compareMxFNaNbNexPvxPvZi 00428ae0 f i druntime-ldc:ti_cfloat.obj
 0001:00027b30       __D2rt8typeinfo9ti_cfloat10TypeInfo_q11initializerMxFNaNbNiNeZAxv 00428b30 f i druntime-ldc:ti_cfloat.obj
 0001:00027b60       __D2rt8typeinfo10ti_cdouble10TypeInfo_r8toStringMxFNaNbNfZAya 00428b60 f i druntime-ldc:ti_cdouble.obj
 0001:00027b70       __D2rt8typeinfo8ti_creal10TypeInfo_c6equalsMxFNaNbNexPvxPvZb 00428b70 f i druntime-ldc:ti_creal.obj
 0001:00027b70       __D2rt8typeinfo10ti_cdouble10TypeInfo_r6equalsMxFNaNbNexPvxPvZb 00428b70 f i druntime-ldc:ti_cdouble.obj
 0001:00027ba0       __D2rt8typeinfo10ti_cdouble10TypeInfo_r7compareMxFNaNbNexPvxPvZi 00428ba0 f i druntime-ldc:ti_cdouble.obj
 0001:00027ba0       __D2rt8typeinfo8ti_creal10TypeInfo_c7compareMxFNaNbNexPvxPvZi 00428ba0 f i druntime-ldc:ti_creal.obj
 0001:00027bf0       __D2rt8typeinfo10ti_cdouble10TypeInfo_r11initializerMxFNaNbNiNeZAxv 00428bf0 f i druntime-ldc:ti_cdouble.obj
 0001:00027c20       __D2rt8typeinfo8ti_creal10TypeInfo_c8toStringMxFNaNbNfZAya 00428c20 f i druntime-ldc:ti_creal.obj
 0001:00027c30       __D2rt8typeinfo8ti_creal10TypeInfo_c7getHashMxFNaNbNexPvZk 00428c30 f i druntime-ldc:ti_creal.obj
 0001:00027c30       __D2rt8typeinfo10ti_cdouble10TypeInfo_r7getHashMxFNaNbNexPvZk 00428c30 f i druntime-ldc:ti_cdouble.obj
 0001:00027ca0       __D2rt8typeinfo8ti_creal10TypeInfo_c4swapMxFNaNbNePvPvZv 00428ca0 f i druntime-ldc:ti_creal.obj
 0001:00027ca0       __D2rt8typeinfo10ti_cdouble10TypeInfo_r4swapMxFNaNbNePvPvZv 00428ca0 f i druntime-ldc:ti_cdouble.obj
 0001:00027cc0       __D2rt8typeinfo8ti_creal10TypeInfo_c11initializerMxFNaNbNiNeZAxv 00428cc0 f i druntime-ldc:ti_creal.obj
 0001:00027cf0       _ntohs@4                   00428cf0 f i druntime-ldc:winsock2.obj
 0001:00027d00       _htonl@4                   00428d00 f i druntime-ldc:winsock2.obj
 0001:00027d00       _ntohl@4                   00428d00 f i druntime-ldc:winsock2.obj
 0001:00027d30       __D2rt4util3utf6decodeFxAaKkZw 00428d30 f i druntime-ldc:utf.obj
 0001:00027e80       __D2rt4util3utf6decodeFxAuKkZw 00428e80 f i druntime-ldc:utf.obj
 0001:00027f60       __D2rt6config15rt_configOptionFNbNiAyaMDFNbNiAyaZAyabZAya 00428f60 f i druntime-ldc:config.obj
 0001:00028110       __D2rt6config16rt_cmdlineOptionFNbNiAyaMDFNbNiAyaZAyaZAya 00429110 f i druntime-ldc:config.obj
 0001:000281f0       __D2rt6config16rt_envvarsOptionFNbNiAyaMDFNbNiAyaZAyaZAya 004291f0 f i druntime-ldc:config.obj
 0001:000282f0       __D2rt5tlsgc4initFZPv      004292f0 f i druntime-ldc:tlsgc.obj
 0001:00028330       __D2rt5tlsgc7destroyFPvZv  00429330 f i druntime-ldc:tlsgc.obj
 0001:00028350       __D2rt5tlsgc4scanFNbPvMDFNbPvPvZvZv 00429350 f i druntime-ldc:tlsgc.obj
 0001:00028370       __D2rt5tlsgc14processGCMarksFNbPvMDFNbPvZiZv 00429370 f i druntime-ldc:tlsgc.obj
 0001:000283b0       _fatalerror                004293b0 f i druntime-ldc:common.obj
 0001:00028430       __D2rt4util9container6common8xreallocFNbNiPvkZPv 00429430 f i druntime-ldc:common.obj
 0001:00028470       __D2rt4util9container6common7xmallocFNbNikZPv 00429470 f i druntime-ldc:common.obj
 0001:000284b0       __D2rt4util4hash6hashOfFNaNbNePxvkkZk 004294b0 f i druntime-ldc:hash.obj
 0001:000285e0       __D2rt5minfo11ModuleGroup6__ctorMFNcAyPS6object10ModuleInfoZS2rt5minfo11ModuleGroup 004295e0 f i druntime-ldc:minfo.obj
 0001:000285f0       __D2rt5minfo11ModuleGroup7modulesMxFNdZAyPS6object10ModuleInfo 004295f0 f i druntime-ldc:minfo.obj
 0001:00028600       __D2rt5minfo11ModuleGroup9sortCtorsMFZv 00429600 f i druntime-ldc:minfo.obj
 0001:00028740       __D2rt5minfo11ModuleGroup9sortCtorsMFZ8StackRec3modMFNdZPyS6object10ModuleInfo 00429740 f i druntime-ldc:minfo.obj
 0001:00028750       __D2rt5minfo11ModuleGroup9sortCtorsMFZ4sortMFKAPyS6object10ModuleInfokZv 00429750 f i druntime-ldc:minfo.obj
 0001:00028ca0       __D2rt5minfo11ModuleGroup4freeMFZv 00429ca0 f i druntime-ldc:minfo.obj
 0001:00028cf0       __D2rt5minfo17moduleinfos_applyFMDFyPS6object10ModuleInfoZiZi 00429cf0 f i druntime-ldc:minfo.obj
 0001:00028d30       __D2rt5minfo17moduleinfos_applyFMDFyPS6object10ModuleInfoZiZ14__foreachbody2MFKS2rt12sections_ldc12SectionGroupZi 00429d30 f i druntime-ldc:minfo.obj
 0001:00028d80       _rt_moduleCtor             00429d80 f i druntime-ldc:minfo.obj
 0001:00028d90       __D2rt5minfo13rt_moduleCtorUZ14__foreachbody1MFKS2rt12sections_ldc12SectionGroupZi 00429d90 f i druntime-ldc:minfo.obj
 0001:00028e00       _rt_moduleTlsCtor          00429e00 f i druntime-ldc:minfo.obj
 0001:00028e10       __D2rt5minfo16rt_moduleTlsCtorUZ14__foreachbody1MFKS2rt12sections_ldc12SectionGroupZi 00429e10 f i druntime-ldc:minfo.obj
 0001:00028e50       _rt_moduleTlsDtor          00429e50 f i druntime-ldc:minfo.obj
 0001:00028e60       __D2rt5minfo16rt_moduleTlsDtorUZ14__foreachbody1MFKS2rt12sections_ldc12SectionGroupZi 00429e60 f i druntime-ldc:minfo.obj
 0001:00028ea0       _rt_moduleDtor             00429ea0 f i druntime-ldc:minfo.obj
 0001:00028eb0       __D2rt5minfo13rt_moduleDtorUZ14__foreachbody1MFKS2rt12sections_ldc12SectionGroupZi 00429eb0 f i druntime-ldc:minfo.obj
 0001:00028f70       __D4core8internal4hash9bytesHashFNaNbNePxvkkZk 00429f70 f i druntime-ldc:hash.obj
 0001:00029060       _gc_enable                 0042a060 f i druntime-ldc:proxy.obj
 0001:00029080       _gc_disable                0042a080 f i druntime-ldc:proxy.obj
 0001:000290a0       _gc_collect                0042a0a0 f i druntime-ldc:proxy.obj
 0001:000290c0       _gc_minimize               0042a0c0 f i druntime-ldc:proxy.obj
 0001:000290e0       _gc_getAttr                0042a0e0 f i druntime-ldc:proxy.obj
 0001:00029100       _gc_setAttr                0042a100 f i druntime-ldc:proxy.obj
 0001:00029120       _gc_clrAttr                0042a120 f i druntime-ldc:proxy.obj
 0001:00029140       _gc_malloc                 0042a140 f i druntime-ldc:proxy.obj
 0001:00029170       _gc_qalloc                 0042a170 f i druntime-ldc:proxy.obj
 0001:000291f0       _gc_calloc                 0042a1f0 f i druntime-ldc:proxy.obj
 0001:00029220       _gc_realloc                0042a220 f i druntime-ldc:proxy.obj
 0001:00029250       _gc_extend                 0042a250 f i druntime-ldc:proxy.obj
 0001:00029280       _gc_reserve                0042a280 f i druntime-ldc:proxy.obj
 0001:000292a0       _gc_free                   0042a2a0 f i druntime-ldc:proxy.obj
 0001:000292c0       _gc_addrOf                 0042a2c0 f i druntime-ldc:proxy.obj
 0001:000292e0       _gc_sizeOf                 0042a2e0 f i druntime-ldc:proxy.obj
 0001:00029300       _gc_query                  0042a300 f i druntime-ldc:proxy.obj
 0001:00029330       _gc_addRoot                0042a330 f i druntime-ldc:proxy.obj
 0001:00029350       _gc_addRange               0042a350 f i druntime-ldc:proxy.obj
 0001:00029380       _gc_removeRoot             0042a380 f i druntime-ldc:proxy.obj
 0001:000293a0       _gc_removeRange            0042a3a0 f i druntime-ldc:proxy.obj
 0001:000293c0       _gc_runFinalizers          0042a3c0 f i druntime-ldc:proxy.obj
 0001:000293f0       _gc_inFinalizer            0042a3f0 f i druntime-ldc:proxy.obj
 0001:00029420       _gc_init                   0042a420 f i druntime-ldc:proxy.obj
 0001:00029530       _gc_term                   0042a530 f i druntime-ldc:proxy.obj
 0001:00029570       __d_critical_init          0042a570 f i druntime-ldc:critical_.obj
 0001:00029590       __d_critical_term          0042a590 f i druntime-ldc:critical_.obj
 0001:000295e0       __D2rt6memory16initStaticDataGCFZv 0042a5e0 f i druntime-ldc:memory.obj
 0001:000295f0       __D2rt6memory16initStaticDataGCFZ14__foreachbody1MFKS2rt12sections_ldc12SectionGroupZi 0042a5f0 f i druntime-ldc:memory.obj
 0001:00029650       __D4core7runtime12_staticCtor1FZv 0042a650 f i druntime-ldc:runtime.obj
 0001:00029660       __D4core7runtime19defaultTraceHandlerFPvZC6object9Throwable9TraceInfo 0042a660 f i druntime-ldc:runtime.obj
 0001:000296c0       _runModuleUnitTests        0042a6c0 f i druntime-ldc:runtime.obj
 0001:000296f0       __D4core7runtime18runModuleUnitTestsUZ14__foreachbody1MFPS6object10ModuleInfoZi 0042a6f0 f i druntime-ldc:runtime.obj
 0001:000297e0       __D4core5cpuid18getcacheinfoCPUID2FNbNiNeZv 0042a7e0 f i druntime-ldc:cpuid.obj
 0001:000299a0       __D4core5cpuid18getcacheinfoCPUID2FNbNiNeZ14decipherCpuid2MFNbNihZv 0042a9a0 f i druntime-ldc:cpuid.obj
 0001:00029b70       __D4core5cpuid18getcacheinfoCPUID4FNbNiNeZv 0042ab70 f i druntime-ldc:cpuid.obj
 0001:00029ce0       __D4core5cpuid15getAMDcacheinfoFNbNiNeZv 0042ace0 f i druntime-ldc:cpuid.obj
 0001:00029de0       __D4core5cpuid12getCpuInfo0BFNbNiNeZv 0042ade0 f i druntime-ldc:cpuid.obj
 0001:00029e70       __D4core5cpuid8cpuidX86FNbNiNeZv 0042ae70 f i druntime-ldc:cpuid.obj
 0001:0002a250       __D4core5cpuid8hasCPUIDFNbNiNeZb 0042b250 f i druntime-ldc:cpuid.obj
 0001:0002a280       __D4core5cpuid18_sharedStaticCtor1FNbNiNeZv 0042b280 f i druntime-ldc:cpuid.obj
 0001:0002a750       __D4core4sync9exception9SyncError6__ctorMFNaNbNfAyaAyakC6object9ThrowableZC4core4sync9exception9SyncError 0042b750 f i druntime-ldc:exception.obj
 0001:0002a7a0       __D4core4sync9semaphore9Semaphore6__dtorMFZv 0042b7a0 f i druntime-ldc:semaphore.obj
 0001:0002a7b0       __D4core4sync9semaphore9Semaphore4waitMFZv 0042b7b0 f i druntime-ldc:semaphore.obj
 0001:0002a830       __D4core4sync9semaphore9Semaphore4waitMFS4core4time8DurationZb 0042b830 f i druntime-ldc:semaphore.obj
 0001:0002a9d0       __D4core4sync9semaphore9Semaphore6notifyMFZv 0042b9d0 f i druntime-ldc:semaphore.obj
 0001:0002aa50       __D4core4sync9semaphore9Semaphore7tryWaitMFZb 0042ba50 f i druntime-ldc:semaphore.obj
 0001:0002ab00       __D4core3sys7windows9threadaux10thread_aux6getTEBFNbZPPv 0042bb00 f   druntime-ldc:threadaux.obj
 0001:0002ab10       _GetTlsEntryAdr            0042bb10 f i druntime-ldc:threadaux.obj
 0001:0002ab50       __D4core8internal5abort5abortFNbNiNfAyaAyakZv 0042bb50 f i druntime-ldc:abort.obj
 0001:0002ac20       __D4core8internal5abort5abortFNbNiNfAyaAyakZ8writeStrMFNbNiNeAAxaXv 0042bc20 f i druntime-ldc:abort.obj
 0001:0002ac80       __D2gc2gc2GC10initializeMFZv 0042bc80 f i druntime-ldc:gc.obj
 0001:0002ad40       __D2gc2gc2GC4DtorMFZv      0042bd40 f i druntime-ldc:gc.obj
 0001:0002ad70       __D2gc2gc3Gcx4DtorMFZv     0042bd70 f i druntime-ldc:gc.obj
 0001:0002b0b0       __D2gc2gc2GC6enableMFZv    0042c0b0 f i druntime-ldc:gc.obj
 0001:0002b190       __D2gc2gc2GC7disableMFZv   0042c190 f i druntime-ldc:gc.obj
 0001:0002b270       __D2gc2gc2GC7getAttrMFNbPvZk 0042c270 f i druntime-ldc:gc.obj
 0001:0002b2a0       __D2gc2gc4Pool7getBitsMFNbkZk 0042c2a0 f i druntime-ldc:gc.obj
 0001:0002b330       __D2gc2gc2GC125__T9runLockedS48_D2gc2gc2GC7getAttrMFNbPvZ2goFNbPS2gc2gc3GcxPvZkS19_D2gc2gc9otherTimelS19_D2gc2gc9numOtherslTPS2gc2gc3GcxTPvZ9runLockedMFNbKPS2gc2gc3GcxKPvZk 0042c330 f i druntime-ldc:gc.obj
 0001:0002b4b0       __D2gc2gc2GC7setAttrMFNbPvkZk 0042c4b0 f i druntime-ldc:gc.obj
 0001:0002b4f0       __D2gc2gc4Pool7setBitsMFNbkkZv 0042c4f0 f i druntime-ldc:gc.obj
 0001:0002b590       __D2gc2gc2GC129__T9runLockedS50_D2gc2gc2GC7setAttrMFNbPvkZ2goFNbPS2gc2gc3GcxPvkZkS19_D2gc2gc9otherTimelS19_D2gc2gc9numOtherslTPS2gc2gc3GcxTPvTkZ9runLockedMFNbKPS2gc2gc3GcxKPvKkZk 0042c590 f i druntime-ldc:gc.obj
 0001:0002b730       __D2gc2gc2GC7clrAttrMFNbPvkZk 0042c730 f i druntime-ldc:gc.obj
 0001:0002b770       __D2gc2gc2GC7clrAttrMFNbPvkZ2goFNbPS2gc2gc3GcxPvkZk 0042c770 f i druntime-ldc:gc.obj
 0001:0002b870       __D2gc2gc2GC129__T9runLockedS50_D2gc2gc2GC7clrAttrMFNbPvkZ2goFNbPS2gc2gc3GcxPvkZkS19_D2gc2gc9otherTimelS19_D2gc2gc9numOtherslTPS2gc2gc3GcxTPvTkZ9runLockedMFNbKPS2gc2gc3GcxKPvKkZk 0042c870 f i druntime-ldc:gc.obj
 0001:0002b960       __D2gc2gc2GC6mallocMFNbkkPkxC8TypeInfoZPv 0042c960 f i druntime-ldc:gc.obj
 0001:0002b9e0       __D2gc2gc2GC130__T9runLockedS47_D2gc2gc2GC12mallocNoSyncMFNbkkKkxC8TypeInfoZPvS21_D2gc2gc10mallocTimelS21_D2gc2gc10numMallocslTkTkTkTxC8TypeInfoZ9runLockedMFNbKkKkKkKxC8TypeInfoZPv 0042c9e0 f i druntime-ldc:gc.obj
 0001:0002bb20       __D2gc2gc2GC6callocMFNbkkPkxC8TypeInfoZPv 0042cb20 f i druntime-ldc:gc.obj
 0001:0002bbb0       __D2gc2gc2GC7reallocMFNbPvkkPkxC8TypeInfoZPv 0042cbb0 f i druntime-ldc:gc.obj
 0001:0002bc40       __D2gc2gc2GC137__T9runLockedS51_D2gc2gc2GC13reallocNoSyncMFNbPvkKkKkxC8TypeInfoZPvS21_D2gc2gc10mallocTimelS21_D2gc2gc10numMallocslTPvTkTkTkTxC8TypeInfoZ9runLockedMFNbKPvKkKkKkKxC8TypeInfoZPv 0042cc40 f i druntime-ldc:gc.obj
 0001:0002bd50       __D2gc2gc2GC13reallocNoSyncMFNbPvkKkKkxC8TypeInfoZPv 0042cd50 f i druntime-ldc:gc.obj
 0001:0002c150       __D2gc2gc2GC10freeNoSyncMFNbPvZv 0042d150 f i druntime-ldc:gc.obj
 0001:0002c2c0       __D2gc2gc2GC6extendMFNbPvkkxC8TypeInfoZk 0042d2c0 f i druntime-ldc:gc.obj
 0001:0002c310       __D2gc2gc2GC130__T9runLockedS46_D2gc2gc2GC12extendNoSyncMFNbPvkkxC8TypeInfoZkS21_D2gc2gc10extendTimelS21_D2gc2gc10numExtendslTPvTkTkTxC8TypeInfoZ9runLockedMFNbKPvKkKkKxC8TypeInfoZk 0042d310 f i druntime-ldc:gc.obj
 0001:0002c410       __D2gc2gc2GC12extendNoSyncMFNbPvkkxC8TypeInfoZk 0042d410 f i druntime-ldc:gc.obj
 0001:0002c5c0       __D2gc2gc2GC7reserveMFNbkZk 0042d5c0 f i druntime-ldc:gc.obj
 0001:0002c5e0       __D2gc2gc2GC96__T9runLockedS33_D2gc2gc2GC13reserveNoSyncMFNbkZkS19_D2gc2gc9otherTimelS19_D2gc2gc9numOtherslTkZ9runLockedMFNbKkZk 0042d5e0 f i druntime-ldc:gc.obj
 0001:0002c6e0       __D2gc2gc2GC4freeMFNbPvZv  0042d6e0 f i druntime-ldc:gc.obj
 0001:0002c720       __D2gc2gc2GC93__T9runLockedS31_D2gc2gc2GC10freeNoSyncMFNbPvZvS18_D2gc2gc8freeTimelS18_D2gc2gc8numFreeslTPvZ9runLockedMFNbKPvZv 0042d720 f i druntime-ldc:gc.obj
 0001:0002c800       __D2gc2gc2GC6addrOfMFNbPvZPv 0042d800 f i druntime-ldc:gc.obj
 0001:0002c820       __D2gc2gc2GC98__T9runLockedS34_D2gc2gc2GC12addrOfNoSyncMFNbPvZPvS19_D2gc2gc9otherTimelS19_D2gc2gc9numOtherslTPvZ9runLockedMFNbKPvZPv 0042d820 f i druntime-ldc:gc.obj
 0001:0002c9d0       __D2gc2gc2GC6sizeOfMFNbPvZk 0042d9d0 f i druntime-ldc:gc.obj
 0001:0002c9f0       __D2gc2gc2GC97__T9runLockedS33_D2gc2gc2GC12sizeOfNoSyncMFNbPvZkS19_D2gc2gc9otherTimelS19_D2gc2gc9numOtherslTPvZ9runLockedMFNbKPvZk 0042d9f0 f i druntime-ldc:gc.obj
 0001:0002cba0       __D2gc2gc2GC5queryMFNbPvZS4core6memory8BlkInfo_ 0042dba0 f i druntime-ldc:gc.obj
 0001:0002cbe0       __D2gc2gc2GC117__T9runLockedS53_D2gc2gc2GC11queryNoSyncMFNbPvZS4core6memory8BlkInfo_S19_D2gc2gc9otherTimelS19_D2gc2gc9numOtherslTPvZ9runLockedMFNbKPvZS4core6memory8BlkInfo_ 0042dbe0 f i druntime-ldc:gc.obj
 0001:0002ccc0       __D2gc2gc3Gcx7getInfoMFNbPvZS4core6memory8BlkInfo_ 0042dcc0 f i druntime-ldc:gc.obj
 0001:0002cdd0       __D2gc2gc2GC7addRootMFNbPvZv 0042ddd0 f i druntime-ldc:gc.obj
 0001:0002cec0       __D2gc2gc2GC10removeRootMFNbPvZv 0042dec0 f i druntime-ldc:gc.obj
 0001:0002cee0       __D2gc2gc3Gcx10removeRootMFNbPvZv 0042dee0 f i druntime-ldc:gc.obj
 0001:0002d020       __D2gc2gc2GC8addRangeMFNbNiPvkxC8TypeInfoZv 0042e020 f i druntime-ldc:gc.obj
 0001:0002d120       __D2gc2gc2GC11removeRangeMFNbNiPvZv 0042e120 f i druntime-ldc:gc.obj
 0001:0002d200       __D2gc2gc2GC13runFinalizersMFNbxAvZv 0042e200 f i druntime-ldc:gc.obj
 0001:0002d230       __D2gc2gc2GC135__T9runLockedS57_D2gc2gc2GC13runFinalizersMFNbxAvZ2goFNbPS2gc2gc3GcxxAvZvS19_D2gc2gc9otherTimelS19_D2gc2gc9numOtherslTPS2gc2gc3GcxTxAvZ9runLockedMFNbKPS2gc2gc3GcxKxAvZv 0042e230 f i druntime-ldc:gc.obj
 0001:0002d400       __D2gc2gc2GC11fullCollectMFNbZk 0042e400 f i druntime-ldc:gc.obj
 0001:0002d410       __D2gc2gc3Gcx11fullcollectMFNbbZk 0042e410 f i druntime-ldc:gc.obj
 0001:0002d8f0       __D2gc2gc2GC79__T9runLockedS49_D2gc2gc2GC11fullCollectMFNbZ2goFNbPS2gc2gc3GcxZkTPS2gc2gc3GcxZ9runLockedMFNbKPS2gc2gc3GcxZk 0042e8f0 f i druntime-ldc:gc.obj
 0001:0002d9d0       __D2gc2gc2GC18fullCollectNoStackMFNbZv 0042e9d0 f i druntime-ldc:gc.obj
 0001:0002d9e0       __D2gc2gc2GC86__T9runLockedS56_D2gc2gc2GC18fullCollectNoStackMFNbZ2goFNbPS2gc2gc3GcxZkTPS2gc2gc3GcxZ9runLockedMFNbKPS2gc2gc3GcxZk 0042e9e0 f i druntime-ldc:gc.obj
 0001:0002dac0       __D2gc2gc2GC8minimizeMFNbZv 0042eac0 f i druntime-ldc:gc.obj
 0001:0002dad0       __D2gc2gc3Gcx8minimizeMFNbZv 0042ead0 f i druntime-ldc:gc.obj
 0001:0002dbf0       __D2gc2gc2GC119__T9runLockedS45_D2gc2gc2GC8minimizeMFNbZ2goFNbPS2gc2gc3GcxZvS19_D2gc2gc9otherTimelS19_D2gc2gc9numOtherslTPS2gc2gc3GcxZ9runLockedMFNbKPS2gc2gc3GcxZv 0042ebf0 f i druntime-ldc:gc.obj
 0001:0002dcd0       __D2gc2gc4Pool4DtorMFNbZv  0042ecd0 f i druntime-ldc:gc.obj
 0001:0002dd70       __D2gc2gc15LargeObjectPool13runFinalizersMFNbxAvZv 0042ed70 f i druntime-ldc:gc.obj
 0001:0002ded0       __D2gc2gc15SmallObjectPool13runFinalizersMFNbxAvZv 0042eed0 f i druntime-ldc:gc.obj
 0001:0002e050       __D2gc2gc3Gcx7newPoolMFNbkbZPS2gc2gc4Pool 0042f050 f i druntime-ldc:gc.obj
 0001:0002e1c0       __D2gc2gc3Gcx10smallAllocMFNbhKkkZPv 0042f1c0 f i druntime-ldc:gc.obj
 0001:0002e2e0       __D2gc2gc3Gcx8bigAllocMFNbkKkkxC8TypeInfoZPv 0042f2e0 f i druntime-ldc:gc.obj
 0001:0002e4e0       __D2gc2gc3Gcx10smallAllocMFNbhKkkZ8tryAllocMFNbZb 0042f4e0 f i druntime-ldc:gc.obj
 0001:0002e630       __D2gc2gc15LargeObjectPool10allocPagesMFNbkZk 0042f630 f i druntime-ldc:gc.obj
 0001:0002e780       __D2gc2gc4Pool10initializeMFNbkbZv 0042f780 f i druntime-ldc:gc.obj
 0001:0002e850       __D2gc2gc3Gcx4markMFNbPvPvZv 0042f850 f i druntime-ldc:gc.obj
 0001:0002ed00       __D2gc2gc3Gcx7prepareMFNbZv 0042fd00 f i druntime-ldc:gc.obj
 0001:0002ef00       __D2gc2gc3Gcx7markAllMFNbbZ14__foreachbody2MFNbKS2gc2gc4RootZi 0042ff00 f i druntime-ldc:gc.obj
 0001:0002ef20       __D2gc2gc3Gcx7markAllMFNbbZ14__foreachbody3MFNbKS2gc2gc5RangeZi 0042ff20 f i druntime-ldc:gc.obj
 0001:0002ef40       __D2gc2gc3Gcx5sweepMFNbZk  0042ff40 f i druntime-ldc:gc.obj
 0001:0002f210       __D2gc2gc4Pool12freePageBitsMFNbkKxG8kZv 00430210 f i druntime-ldc:gc.obj
 0001:0002f470       __D2gc2gc3Gcx7recoverMFNbZk 00430470 f i druntime-ldc:gc.obj
 0001:0002f6c0       __D2gc2gc3Gcx8isMarkedMFNbPvZi 004306c0 f i druntime-ldc:gc.obj
 0001:0002f790       __D2rt4util9container5treap23__T5TreapTS2gc2gc4RootZ5Treap6insertMFNbNiPS2rt4util9container5treap23__T5TreapTS2gc2gc4RootZ5Treap4NodeS2gc2gc4RootZPS2rt4util9container5treap23__T5TreapTS2gc2gc4RootZ5Treap4Node 00430790 f i druntime-ldc:gc.obj
 0001:0002f840       __D2rt4util9container5treap24__T5TreapTS2gc2gc5RangeZ5Treap7opApplyMFNbMDFNbKS2gc2gc5RangeZiZ9__lambda2MFNbKxS2gc2gc5RangeZi 00430840 f i druntime-ldc:gc.obj
 0001:0002f840       __D2rt4util9container5treap23__T5TreapTS2gc2gc4RootZ5Treap7opApplyMFNbMDFNbKS2gc2gc4RootZiZ9__lambda2MFNbKxS2gc2gc4RootZi 00430840 f i druntime-ldc:gc.obj
 0001:0002f840       __D6object10ModuleInfo7opApplyFMDFPS6object10ModuleInfoZiZ9__lambda2MFyPS6object10ModuleInfoZi 00430840 f i druntime-ldc:object.obj
 0001:0002f850       __D2rt4util9container5treap24__T5TreapTS2gc2gc5RangeZ5Treap13opApplyHelperFNbxPS2rt4util9container5treap24__T5TreapTS2gc2gc5RangeZ5Treap4NodeMDFNbKxS2gc2gc5RangeZiZi 00430850 f i druntime-ldc:gc.obj
 0001:0002f850       __D2rt4util9container5treap23__T5TreapTS2gc2gc4RootZ5Treap13opApplyHelperFNbxPS2rt4util9container5treap23__T5TreapTS2gc2gc4RootZ5Treap4NodeMDFNbKxS2gc2gc4RootZiZi 00430850 f i druntime-ldc:gc.obj
 0001:0002f8a0       __D2rt4util9container5treap23__T5TreapTS2gc2gc4RootZ5Treap9removeAllFNbNiPS2rt4util9container5treap23__T5TreapTS2gc2gc4RootZ5Treap4NodeZv 004308a0 f i druntime-ldc:gc.obj
 0001:0002f8a0       __D2rt4util9container5treap24__T5TreapTS2gc2gc5RangeZ5Treap9removeAllFNbNiPS2rt4util9container5treap24__T5TreapTS2gc2gc5RangeZ5Treap4NodeZv 004308a0 f i druntime-ldc:gc.obj
 0001:0002f8d0       __D2rt4util9container5treap24__T5TreapTS2gc2gc5RangeZ5Treap6insertMFNbNiPS2rt4util9container5treap24__T5TreapTS2gc2gc5RangeZ5Treap4NodeS2gc2gc5RangeZPS2rt4util9container5treap24__T5TreapTS2gc2gc5RangeZ5Treap4Node 004308d0 f i druntime-ldc:gc.obj
 0001:0002f990       __D2rt4util9container5treap24__T5TreapTS2gc2gc5RangeZ5Treap6removeFNbNiPPS2rt4util9container5treap24__T5TreapTS2gc2gc5RangeZ5Treap4NodeS2gc2gc5RangeZv 00430990 f i druntime-ldc:gc.obj
 0001:0002fbc0       __D4core3sys7windows10stacktrace10StackTrace6__ctorMFkPS4core3sys7windows5winnt7CONTEXTZC4core3sys7windows10stacktrace10StackTrace 00430bc0 f i druntime-ldc:stacktrace.obj
 0001:0002fc90       __D4core3sys7windows10stacktrace10StackTrace7opApplyMxFMDFKxAaZiZi 00430c90 f i druntime-ldc:stacktrace.obj
 0001:0002fcc0       __D4core3sys7windows10stacktrace10StackTrace7opApplyMxFMDFKkKxAaZiZi 00430cc0 f i druntime-ldc:stacktrace.obj
 0001:0002fda0       __D4core3sys7windows10stacktrace10StackTrace7opApplyMxFMDFKxAaZiZ16__T9__lambda2TkZ9__lambda2MFKkKxAaZi 00430da0 f i druntime-ldc:stacktrace.obj
 0001:0002fdb0       __D4core3sys7windows10stacktrace10StackTrace8toStringMxFZAya 00430db0 f i druntime-ldc:stacktrace.obj
 0001:0002fde0       __D4core3sys7windows10stacktrace10StackTrace8toStringMxFZ14__foreachbody1MFKxAaZi 00430de0 f i druntime-ldc:stacktrace.obj
 0001:0002fe20       __D4core3sys7windows10stacktrace10StackTrace11traceNoSyncFkPS4core3sys7windows5winnt7CONTEXTZAm 00430e20 f i druntime-ldc:stacktrace.obj
 0001:000300a0       __D4core3sys7windows10stacktrace10StackTrace13resolveNoSyncFAxmZAAa 004310a0 f i druntime-ldc:stacktrace.obj
 0001:00030280       __D4core3sys7windows10stacktrace10StackTrace16formatStackFrameFPvPaxPakZAa 00431280 f i druntime-ldc:stacktrace.obj
 0001:00030350       __D4core3sys7windows10stacktrace10StackTrace16formatStackFrameFPvPaZAa 00431350 f i druntime-ldc:stacktrace.obj
 0001:00030460       __DThn8_4core3sys7windows10stacktrace10StackTrace7opApplyMxFMDFKxAaZiZi@12 00431460 f i druntime-ldc:stacktrace.obj
 0001:00030490       __DThn8_4core3sys7windows10stacktrace10StackTrace7opApplyMxFMDFKkKxAaZiZi@12 00431490 f i druntime-ldc:stacktrace.obj
 0001:000304b0       __DThn8_4core3sys7windows10stacktrace10StackTrace8toStringMxFZAya@4 004314b0 f i druntime-ldc:stacktrace.obj
 0001:000304e0       _FixupDebugHeader@24       004314e0 f i druntime-ldc:stacktrace.obj
 0001:000305a0       __D4core3sys7windows10stacktrace18generateSearchPathFZAya 004315a0 f i druntime-ldc:stacktrace.obj
 0001:000306d0       __D4core3sys7windows10stacktrace18_sharedStaticCtor2FZv 004316d0 f i druntime-ldc:stacktrace.obj
 0001:00030780       __D4core8internal8spinlock8SpinLock4lockMOFNbNiNeZv 00431780 f i druntime-ldc:spinlock.obj
 0001:00030830       __D4core8internal8spinlock8SpinLock6unlockMOFNbNiNeZv 00431830 f i druntime-ldc:spinlock.obj
 0001:00030840       __D4core8internal8spinlock8SpinLock5pauseMOFNbNiNeZv 00431840 f i druntime-ldc:spinlock.obj
 0001:00030870       __D2gc6config6Config10initializeMFNbNiZb 00431870 f i druntime-ldc:config.obj
 0001:000308a0       __D2gc6config6Config10initializeMFNbNiZ5parseMFNbNiAyaZAya 004318a0 f i druntime-ldc:config.obj
 0001:000308d0       __D2gc6config6Config12parseOptionsMFNbNiAxaZb 004318d0 f i druntime-ldc:config.obj
 0001:00030fa0       __D2rt4util6random6Rand4811defaultSeedMFNbZv 00431fa0 f i druntime-ldc:random.obj
 0001:00030ff0       __D2rt4util6random6Rand486opCallMFNbNiZk 00431ff0 f i druntime-ldc:random.obj
 0001:00031050       __D2gc2os10os_mem_mapFNbkZPv 00432050 f i druntime-ldc:os.obj
 0001:00031060       __D2gc2os12os_mem_unmapFNbPvkZi 00432060 f i druntime-ldc:os.obj
 0001:00031080       __D2gc2os10isLowOnMemFNbNikZb 00432080 f i druntime-ldc:os.obj
 0001:000310e0       __D2gc4bits6GCBits4DtorMFNbZv 004320e0 f i druntime-ldc:bits.obj
 0001:00031100       __D2gc4bits6GCBits5allocMFNbkZv 00432100 f i druntime-ldc:bits.obj
 0001:00031130       __D2gc4bits6GCBits4testMxFNbkZk 00432130 f i druntime-ldc:bits.obj
 0001:00031140       __D2gc4bits6GCBits3setMFNbkZi 00432140 f i druntime-ldc:bits.obj
 0001:00031180       __D2gc4bits6GCBits5clearMFNbkZi 00432180 f i druntime-ldc:bits.obj
 0001:000311c0       __D2gc4bits6GCBits4zeroMFNbZv 004321c0 f i druntime-ldc:bits.obj
 0001:000311e0       __D2gc4bits6GCBits4copyMFNbPS2gc4bits6GCBitsZv 004321e0 f i druntime-ldc:bits.obj
 0001:00031230       __D4core3sys7windows7dbghelp7DbgHelp3getFZPS4core3sys7windows7dbghelp7DbgHelp 00432230 f i druntime-ldc:dbghelp.obj
 0001:000313a0       __D4core3sys7windows7dbghelp7DbgHelp18_sharedStaticDtor1FZv 004323a0 f i druntime-ldc:dbghelp.obj
 0001:000313d0       __D4core8demangle8Demangle5errorFAyaZv 004323d0 f i druntime-ldc:demangle.obj
 0001:000313f0       __D4core8demangle8Demangle8overflowFAyaZv 004323f0 f i druntime-ldc:demangle.obj
 0001:00031410       __D4core8demangle8Demangle8putCommaMFkZv 00432410 f i druntime-ldc:demangle.obj
 0001:00031430       __D4core8demangle8Demangle3putMFAxaZAa 00432430 f i druntime-ldc:demangle.obj
 0001:00031540       __D4core8demangle8Demangle12decodeNumberMFZk 00432540 f i druntime-ldc:demangle.obj
 0001:000315e0       __D4core8demangle8Demangle9parseRealMFZv 004325e0 f i druntime-ldc:demangle.obj
 0001:000318d0       __D4core8demangle8Demangle10parseLNameMFZv 004328d0 f i druntime-ldc:demangle.obj
 0001:000319a0       __D4core8demangle8Demangle9parseTypeMFAaZAa 004329a0 f i druntime-ldc:demangle.obj
 0001:00032200       __D4core8demangle8Demangle17parseTypeFunctionMFAaE4core8demangle8Demangle10IsDelegateZAa 00433200 f i druntime-ldc:demangle.obj
 0001:00032620       __D4core8demangle8Demangle18parseQualifiedNameMFZAa 00433620 f i druntime-ldc:demangle.obj
 0001:00032760       __D4core8demangle8Demangle19parseCallConventionMFZv 00433760 f i druntime-ldc:demangle.obj
 0001:000327d0       __D4core8demangle8Demangle13parseFuncAttrMFZv 004337d0 f i druntime-ldc:demangle.obj
 0001:00032900       __D4core8demangle8Demangle18parseFuncArgumentsMFZv 00433900 f i druntime-ldc:demangle.obj
 0001:00032a80       __D4core8demangle8Demangle10parseValueMFAaaZv 00433a80 f i druntime-ldc:demangle.obj
 0001:00032eb0       __D4core8demangle8Demangle17parseIntegerValueMFAaaZv 00433eb0 f i druntime-ldc:demangle.obj
 0001:00033300       __D4core8demangle8Demangle17parseTemplateArgsMFZv 00434300 f i druntime-ldc:demangle.obj
 0001:00033560       __D4core8demangle8Demangle16parseMangledNameMFkZv 00434560 f i druntime-ldc:demangle.obj
 0001:00033690       __D4core8demangle8Demangle25parseTemplateInstanceNameMFZv 00434690 f i druntime-ldc:demangle.obj
 0001:00033830       __D4core8demangle8Demangle15parseSymbolNameMFZv 00434830 f i druntime-ldc:demangle.obj
 0001:000339b0       __D4core8demangle8Demangle67__T10doDemangleS48_D4core8demangle8Demangle16parseMangledNameMFkZvZ10doDemangleMFZAa 004349b0 f i druntime-ldc:demangle.obj
 0001:00033b10       __D4core8demangle8demangleFAxaAaZAa 00434b10 f i druntime-ldc:demangle.obj
 0001:00033bf0       __D4core10checkedint4adduFNaNbNiNfkkKbZk 00434bf0 f i druntime-ldc:checkedint.obj
 0001:00033c10       __D4core10checkedint4muluFNaNbNiNfkkKbZk 00434c10 f i druntime-ldc:checkedint.obj
 0001:00033c50       _DownloadFile              00434c50 f   PatcherLib:PatcherLib.dll
 0001:00033c60       _init_msvc                 00434c60 f   druntime-ldc:msvc.c.obj
 0001:00033cd0       _getErrno                  00434cd0 f   druntime-ldc:errno.c.obj
 0001:00033cf0       _fix_tlsAlignment@12       00434cf0 f   druntime-ldc:msvc.c.obj
 0001:00033e88       _GetLastError@0            00434e88 f   kernel32:KERNEL32.dll
 0001:00033e8e       _GetTimeZoneInformation@4  00434e8e f   kernel32:KERNEL32.dll
 0001:00033e94       _SystemTimeToTzSpecificLocalTime@12 00434e94 f   kernel32:KERNEL32.dll
 0001:00033e9a       _TzSpecificLocalTimeToSystemTime@12 00434e9a f   kernel32:KERNEL32.dll
 0001:00033ea0       _CloseHandle@4             00434ea0 f   kernel32:KERNEL32.dll
 0001:00033ea6       _WriteFile@20              00434ea6 f   kernel32:KERNEL32.dll
 0001:00033eac       _FormatMessageW@28         00434eac f   kernel32:KERNEL32.dll
 0001:00033eb2       _LocalFree@4               00434eb2 f   kernel32:KERNEL32.dll
 0001:00033eb8       _GetModuleHandleA@4        00434eb8 f   kernel32:KERNEL32.dll
 0001:00033ebe       _GetProcAddress@8          00434ebe f   kernel32:KERNEL32.dll
 0001:00033ec4       _lstrlenW@4                00434ec4 f   kernel32:KERNEL32.dll
 0001:00033eca       _ExpandEnvironmentStringsW@12 00434eca f   kernel32:KERNEL32.dll
 0001:00033ed0       _GetStdHandle@4            00434ed0 f   kernel32:KERNEL32.dll
 0001:00033ed6       _WaitForSingleObject@8     00434ed6 f   kernel32:KERNEL32.dll
 0001:00033edc       _GetCurrentThreadId@0      00434edc f   kernel32:KERNEL32.dll
 0001:00033ee2       _GetCurrentProcess@0       00434ee2 f   kernel32:KERNEL32.dll
 0001:00033ee8       _LoadLibraryA@4            00434ee8 f   kernel32:KERNEL32.dll
 0001:00033eee       _FreeLibrary@4             00434eee f   kernel32:KERNEL32.dll
 0001:00033ef4       _RaiseException@16         00434ef4 f   kernel32:KERNEL32.dll
 0001:00033efa       _LoadLibraryW@4            00434efa f   kernel32:KERNEL32.dll
 0001:00033f00       _MultiByteToWideChar@24    00434f00 f   kernel32:KERNEL32.dll
 0001:00033f06       _GetCommandLineW@0         00434f06 f   kernel32:KERNEL32.dll
 0001:00033f0c       _WideCharToMultiByte@32    00434f0c f   kernel32:KERNEL32.dll
 0001:00033f12       _IsDebuggerPresent@0       00434f12 f   kernel32:KERNEL32.dll
 0001:00033f18       _InitializeCriticalSection@4 00434f18 f   kernel32:KERNEL32.dll
 0001:00033f1e       _DeleteCriticalSection@4   00434f1e f   kernel32:KERNEL32.dll
 0001:00033f24       _EnterCriticalSection@4    00434f24 f   kernel32:KERNEL32.dll
 0001:00033f2a       _LeaveCriticalSection@4    00434f2a f   kernel32:KERNEL32.dll
 0001:00033f30       _TryEnterCriticalSection@4 00434f30 f   kernel32:KERNEL32.dll
 0001:00033f36       _CreateSemaphoreA@16       00434f36 f   kernel32:KERNEL32.dll
 0001:00033f3c       _ReleaseSemaphore@12       00434f3c f   kernel32:KERNEL32.dll
 0001:00033f42       _GetCurrentThread@0        00434f42 f   kernel32:KERNEL32.dll
 0001:00033f48       _DuplicateHandle@28        00434f48 f   kernel32:KERNEL32.dll
 0001:00033f4e       _ResumeThread@4            00434f4e f   kernel32:KERNEL32.dll
 0001:00033f54       _GetExitCodeThread@8       00434f54 f   kernel32:KERNEL32.dll
 0001:00033f5a       _Sleep@4                   00434f5a f   kernel32:KERNEL32.dll
 0001:00033f60       _SwitchToThread@0          00434f60 f   kernel32:KERNEL32.dll
 0001:00033f66       _SuspendThread@4           00434f66 f   kernel32:KERNEL32.dll
 0001:00033f6c       _GetThreadContext@8        00434f6c f   kernel32:KERNEL32.dll
 0001:00033f72       _GetSystemInfo@4           00434f72 f   kernel32:KERNEL32.dll
 0001:00033f78       _VirtualAlloc@16           00434f78 f   kernel32:KERNEL32.dll
 0001:00033f7e       _VirtualFree@12            00434f7e f   kernel32:KERNEL32.dll
 0001:00033f84       _QueryPerformanceCounter@4 00434f84 f   kernel32:KERNEL32.dll
 0001:00033f8a       _QueryPerformanceFrequency@4 00434f8a f   kernel32:KERNEL32.dll
 0001:00033f90       _RtlCaptureContext@4       00434f90 f   kernel32:KERNEL32.dll
 0001:00033f96       _GetEnvironmentVariableA@12 00434f96 f   kernel32:KERNEL32.dll
 0001:00033f9c       _GlobalMemoryStatus@4      00434f9c f   kernel32:KERNEL32.dll
 0001:00033fa2       _CommandLineToArgvW@8      00434fa2 f   shell32:SHELL32.dll
 0001:00033fa8       _RegCloseKey@4             00434fa8 f   advapi32:ADVAPI32.dll
 0001:00033fae       _RegFlushKey@4             00434fae f   advapi32:ADVAPI32.dll
 0001:00033fb4       _RegCreateKeyExW@36        00434fb4 f   advapi32:ADVAPI32.dll
 0001:00033fba       _RegDeleteKeyW@8           00434fba f   advapi32:ADVAPI32.dll
 0001:00033fc0       _RegDeleteValueW@8         00434fc0 f   advapi32:ADVAPI32.dll
 0001:00033fc6       _RegOpenKeyW@12            00434fc6 f   advapi32:ADVAPI32.dll
 0001:00033fcc       _RegEnumKeyExW@32          00434fcc f   advapi32:ADVAPI32.dll
 0001:00033fd2       _RegEnumValueW@32          00434fd2 f   advapi32:ADVAPI32.dll
 0001:00033fd8       _RegQueryInfoKeyW@48       00434fd8 f   advapi32:ADVAPI32.dll
 0001:00033fde       _RegQueryValueExW@24       00434fde f   advapi32:ADVAPI32.dll
 0001:00033fe4       _RegOpenKeyExW@20          00434fe4 f   advapi32:ADVAPI32.dll
 0001:00033fea       _RegSetValueExW@24         00434fea f   advapi32:ADVAPI32.dll
 0001:00033ff0       _WSAGetLastError@0         00434ff0 f   ws2_32:WS2_32.dll
 0001:00033ff6       _WSAStartup@8              00434ff6 f   ws2_32:WS2_32.dll
 0001:00033ffe       _WSACleanup@0              00434ffe f   ws2_32:WS2_32.dll
 0001:00034004       _getprotobyname@4          00435004 f   ws2_32:WS2_32.dll
 0001:0003400a       _getprotobynumber@4        0043500a f   ws2_32:WS2_32.dll
 0001:00034010       _getservbyname@8           00435010 f   ws2_32:WS2_32.dll
 0001:00034016       _getservbyport@8           00435016 f   ws2_32:WS2_32.dll
 0001:0003401c       _gethostbyname@4           0043501c f   ws2_32:WS2_32.dll
 0001:00034022       _gethostbyaddr@12          00435022 f   ws2_32:WS2_32.dll
 0001:00034028       _inet_addr@4               00435028 f   ws2_32:WS2_32.dll
 0001:0003402e       _inet_ntoa@4               0043502e f   ws2_32:WS2_32.dll
 0001:00034034       _socket@12                 00435034 f   ws2_32:WS2_32.dll
 0001:0003403a       _closesocket@4             0043503a f   ws2_32:WS2_32.dll
 0001:00034040       _ioctlsocket@12            00435040 f   ws2_32:WS2_32.dll
 0001:00034046       _getsockopt@20             00435046 f   ws2_32:WS2_32.dll
 0001:0003404c       _bind@12                   0043504c f   ws2_32:WS2_32.dll
 0001:00034052       _connect@12                00435052 f   ws2_32:WS2_32.dll
 0001:00034058       _listen@8                  00435058 f   ws2_32:WS2_32.dll
 0001:0003405e       _accept@12                 0043505e f   ws2_32:WS2_32.dll
 0001:00034064       _shutdown@8                00435064 f   ws2_32:WS2_32.dll
 0001:0003406a       _getpeername@12            0043506a f   ws2_32:WS2_32.dll
 0001:00034070       _getsockname@12            00435070 f   ws2_32:WS2_32.dll
 0001:00034076       _send@16                   00435076 f   ws2_32:WS2_32.dll
 0001:0003407c       _sendto@24                 0043507c f   ws2_32:WS2_32.dll
 0001:00034082       _recv@16                   00435082 f   ws2_32:WS2_32.dll
 0001:00034088       _recvfrom@24               00435088 f   ws2_32:WS2_32.dll
 0001:0003408e       _setsockopt@20             0043508e f   ws2_32:WS2_32.dll
 0001:00034094       _WSAIoctl@36               00435094 f   ws2_32:WS2_32.dll
 0001:0003409a       __vsscanf_l                0043509a f i legacy_stdio_definitions:legacy_stdio_definitions.obj
 0001:000340bf       _sscanf                    004350bf f i legacy_stdio_definitions:legacy_stdio_definitions.obj
 0001:000340d8       __vfprintf_l               004350d8 f i legacy_stdio_definitions:legacy_stdio_definitions.obj
 0001:000340fb       _vfprintf                  004350fb f i legacy_stdio_definitions:legacy_stdio_definitions.obj
 0001:00034113       _fprintf                   00435113 f i legacy_stdio_definitions:legacy_stdio_definitions.obj
 0001:0003412c       _printf                    0043512c f i legacy_stdio_definitions:legacy_stdio_definitions.obj
 0001:0003414b       _vsnprintf                 0043514b f i legacy_stdio_definitions:legacy_stdio_definitions.obj
 0001:0003417b       _snprintf                  0043517b f i legacy_stdio_definitions:legacy_stdio_definitions.obj
 0001:00034195       ___local_stdio_printf_options 00435195 f i legacy_stdio_definitions:legacy_stdio_definitions.obj
 0001:0003419b       ___local_stdio_scanf_options 0043519b f i legacy_stdio_definitions:legacy_stdio_definitions.obj
 0001:000341a1       ?_CallCatchBlock2@@YAPAXPAUEHRegistrationNode@@PBU_s_FuncInfo@@PAXHK@Z 004351a1 f   libvcruntime:trnsctrl.obj
 0001:00034201       ?_CallSETranslator@@YAHPAUEHExceptionRecord@@PAUEHRegistrationNode@@PAX2PBU_s_FuncInfo@@H1@Z 00435201 f   libvcruntime:trnsctrl.obj
 0001:000342de       ?_GetRangeOfTrysToCheck@@YAPBU_s_TryBlockMapEntry@@PBU_s_FuncInfo@@HHPAI1@Z 004352de f   libvcruntime:trnsctrl.obj
 0001:00034356       ?_JumpToContinuation@@YGXPAXPAUEHRegistrationNode@@@Z 00435356 f   libvcruntime:trnsctrl.obj
 0001:00034388       ?_UnwindNestedFrames@@YGXPAUEHRegistrationNode@@PAUEHExceptionRecord@@@Z 00435388 f   libvcruntime:trnsctrl.obj
 0001:000343dd       __CatchGuardHandler        004353dd f   libvcruntime:trnsctrl.obj
 0001:0003440e       __CreateFrameInfo          0043540e f   libvcruntime:trnsctrl.obj
 0001:00034432       __FindAndUnlinkFrame       00435432 f   libvcruntime:trnsctrl.obj
 0001:0003447c       __IsExceptionObjectToBeDestroyed 0043547c f   libvcruntime:trnsctrl.obj
 0001:000344a2       __TranslatorGuardHandler   004354a2 f   libvcruntime:trnsctrl.obj
 0001:00034541       ___CxxFrameHandler3        00435541 f   libvcruntime:trnsctrl.obj
 0001:00034580       _memcpy                    00435580 f   libvcruntime:memcpy.obj
 0001:00034b00       _memset                    00435b00 f   libvcruntime:memset.obj
 0001:00034c60       _memchr                    00435c60 f   libvcruntime:memchr.obj
 0001:00034d0d       _memcmp                    00435d0d f   libvcruntime:_memcmp_.obj
 0001:0003648d       ___DestructExceptionObject 0043748d f   libvcruntime:frame.obj
 0001:00036521       ??0bad_exception@std@@QAE@ABV01@@Z 00437521 f i libvcruntime:frame.obj
 0001:0003653c       ??0bad_exception@std@@QAE@XZ 0043753c f i libvcruntime:frame.obj
 0001:00036554       ??0exception@std@@QAE@ABV01@@Z 00437554 f i libvcruntime:frame.obj
 0001:00036580       ??1bad_exception@std@@UAE@XZ 00437580 f i libvcruntime:frame.obj
 0001:00036591       ??_Ebad_exception@std@@UAEPAXI@Z 00437591 f i libvcruntime:frame.obj
 0001:00036591       ??_Eexception@std@@UAEPAXI@Z 00437591 f i libvcruntime:frame.obj
 0001:00036591       ??_Gbad_exception@std@@UAEPAXI@Z 00437591 f i libvcruntime:frame.obj
 0001:00036591       ??_Gexception@std@@UAEPAXI@Z 00437591 f i libvcruntime:frame.obj
 0001:00036dd7       ?_CallMemberFunction2@@YGXQAX00H@Z 00437dd7 f i libvcruntime:frame.obj
 0001:00036dd7       ?_CallMemberFunction0@@YGXQAX0@Z 00437dd7 f i libvcruntime:frame.obj
 0001:00036dd7       ?_CallMemberFunction1@@YGXQAX00@Z 00437dd7 f i libvcruntime:frame.obj
 0001:00036dde       ?what@exception@std@@UBEPBDXZ 00437dde f i libvcruntime:frame.obj
 0001:00036deb       ___AdjustPointer           00437deb f   libvcruntime:frame.obj
 0001:00036e10       ___BuildCatchObject        00437e10 f   libvcruntime:frame.obj
 0001:00036e9f       ___BuildCatchObjectHelper  00437e9f f   libvcruntime:frame.obj
 0001:00036fcd       ___FrameUnwindFilter       00437fcd f   libvcruntime:frame.obj
 0001:00037012       ___FrameUnwindToState      00438012 f   libvcruntime:frame.obj
 0001:000370da       ___InternalCxxFrameHandler 004380da f   libvcruntime:frame.obj
 0001:000371d6       ___TypeMatch               004381d6 f   libvcruntime:frame.obj
 0001:00037264       ___current_exception       00438264 f   libvcruntime:frame.obj
 0001:0003726d       ___current_exception_context 0043826d f   libvcruntime:frame.obj
 0001:00037276       ___processing_throw        00438276 f   libvcruntime:frame.obj
 0001:00037280       _memmove                   00438280 f   libvcruntime:memmove.obj
 0001:000377f4       ___vcrt_freefls@4          004387f4 f   libvcruntime:per_thread_data.obj
 0001:00037810       ___vcrt_getptd             00438810 f   libvcruntime:per_thread_data.obj
 0001:0003781e       ___vcrt_getptd_noexit      0043881e f   libvcruntime:per_thread_data.obj
 0001:000378b0       ___vcrt_initialize_ptd     004388b0 f   libvcruntime:per_thread_data.obj
 0001:000378e3       ___vcrt_uninitialize_ptd   004388e3 f   libvcruntime:per_thread_data.obj
 0001:00037900       __CallSettingFrame@12      00438900 f   libvcruntime:lowhelpr.obj
 0001:00037927       __NLG_Return               00438927     libvcruntime:lowhelpr.obj
 0001:0003794c       _unexpected                0043894c f   libvcruntime:unexpected.obj
 0001:00037968       ___std_exception_copy      00438968 f   libvcruntime:std_exception.obj
 0001:000379cb       ___std_exception_destroy   004389cb f   libvcruntime:std_exception.obj
 0001:000379ea       ___std_type_info_compare   004389ea f   libvcruntime:std_type_info.obj
 0001:00037a26       __CxxThrowException@8      00438a26 f   libvcruntime:throw.obj
 0001:00037ae0       __except_handler4          00438ae0 f   libvcruntime:_chandler4_.obj
 0001:00037c46       ??$__crt_fast_encode_pointer@PAX@@YAPAXQAX@Z 00438c46 f i libvcruntime:winapi_downlevel.obj
 0001:00037c46       ??$__crt_fast_encode_pointer@PAP6AXXZ@@YAPAP6AXXZQAP6AXXZ@Z 00438c46 f i LIBCMT:utility.obj
 0001:00037d84       ___vcrt_FlsAlloc           00438d84 f   libvcruntime:winapi_downlevel.obj
 0001:00037dbe       ___vcrt_FlsFree            00438dbe f   libvcruntime:winapi_downlevel.obj
 0001:00037df8       ___vcrt_FlsGetValue        00438df8 f   libvcruntime:winapi_downlevel.obj
 0001:00037e32       ___vcrt_FlsSetValue        00438e32 f   libvcruntime:winapi_downlevel.obj
 0001:00037e6f       ___vcrt_InitializeCriticalSectionEx 00438e6f f   libvcruntime:winapi_downlevel.obj
 0001:00037eb5       ___vcrt_initialize_winapi_thunks 00438eb5 f   libvcruntime:winapi_downlevel.obj
 0001:00037eef       ___vcrt_uninitialize_winapi_thunks 00438eef f   libvcruntime:winapi_downlevel.obj
 0001:00037f30       __global_unwind2           00438f30 f   libvcruntime:_exsup_.obj
 0001:00037f95       __local_unwind2            00438f95 f   libvcruntime:_exsup_.obj
 0001:00038019       __abnormal_termination     00439019 f   libvcruntime:_exsup_.obj
 0001:0003803c       __NLG_Notify1              0043903c f   libvcruntime:_exsup_.obj
 0001:00038045       __NLG_Notify               00439045 f   libvcruntime:_exsup_.obj
 0001:0003805c       __NLG_Dispatch2            0043905c     libvcruntime:_exsup_.obj
 0001:0003805c       __NLG_Dispatch             0043905c     libvcruntime:_exsup_.obj
 0001:00038064       __NLG_Call                 00439064 f   libvcruntime:_exsup_.obj
 0001:00038066       __NLG_Return2              00439066     libvcruntime:_exsup_.obj
 0001:00038070       __local_unwind4            00439070 f   libvcruntime:_exsup4_.obj
 0001:00038146       __seh_longjmp_unwind4@4    00439146 f   libvcruntime:_exsup4_.obj
 0001:0003816e       @_EH4_CallFilterFunc@8     0043916e f   libvcruntime:_exsup4_.obj
 0001:00038185       @_EH4_TransferToHandler@8  00439185 f   libvcruntime:_exsup4_.obj
 0001:0003819e       @_EH4_GlobalUnwind2@8      0043919e f   libvcruntime:_exsup4_.obj
 0001:000381b7       @_EH4_LocalUnwind@16       004391b7 f   libvcruntime:_exsup4_.obj
 0001:000381ce       ___vcrt_initialize_locks   004391ce f   libvcruntime:locks.obj
 0001:0003820a       ___vcrt_uninitialize_locks 0043920a f   libvcruntime:locks.obj
 0001:00038239       ___vcrt_initialize_pure_virtual_call_handler 00439239 f   libvcruntime:purevirt_data.obj
 0001:00038483       _mainCRTStartup            00439483 f   LIBCMT:exe_main.obj
 0001:00038490       __aulldiv                  00439490 f   LIBCMT:ulldiv.obj
 0001:00038500       __aullrem                  00439500 f   LIBCMT:ullrem.obj
 0001:00038580       __alldiv                   00439580 f   LIBCMT:lldiv.obj
 0001:00038630       __allrem                   00439630 f   LIBCMT:llrem.obj
 0001:000386f0       __chkstk                   004396f0 f   LIBCMT:chkstk.obj
 0001:000386f0       __alloca_probe             004396f0 f   LIBCMT:chkstk.obj
 0001:0003871d       @__security_check_cookie@4 0043971d f   LIBCMT:_secchk_.obj
 0001:0003872e       ___isa_available_init      0043972e f   LIBCMT:_cpu_disp_.obj
 0001:000388c8       ??3@YAXPAXI@Z              004398c8 f   LIBCMT:delete_scalar_size.obj
 0001:000388d6       @_guard_check_icall@4      004398d6 f i LIBCMT:checkcfg.obj
 0001:000388dc       __EH_prolog3_catch         004398dc f   LIBCMT:ehprolg3.obj
 0001:00038920       __SEH_prolog4              00439920 f   LIBCMT:_sehprolg4_.obj
 0001:00038966       __SEH_epilog4              00439966 f   LIBCMT:_sehprolg4_.obj
 0001:0003897b       ??_Gtype_info@@UAEPAXI@Z   0043997b f i LIBCMT:std_type_info_static.obj
 0001:0003897b       ??_Etype_info@@UAEPAXI@Z   0043997b f i LIBCMT:std_type_info_static.obj
 0001:000389a0       __FindPESection            004399a0 f   LIBCMT:pesect.obj
 0001:000389f0       __IsNonwritableInCurrentImage 004399f0 f   LIBCMT:pesect.obj
 0001:00038ab0       __ValidateImageBase        00439ab0 f   LIBCMT:pesect.obj
 0001:00038af0       __aulldvrm                 00439af0 f   LIBCMT:ulldvrm.obj
 0001:00038bc9       ___scrt_acquire_startup_lock 00439bc9 f   LIBCMT:utility.obj
 0001:00038bfe       ___scrt_initialize_crt     00439bfe f   LIBCMT:utility.obj
 0001:00038c37       ___scrt_initialize_onexit_tables 00439c37 f   LIBCMT:utility.obj
 0001:00038cce       ___scrt_is_nonwritable_in_current_image 00439cce f   LIBCMT:utility.obj
 0001:00038d58       ___scrt_release_startup_lock 00439d58 f   LIBCMT:utility.obj
 0001:00038d75       ___scrt_uninitialize_crt   00439d75 f   LIBCMT:utility.obj
 0001:00038d9d       __onexit                   00439d9d f   LIBCMT:utility.obj
 0001:00038dd8       _atexit                    00439dd8 f   LIBCMT:utility.obj
 0001:00038ded       ___security_init_cookie    00439ded f   LIBCMT:gs_support.obj
 0001:00038e89       __get_startup_argv_mode    00439e89 f   LIBCMT:argv_mode.obj
 0001:00038e90       __get_startup_commit_mode  00439e90 f   LIBCMT:commit_mode.obj
 0001:00038e90       __get_startup_new_mode     00439e90 f   LIBCMT:new_mode.obj
 0001:00038e90       ___scrt_initialize_winrt   00439e90 f   LIBCMT:utility_desktop.obj
 0001:00038e90       __matherr                  00439e90 f   LIBCMT:matherr.obj
 0001:00038e90       __get_startup_thread_locale_mode 00439e90 f   LIBCMT:thread_locale.obj
 0001:00038e93       __get_startup_file_mode    00439e93 f   LIBCMT:file_mode.obj
 0001:00038e99       ?__scrt_initialize_type_info@@YAXXZ 00439e99 f   LIBCMT:tncleanup.obj
 0001:00038ea5       __initialize_default_precision 00439ea5 f   LIBCMT:default_precision.obj
 0001:00038ec6       ___except_validate_jump_buffer 00439ec6 f   libvcruntime:jbcxrval.obj
 0001:00038ec6       ___except_validate_context_record 00439ec6 f   libvcruntime:jbcxrval.obj
 0001:00038ec6       @_guard_check_icall_nop@4  00439ec6 f   libvcruntime:jbcxrval.obj
 0001:00038ec6       __initialize_invalid_parameter_handler 00439ec6 f   LIBCMT:invalid_parameter_handler.obj
 0001:00038ec6       __initialize_denormal_control 00439ec6 f   LIBCMT:denormal_control.obj
 0001:00038ec7       ___scrt_initialize_default_local_stdio_options 00439ec7 f   LIBCMT:default_local_stdio_options.obj
 0001:00038ee4       ___scrt_is_user_matherr_present 00439ee4 f   LIBCMT:matherr_detection.obj
 0001:00038ef0       ___scrt_get_dyn_tls_init_callback 00439ef0 f   LIBCMT:dyn_tls_init.obj
 0001:00038ef6       ___scrt_get_dyn_tls_dtor_callback 00439ef6 f   LIBCMT:dyn_tls_dtor.obj
 0001:00038efc       ___scrt_fastfail           00439efc f   LIBCMT:utility_desktop.obj
 0001:00039017       ___scrt_is_managed_app     0043a017 f   LIBCMT:utility_desktop.obj
 0001:0003905b       ___scrt_set_unhandled_exception_filter 0043a05b f   LIBCMT:utility_desktop.obj
 0001:00039067       ___scrt_unhandled_exception_filter@4 0043a067 f   LIBCMT:utility_desktop.obj
 0001:000390a8       __crt_debugger_hook        0043a0a8 f   LIBCMT:utility_desktop.obj
 0001:000390b0       __RTC_Initialize           0043a0b0 f   LIBCMT:_initsect_.obj
 0001:000390db       __RTC_Terminate            0043a0db f   LIBCMT:_initsect_.obj
 0001:00039106       ___raise_securityfailure   0043a106 f   LIBCMT:gs_report.obj
 0001:0003912e       ___report_gsfailure        0043a12e f   LIBCMT:gs_report.obj
 0001:00039229       ??3@YAXPAX@Z               0043a229 f   LIBCMT:delete_scalar.obj
 0001:0003922e       ___scrt_is_ucrt_dll_in_use 0043a22e f   LIBCMT:ucrt_detection.obj
 0001:00039259       ??$?RV<lambda_cd3bfd923e8d1349099e544c97b1bd8e>@@AAV<lambda_54dcfcba6f8e0c549fa430f4d53fb7dd>@@V<lambda_5e1d0fa2aa2b73b187bf8b7e1d30c7f8>@@@?$__crt_seh_guarded_call@I@@QAEI$$QAV<lambda_cd3bfd923e8d1349099e544c97b1bd8e>@@AAV<lambda_54dcfcba6f8e0c549fa430f4d53fb7dd>@@$$QAV<lambda_5e1d0fa2aa2b73b187bf8b7e1d30c7f8>@@@Z 0043a259 f i libucrt:fwrite.obj
 0001:000392aa       ??$__acrt_lock_stream_and_call@V<lambda_54dcfcba6f8e0c549fa430f4d53fb7dd>@@@@YAIQAU_iobuf@@$$QAV<lambda_54dcfcba6f8e0c549fa430f4d53fb7dd>@@@Z 0043a2aa f i libucrt:fwrite.obj
 0001:00039318       __fwrite_nolock            0043a318 f   libucrt:fwrite.obj
 0001:00039491       _fwrite                    0043a491 f   libucrt:fwrite.obj
 0001:0003951b       __fputwc_nolock            0043a51b f   libucrt:fputwc.obj
 0001:00039645       __fputc_nolock             0043a645 f   libucrt:fputc.obj
 0001:0003966e       _fputc                     0043a66e f   libucrt:fputc.obj
 0001:00039772       _malloc                    0043a772 f   libucrt:malloc.obj
 0001:0003977d       _free                      0043a77d f   libucrt:free.obj
 0001:0003979a       ___acrt_lowio_create_handle_array 0043a79a f   libucrt:osfinfo.obj
 0001:00039814       ___acrt_lowio_destroy_handle_array 0043a814 f   libucrt:osfinfo.obj
 0001:00039849       ___acrt_lowio_ensure_fh_exists 0043a849 f   libucrt:osfinfo.obj
 0001:000398e1       ___acrt_lowio_lock_fh      0043a8e1 f   libucrt:osfinfo.obj
 0001:00039904       ___acrt_lowio_unlock_fh    0043a904 f   libucrt:osfinfo.obj
 0001:00039927       __free_osfhnd              0043a927 f   libucrt:osfinfo.obj
 0001:000399b8       __get_osfhandle            0043a9b8 f   libucrt:osfinfo.obj
 0001:00039a22       __fclose_nolock            0043aa22 f   libucrt:fclose.obj
 0001:00039a98       _fclose                    0043aa98 f   libucrt:fclose.obj
 0001:00039b18       ??$?RV<lambda_2866be3712abc81a800a822484c830d8>@@AAV<lambda_39ca0ed439415581b5b15c265174cece>@@V<lambda_2b24c74d71094a6cd0cb82e44167d71b>@@@?$__crt_seh_guarded_call@X@@QAEX$$QAV<lambda_2866be3712abc81a800a822484c830d8>@@AAV<lambda_39ca0ed439415581b5b15c265174cece>@@$$QAV<lambda_2b24c74d71094a6cd0cb82e44167d71b>@@@Z 0043ab18 f i libucrt:fflush.obj
 0001:00039b99       ??$?RV<lambda_2cc53f568c5a2bb6f192f930a45d44ea>@@AAV<lambda_ab61a845afdef5b7c387490eaf3616ee>@@V<lambda_c2ffc0b7726aa6be21d5f0026187e748>@@@?$__crt_seh_guarded_call@X@@QAEX$$QAV<lambda_2cc53f568c5a2bb6f192f930a45d44ea>@@AAV<lambda_ab61a845afdef5b7c387490eaf3616ee>@@$$QAV<lambda_c2ffc0b7726aa6be21d5f0026187e748>@@@Z 0043ab99 f i libucrt:fflush.obj
 0001:00039c2c       ??$?RV<lambda_6d20deecaf4856105ebacbad442d1079>@@AAV<lambda_9a32fed5bf61b6b509b2d3f6003082a1>@@V<lambda_63ea2239ed67c638ddbae41947fdf875>@@@?$__crt_seh_guarded_call@H@@QAEH$$QAV<lambda_6d20deecaf4856105ebacbad442d1079>@@AAV<lambda_9a32fed5bf61b6b509b2d3f6003082a1>@@$$QAV<lambda_63ea2239ed67c638ddbae41947fdf875>@@@Z 0043ac2c f i libucrt:fflush.obj
 0001:00039c82       ??$__acrt_lock_and_call@V<lambda_ab61a845afdef5b7c387490eaf3616ee>@@@@YAXW4__acrt_lock_id@@$$QAV<lambda_ab61a845afdef5b7c387490eaf3616ee>@@@Z 0043ac82 f i libucrt:fflush.obj
 0001:00039caa       ??$__acrt_lock_stream_and_call@V<lambda_39ca0ed439415581b5b15c265174cece>@@@@YAXQAU_iobuf@@$$QAV<lambda_39ca0ed439415581b5b15c265174cece>@@@Z 0043acaa f i libucrt:fflush.obj
 0001:00039cd2       ??$__acrt_lock_stream_and_call@V<lambda_9a32fed5bf61b6b509b2d3f6003082a1>@@@@YAHQAU_iobuf@@$$QAV<lambda_9a32fed5bf61b6b509b2d3f6003082a1>@@@Z 0043acd2 f i libucrt:fflush.obj
 0001:00039d8e       ___acrt_stdio_flush_nolock 0043ad8e f   libucrt:fflush.obj
 0001:00039df1       __fflush_nolock            0043adf1 f   libucrt:fflush.obj
 0001:00039e38       __flushall                 0043ae38 f   libucrt:fflush.obj
 0001:00039e41       _fflush                    0043ae41 f   libucrt:fflush.obj
 0001:00039e84       ___acrt_stdio_free_tmpfile_name_buffers_nolock 0043ae84 f   libucrt:tmpfile.obj
 0001:00039ec2       __fileno                   0043aec2 f   libucrt:fileno.obj
 0001:00039ec2       _fileno                    0043aec2 f   libucrt:fileno.obj
 0001:00039ee8       __set_fmode                0043aee8 f   libucrt:setmode.obj
 0001:00039f25       ___acrt_initialize_stdio   0043af25 f   libucrt:_file.obj
 0001:00039fed       ___acrt_iob_func           0043afed f   libucrt:_file.obj
 0001:00039ffd       ___acrt_uninitialize_stdio 0043affd f   libucrt:_file.obj
 0001:0003a049       __lock_file                0043b049 f   libucrt:_file.obj
 0001:0003a05d       __unlock_file              0043b05d f   libucrt:_file.obj
 0001:0003a0ed       __get_sys_err_msg          0043b0ed f i libucrt:strerror.obj
 0001:0003a111       _strerror                  0043b111 f   libucrt:strerror.obj
 0001:0003a120       _strlen                    0043b120 f   libucrt:strlen.obj
 0001:0003a1ab       _realloc                   0043b1ab f   libucrt:realloc.obj
 0001:0003a1b6       _strnlen                   0043b1b6 f   libucrt:strnlen.obj
 0001:0003a2dd       _wcslen                    0043b2dd f   libucrt:strnlen.obj
 0001:0003a414       _wcsnlen                   0043b414 f   libucrt:strnlen.obj
 0001:0003a7b8       _getenv                    0043b7b8 f   libucrt:getenv.obj
 0001:0003a7c3       _getenv_s                  0043b7c3 f   libucrt:getenv.obj
 0001:0003a7ce       _set_terminate             0043b7ce f   libucrt:terminate.obj
 0001:0003a7ee       _terminate                 0043b7ee f   libucrt:terminate.obj
 0001:0003a82a       _calloc                    0043b82a f   libucrt:calloc.obj
 0001:0003a95c       ?release@?$__crt_unique_heap_ptr@U__acrt_thread_parameter@@Uthread_parameter_free_policy@?A0x4e93fcdd@@@@QAEXXZ 0043b95c f i libucrt:thread.obj
 0001:0003a993       __beginthreadex            0043b993 f   libucrt:thread.obj
 0001:0003aa18       __endthreadex              0043ba18 f   libucrt:thread.obj
 0001:0003acba       ??0_LocaleUpdate@@QAE@QAU__crt_locale_pointers@@@Z 0043bcba f i libucrt:tolower_toupper.obj
 0001:0003ad77       __chvalidchk_l             0043bd77 f i libucrt:tolower_toupper.obj
 0001:0003ada1       __ischartype_l             0043bda1 f i libucrt:tolower_toupper.obj
 0001:0003add4       __tolower_l                0043bdd4 f   libucrt:tolower_toupper.obj
 0001:0003adee       __toupper_l                0043bdee f   libucrt:tolower_toupper.obj
 0001:0003ae08       _tolower                   0043be08 f   libucrt:tolower_toupper.obj
 0001:0003ae38       _toupper                   0043be38 f   libucrt:tolower_toupper.obj
 0001:0003ae68       _abort                     0043be68 f   libucrt:abort.obj
 0001:0003af90       _qsort                     0043bf90 f   libucrt:qsort.obj
 0001:0003b32a       ___acrt_errno_from_os_error 0043c32a f   libucrt:errno.obj
 0001:0003b36d       ___acrt_errno_map_os_error 0043c36d f   libucrt:errno.obj
 0001:0003b390       ___doserrno                0043c390 f   libucrt:errno.obj
 0001:0003b3a3       __errno                    0043c3a3 f   libucrt:errno.obj
 0001:0003b3b6       __isdigit_l                0043c3b6 f i libucrt:_ctype.obj
 0001:0003b3ee       __isspace_l                0043c3ee f i libucrt:_ctype.obj
 0001:0003b426       _isdigit                   0043c426 f i libucrt:_ctype.obj
 0001:0003b453       _isspace                   0043c453 f i libucrt:_ctype.obj
 0001:0003b480       ??$assemble_floating_point_ind@N@__crt_strtox@@YAXAAN@Z 0043c480 f i libucrt:strtod.obj
 0001:0003b4af       ??$assemble_floating_point_infinity@N@__crt_strtox@@YAX_NAAN@Z 0043c4af f i libucrt:strtod.obj
 0001:0003b4ee       ??$assemble_floating_point_qnan@N@__crt_strtox@@YAX_NAAN@Z 0043c4ee f i libucrt:strtod.obj
 0001:0003b52d       ??$assemble_floating_point_snan@N@__crt_strtox@@YAX_NAAN@Z 0043c52d f i libucrt:strtod.obj
 0001:0003b571       ??$assemble_floating_point_value_t@M@__crt_strtox@@YA?AW4SLD_STATUS@@_NH_KAAM@Z 0043c571 f i libucrt:strtod.obj
 0001:0003b5a1       ??$assemble_floating_point_value_t@N@__crt_strtox@@YA?AW4SLD_STATUS@@_NH_KAAN@Z 0043c5a1 f i libucrt:strtod.obj
 0001:0003b600       ??$assemble_floating_point_zero@N@__crt_strtox@@YAX_NAAN@Z 0043c600 f i libucrt:strtod.obj
 0001:0003b6ca       ??$convert_decimal_string_to_floating_type@M@__crt_strtox@@YA?AW4SLD_STATUS@@ABUfloating_point_string@0@AAM@Z 0043c6ca f i libucrt:strtod.obj
 0001:0003b6ed       ??$convert_decimal_string_to_floating_type@N@__crt_strtox@@YA?AW4SLD_STATUS@@ABUfloating_point_string@0@AAN@Z 0043c6ed f i libucrt:strtod.obj
 0001:0003b710       ??$convert_hexadecimal_string_to_floating_type@M@__crt_strtox@@YA?AW4SLD_STATUS@@ABUfloating_point_string@0@AAM@Z 0043c710 f i libucrt:strtod.obj
 0001:0003b733       ??$convert_hexadecimal_string_to_floating_type@N@__crt_strtox@@YA?AW4SLD_STATUS@@ABUfloating_point_string@0@AAN@Z 0043c733 f i libucrt:strtod.obj
 0001:0003b756       ??$make_c_string_character_source@D$$T@__crt_strtox@@YA?AV?$c_string_character_source@D@0@QBD$$T@Z 0043c756 f i libucrt:atox.obj
 0001:0003b756       ??$make_c_string_character_source@DPAPAD@__crt_strtox@@YA?AV?$c_string_character_source@D@0@QBDQAPAD@Z 0043c756 f i libucrt:strtod.obj
 0001:0003b771       ??$parse_floating_point@V?$c_string_character_source@D@__crt_strtox@@N@__crt_strtox@@YA?AW4SLD_STATUS@@QAU__crt_locale_pointers@@V?$c_string_character_source@D@0@QAN@Z 0043c771 f i libucrt:strtod.obj
 0001:0003b7e7       ??$parse_floating_point_from_source@V?$c_string_character_source@D@__crt_strtox@@@__crt_strtox@@YA?AW4floating_point_parse_result@0@QAU__crt_locale_pointers@@AAV?$c_string_character_source@D@0@AAUfloating_point_string@0@@Z 0043c7e7 f i libucrt:strtod.obj
 0001:0003bbc4       ??$parse_floating_point_possible_infinity@DV?$c_string_character_source@D@__crt_strtox@@PBD@__crt_strtox@@YA?AW4floating_point_parse_result@0@AADAAV?$c_string_character_source@D@0@PBD@Z 0043cbc4 f i libucrt:strtod.obj
 0001:0003bc5e       ??$parse_floating_point_possible_nan@DV?$c_string_character_source@D@__crt_strtox@@PBD@__crt_strtox@@YA?AW4floating_point_parse_result@0@AADAAV?$c_string_character_source@D@0@PBD@Z 0043cc5e f i libucrt:strtod.obj
 0001:0003bd79       ??$parse_floating_point_possible_nan_is_ind@DV?$c_string_character_source@D@__crt_strtox@@@__crt_strtox@@YA_NAADAAV?$c_string_character_source@D@0@@Z 0043cd79 f i libucrt:strtod.obj
 0001:0003bdb5       ??$parse_floating_point_possible_nan_is_snan@DV?$c_string_character_source@D@__crt_strtox@@@__crt_strtox@@YA_NAADAAV?$c_string_character_source@D@0@@Z 0043cdb5 f i libucrt:strtod.obj
 0001:0003bdf1       ??$parse_floating_point_write_result@M@__crt_strtox@@YA?AW4SLD_STATUS@@W4floating_point_parse_result@0@ABUfloating_point_string@0@QAM@Z 0043cdf1 f i libucrt:strtod.obj
 0001:0003bf04       ??$parse_floating_point_write_result@N@__crt_strtox@@YA?AW4SLD_STATUS@@W4floating_point_parse_result@0@ABUfloating_point_string@0@QAN@Z 0043cf04 f i libucrt:strtod.obj
 0001:0003c02e       ?as_double@floating_point_value@__crt_strtox@@QBEAANXZ 0043d02e f i libucrt:strtod.obj
 0001:0003c053       ?as_float@floating_point_value@__crt_strtox@@QBEAAMXZ 0043d053 f i libucrt:strtod.obj
 0001:0003c078       ?assemble_floating_point_infinity@__crt_strtox@@YAX_NABVfloating_point_value@1@@Z 0043d078 f i libucrt:strtod.obj
 0001:0003c0b2       ?assemble_floating_point_value@__crt_strtox@@YA?AW4SLD_STATUS@@_KH_N1ABVfloating_point_value@1@@Z 0043d0b2 f i libucrt:strtod.obj
 0001:0003c3fa       ?assemble_floating_point_value_from_big_integer@__crt_strtox@@YA?AW4SLD_STATUS@@ABUbig_integer@1@I_N1ABVfloating_point_value@1@@Z 0043d3fa f i libucrt:strtod.obj
 0001:0003c588       ?assemble_floating_point_zero@__crt_strtox@@YAX_NABVfloating_point_value@1@@Z 0043d588 f i libucrt:strtod.obj
 0001:0003c5bc       ?convert_decimal_string_to_floating_type_common@__crt_strtox@@YA?AW4SLD_STATUS@@ABUfloating_point_string@1@ABVfloating_point_value@1@@Z 0043d5bc f i libucrt:strtod.obj
 0001:0003e37f       ?convert_hexadecimal_string_to_floating_type_common@__crt_strtox@@YA?AW4SLD_STATUS@@ABUfloating_point_string@1@ABVfloating_point_value@1@@Z 0043f37f f i libucrt:strtod.obj
 0001:0003e42b       ?denormal_mantissa_mask@floating_point_value@__crt_strtox@@QBE_KXZ 0043f42b f i libucrt:strtod.obj
 0001:0003e450       ?divide@__crt_strtox@@YA_KAAUbig_integer@1@ABU21@@Z 0043f450 f i libucrt:strtod.obj
 0001:0003e8fe       ?normal_mantissa_mask@floating_point_value@__crt_strtox@@QBE_KXZ 0043f8fe f i libucrt:strtod.obj
 0001:0003e915       ?unget@?$c_string_character_source@D@__crt_strtox@@QAEXD@Z 0043f915 f i libucrt:strtod.obj
 0001:0003e93d       _strtod                    0043f93d f   libucrt:strtod.obj
 0001:0003e954       ??$?RV<lambda_80d7abc6eae2375db70be92ccaaf9b57>@@AAV<lambda_df52180bf14694d51fdefd82613e8f07>@@V<lambda_4fa1155033dff2042363dba4e2dc3802>@@@?$__crt_seh_guarded_call@H@@QAEH$$QAV<lambda_80d7abc6eae2375db70be92ccaaf9b57>@@AAV<lambda_df52180bf14694d51fdefd82613e8f07>@@$$QAV<lambda_4fa1155033dff2042363dba4e2dc3802>@@@Z 0043f954 f i libucrt:output.obj
 0001:0003e9a5       ??$__acrt_lock_stream_and_call@V<lambda_df52180bf14694d51fdefd82613e8f07>@@@@YAHQAU_iobuf@@$$QAV<lambda_df52180bf14694d51fdefd82613e8f07>@@@Z 0043f9a5 f i libucrt:output.obj
 0001:0003eb4d       ??$count@D@formatting_buffer@__crt_stdio_output@@QBEIXZ 0043fb4d f i libucrt:output.obj
 0001:0003eb65       ??$ensure_buffer_is_big_enough@D@formatting_buffer@__crt_stdio_output@@QAE_NI@Z 0043fb65 f i libucrt:output.obj
 0001:0003ebeb       ??$is_wide_character_specifier@D@__crt_stdio_output@@YA_N_KDW4length_modifier@0@@Z 0043fbeb f i libucrt:output.obj
 0001:0003ec2b       ??$scratch_data@D@formatting_buffer@__crt_stdio_output@@QAEPADXZ 0043fc2b f i libucrt:output.obj
 0001:0003ec49       ??$type_case_integer_parse_into_buffer@I@?$output_processor@DV?$string_output_adapter@D@__crt_stdio_output@@V?$standard_base@DV?$string_output_adapter@D@__crt_stdio_output@@@2@@__crt_stdio_output@@AAEXII_N@Z 0043fc49 f i libucrt:output.obj
 0001:0003ec49       ??$type_case_integer_parse_into_buffer@I@?$output_processor@DV?$stream_output_adapter@D@__crt_stdio_output@@V?$standard_base@DV?$stream_output_adapter@D@__crt_stdio_output@@@2@@__crt_stdio_output@@AAEXII_N@Z 0043fc49 f i libucrt:output.obj
 0001:0003ecbb       ??$type_case_integer_parse_into_buffer@_K@?$output_processor@DV?$stream_output_adapter@D@__crt_stdio_output@@V?$standard_base@DV?$stream_output_adapter@D@__crt_stdio_output@@@2@@__crt_stdio_output@@AAEX_KI_N@Z 0043fcbb f i libucrt:output.obj
 0001:0003ecbb       ??$type_case_integer_parse_into_buffer@_K@?$output_processor@DV?$string_output_adapter@D@__crt_stdio_output@@V?$standard_base@DV?$string_output_adapter@D@__crt_stdio_output@@@2@@__crt_stdio_output@@AAEX_KI_N@Z 0043fcbb f i libucrt:output.obj
 0001:0003ed42       ??$write_multiple_characters@V?$stream_output_adapter@D@__crt_stdio_output@@D@__crt_stdio_output@@YAXABV?$stream_output_adapter@D@0@DHQAH@Z 0043fd42 f i libucrt:output.obj
 0001:0003ed6e       ??$write_multiple_characters@V?$string_output_adapter@D@__crt_stdio_output@@D@__crt_stdio_output@@YAXABV?$string_output_adapter@D@0@DHQAH@Z 0043fd6e f i libucrt:output.obj
 0001:0003ed9a       ??0?$common_data@D@__crt_stdio_output@@IAE@XZ 0043fd9a f i libucrt:output.obj
 0001:0003ede1       ??0?$output_adapter_data@DV?$stream_output_adapter@D@__crt_stdio_output@@@__crt_stdio_output@@IAE@ABV?$stream_output_adapter@D@1@_KQBDQAU__crt_locale_pointers@@QAD@Z 0043fde1 f i libucrt:output.obj
 0001:0003ede1       ??0?$output_adapter_data@DV?$string_output_adapter@D@__crt_stdio_output@@@__crt_stdio_output@@IAE@ABV?$string_output_adapter@D@1@_KQBDQAU__crt_locale_pointers@@QAD@Z 0043fde1 f i libucrt:output.obj
 0001:0003ee1d       ??1formatting_buffer@__crt_stdio_output@@QAE@XZ 0043fe1d f i libucrt:output.obj
 0001:0003ee37       ??4?$__crt_unique_heap_ptr@DU__crt_internal_free_policy@@@@QAEAAV0@$$QAV0@@Z 0043fe37 f i libucrt:output.obj
 0001:0003ef1c       ?crop_zeroes@__crt_stdio_output@@YAXPADQAU__crt_locale_pointers@@@Z 0043ff1c f i libucrt:output.obj
 0001:0003ef73       ?find_next_state@?$output_processor@DV?$string_output_adapter@D@__crt_stdio_output@@V?$standard_base@DV?$string_output_adapter@D@__crt_stdio_output@@@2@@__crt_stdio_output@@ABE?AW4state@2@DW432@@Z 0043ff73 f i libucrt:output.obj
 0001:0003ef73       ?find_next_state@?$output_processor@DV?$stream_output_adapter@D@__crt_stdio_output@@V?$standard_base@DV?$stream_output_adapter@D@__crt_stdio_output@@@2@@__crt_stdio_output@@ABE?AW4state@2@DW432@@Z 0043ff73 f i libucrt:output.obj
 0001:0003efa5       ?force_decimal_point@__crt_stdio_output@@YAXPADQAU__crt_locale_pointers@@@Z 0043ffa5 f i libucrt:output.obj
 0001:0003f001       ?parse_int_from_format_string@?$output_processor@DV?$string_output_adapter@D@__crt_stdio_output@@V?$standard_base@DV?$string_output_adapter@D@__crt_stdio_output@@@2@@__crt_stdio_output@@AAE_NQAH@Z 00440001 f i libucrt:output.obj
 0001:0003f001       ?parse_int_from_format_string@?$output_processor@DV?$stream_output_adapter@D@__crt_stdio_output@@V?$standard_base@DV?$stream_output_adapter@D@__crt_stdio_output@@@2@@__crt_stdio_output@@AAE_NQAH@Z 00440001 f i libucrt:output.obj
 0001:0003f079       ?process@?$output_processor@DV?$stream_output_adapter@D@__crt_stdio_output@@V?$standard_base@DV?$stream_output_adapter@D@__crt_stdio_output@@@2@@__crt_stdio_output@@QAEHXZ 00440079 f i libucrt:output.obj
 0001:0003f195       ?process@?$output_processor@DV?$string_output_adapter@D@__crt_stdio_output@@V?$standard_base@DV?$string_output_adapter@D@__crt_stdio_output@@@2@@__crt_stdio_output@@QAEHXZ 00440195 f i libucrt:output.obj
 0001:0003f2b1       ?state_case_flag@?$output_processor@DV?$stream_output_adapter@D@__crt_stdio_output@@V?$standard_base@DV?$stream_output_adapter@D@__crt_stdio_output@@@2@@__crt_stdio_output@@AAE_NXZ 004402b1 f i libucrt:output.obj
 0001:0003f2b1       ?state_case_flag@?$output_processor@DV?$string_output_adapter@D@__crt_stdio_output@@V?$standard_base@DV?$string_output_adapter@D@__crt_stdio_output@@@2@@__crt_stdio_output@@AAE_NXZ 004402b1 f i libucrt:output.obj
 0001:0003f2ee       ?state_case_normal@?$output_processor@DV?$stream_output_adapter@D@__crt_stdio_output@@V?$standard_base@DV?$stream_output_adapter@D@__crt_stdio_output@@@2@@__crt_stdio_output@@AAE_NXZ 004402ee f i libucrt:output.obj
 0001:0003f30d       ?state_case_normal@?$output_processor@DV?$string_output_adapter@D@__crt_stdio_output@@V?$standard_base@DV?$string_output_adapter@D@__crt_stdio_output@@@2@@__crt_stdio_output@@AAE_NXZ 0044030d f i libucrt:output.obj
 0001:0003f32c       ?state_case_normal_common@?$output_processor@DV?$stream_output_adapter@D@__crt_stdio_output@@V?$standard_base@DV?$stream_output_adapter@D@__crt_stdio_output@@@2@@__crt_stdio_output@@AAE_NXZ 0044032c f i libucrt:output.obj
 0001:0003f356       ?state_case_normal_common@?$output_processor@DV?$string_output_adapter@D@__crt_stdio_output@@V?$standard_base@DV?$string_output_adapter@D@__crt_stdio_output@@@2@@__crt_stdio_output@@AAE_NXZ 00440356 f i libucrt:output.obj
 0001:0003f380       ?state_case_normal_tchar@?$output_processor@DV?$stream_output_adapter@D@__crt_stdio_output@@V?$standard_base@DV?$stream_output_adapter@D@__crt_stdio_output@@@2@@__crt_stdio_output@@AAE_ND@Z 00440380 f i libucrt:output.obj
 0001:0003f3e1       ?state_case_normal_tchar@?$output_processor@DV?$string_output_adapter@D@__crt_stdio_output@@V?$standard_base@DV?$string_output_adapter@D@__crt_stdio_output@@@2@@__crt_stdio_output@@AAE_ND@Z 004403e1 f i libucrt:output.obj
 0001:0003f442       ?state_case_precision@?$output_processor@DV?$stream_output_adapter@D@__crt_stdio_output@@V?$standard_base@DV?$stream_output_adapter@D@__crt_stdio_output@@@2@@__crt_stdio_output@@AAE_NXZ 00440442 f i libucrt:output.obj
 0001:0003f442       ?state_case_precision@?$output_processor@DV?$string_output_adapter@D@__crt_stdio_output@@V?$standard_base@DV?$string_output_adapter@D@__crt_stdio_output@@@2@@__crt_stdio_output@@AAE_NXZ 00440442 f i libucrt:output.obj
 0001:0003f46a       ?state_case_size@?$output_processor@DV?$stream_output_adapter@D@__crt_stdio_output@@V?$standard_base@DV?$stream_output_adapter@D@__crt_stdio_output@@@2@@__crt_stdio_output@@AAE_NXZ 0044046a f i libucrt:output.obj
 0001:0003f5d3       ?state_case_size@?$output_processor@DV?$string_output_adapter@D@__crt_stdio_output@@V?$standard_base@DV?$string_output_adapter@D@__crt_stdio_output@@@2@@__crt_stdio_output@@AAE_NXZ 004405d3 f i libucrt:output.obj
 0001:0003f73c       ?state_case_type@?$output_processor@DV?$stream_output_adapter@D@__crt_stdio_output@@V?$standard_base@DV?$stream_output_adapter@D@__crt_stdio_output@@@2@@__crt_stdio_output@@AAE_NXZ 0044073c f i libucrt:output.obj
 0001:0003f96c       ?state_case_type@?$output_processor@DV?$string_output_adapter@D@__crt_stdio_output@@V?$standard_base@DV?$string_output_adapter@D@__crt_stdio_output@@@2@@__crt_stdio_output@@AAE_NXZ 0044096c f i libucrt:output.obj
 0001:0003fb9c       ?state_case_width@?$output_processor@DV?$string_output_adapter@D@__crt_stdio_output@@V?$standard_base@DV?$string_output_adapter@D@__crt_stdio_output@@@2@@__crt_stdio_output@@AAE_NXZ 00440b9c f i libucrt:output.obj
 0001:0003fb9c       ?state_case_width@?$output_processor@DV?$stream_output_adapter@D@__crt_stdio_output@@V?$standard_base@DV?$stream_output_adapter@D@__crt_stdio_output@@@2@@__crt_stdio_output@@AAE_NXZ 00440b9c f i libucrt:output.obj
 0001:0003fbc7       ?to_integer_size@__crt_stdio_output@@YAIW4length_modifier@1@@Z 00440bc7 f i libucrt:output.obj
 0001:0003fc23       ?type_case_Z@?$output_processor@DV?$stream_output_adapter@D@__crt_stdio_output@@V?$standard_base@DV?$stream_output_adapter@D@__crt_stdio_output@@@2@@__crt_stdio_output@@AAE_NXZ 00440c23 f i libucrt:output.obj
 0001:0003fc23       ?type_case_Z@?$output_processor@DV?$string_output_adapter@D@__crt_stdio_output@@V?$standard_base@DV?$string_output_adapter@D@__crt_stdio_output@@@2@@__crt_stdio_output@@AAE_NXZ 00440c23 f i libucrt:output.obj
 0001:0003fc86       ?type_case_a@?$output_processor@DV?$stream_output_adapter@D@__crt_stdio_output@@V?$standard_base@DV?$stream_output_adapter@D@__crt_stdio_output@@@2@@__crt_stdio_output@@AAE_NXZ 00440c86 f i libucrt:output.obj
 0001:0003fc86       ?type_case_a@?$output_processor@DV?$string_output_adapter@D@__crt_stdio_output@@V?$standard_base@DV?$string_output_adapter@D@__crt_stdio_output@@@2@@__crt_stdio_output@@AAE_NXZ 00440c86 f i libucrt:output.obj
 0001:0003fde0       ?type_case_c_tchar@?$output_processor@DV?$stream_output_adapter@D@__crt_stdio_output@@V?$standard_base@DV?$stream_output_adapter@D@__crt_stdio_output@@@2@@__crt_stdio_output@@AAE_ND@Z 00440de0 f i libucrt:output.obj
 0001:0003fde0       ?type_case_c_tchar@?$output_processor@DV?$string_output_adapter@D@__crt_stdio_output@@V?$standard_base@DV?$string_output_adapter@D@__crt_stdio_output@@@2@@__crt_stdio_output@@AAE_ND@Z 00440de0 f i libucrt:output.obj
 0001:0003fe70       ?type_case_integer@?$output_processor@DV?$stream_output_adapter@D@__crt_stdio_output@@V?$standard_base@DV?$stream_output_adapter@D@__crt_stdio_output@@@2@@__crt_stdio_output@@AAE_NI_N@Z 00440e70 f i libucrt:output.obj
 0001:0003fe70       ?type_case_integer@?$output_processor@DV?$string_output_adapter@D@__crt_stdio_output@@V?$standard_base@DV?$string_output_adapter@D@__crt_stdio_output@@@2@@__crt_stdio_output@@AAE_NI_N@Z 00440e70 f i libucrt:output.obj
 0001:0003ffbe       ?type_case_n@?$output_processor@DV?$stream_output_adapter@D@__crt_stdio_output@@V?$standard_base@DV?$stream_output_adapter@D@__crt_stdio_output@@@2@@__crt_stdio_output@@AAE_NXZ 00440fbe f i libucrt:output.obj
 0001:0003ffbe       ?type_case_n@?$output_processor@DV?$string_output_adapter@D@__crt_stdio_output@@V?$standard_base@DV?$string_output_adapter@D@__crt_stdio_output@@@2@@__crt_stdio_output@@AAE_NXZ 00440fbe f i libucrt:output.obj
 0001:00040032       ?type_case_o@?$output_processor@DV?$string_output_adapter@D@__crt_stdio_output@@V?$standard_base@DV?$string_output_adapter@D@__crt_stdio_output@@@2@@__crt_stdio_output@@AAE_NXZ 00441032 f i libucrt:output.obj
 0001:00040032       ?type_case_o@?$output_processor@DV?$stream_output_adapter@D@__crt_stdio_output@@V?$standard_base@DV?$stream_output_adapter@D@__crt_stdio_output@@@2@@__crt_stdio_output@@AAE_NXZ 00441032 f i libucrt:output.obj
 0001:00040051       ?type_case_p@?$output_processor@DV?$string_output_adapter@D@__crt_stdio_output@@V?$standard_base@DV?$string_output_adapter@D@__crt_stdio_output@@@2@@__crt_stdio_output@@AAE_NXZ 00441051 f i libucrt:output.obj
 0001:00040051       ?type_case_p@?$output_processor@DV?$stream_output_adapter@D@__crt_stdio_output@@V?$standard_base@DV?$stream_output_adapter@D@__crt_stdio_output@@@2@@__crt_stdio_output@@AAE_NXZ 00441051 f i libucrt:output.obj
 0001:00040069       ?type_case_s@?$output_processor@DV?$stream_output_adapter@D@__crt_stdio_output@@V?$standard_base@DV?$stream_output_adapter@D@__crt_stdio_output@@@2@@__crt_stdio_output@@AAE_NXZ 00441069 f i libucrt:output.obj
 0001:00040069       ?type_case_s@?$output_processor@DV?$string_output_adapter@D@__crt_stdio_output@@V?$standard_base@DV?$string_output_adapter@D@__crt_stdio_output@@@2@@__crt_stdio_output@@AAE_NXZ 00441069 f i libucrt:output.obj
 0001:000400dc       ?validate@?$stream_output_adapter@D@__crt_stdio_output@@QBE_NXZ 004410dc f i libucrt:output.obj
 0001:000400fd       ?validate@?$string_output_adapter@D@__crt_stdio_output@@QBE_NXZ 004410fd f i libucrt:output.obj
 0001:000400fd       ?validate@?$c_string_character_source@D@__crt_strtox@@QBE_NXZ 004410fd f i libucrt:strtod.obj
 0001:00040118       ?validate_stream_is_ansi_if_required@?$__acrt_stdio_char_traits@D@@SA_NQAU_iobuf@@@Z 00441118 f i libucrt:output.obj
 0001:0004019a       ?write_character@?$stream_output_adapter@D@__crt_stdio_output@@QBEXDQAH@Z 0044119a f i libucrt:output.obj
 0001:000401d7       ?write_character@?$string_output_adapter@D@__crt_stdio_output@@QBE_NDQAH@Z 004411d7 f i libucrt:output.obj
 0001:00040219       ?write_stored_string_tchar@?$output_processor@DV?$stream_output_adapter@D@__crt_stdio_output@@V?$standard_base@DV?$stream_output_adapter@D@__crt_stdio_output@@@2@@__crt_stdio_output@@AAE_ND@Z 00441219 f i libucrt:output.obj
 0001:000402c2       ?write_stored_string_tchar@?$output_processor@DV?$string_output_adapter@D@__crt_stdio_output@@V?$standard_base@DV?$string_output_adapter@D@__crt_stdio_output@@@2@@__crt_stdio_output@@AAE_ND@Z 004412c2 f i libucrt:output.obj
 0001:0004036b       ?write_string@?$stream_output_adapter@D@__crt_stdio_output@@QBEXQBDHQAHAAV__crt_deferred_errno_cache@@@Z 0044136b f i libucrt:output.obj
 0001:00040421       ?write_string@?$string_output_adapter@D@__crt_stdio_output@@QBEXQBDHQAHAAV__crt_deferred_errno_cache@@@Z 00441421 f i libucrt:output.obj
 0001:00040488       ___stdio_common_vfprintf   00441488 f   libucrt:output.obj
 0001:000404ff       ___stdio_common_vsprintf   004414ff f   libucrt:output.obj
 0001:000405d9       ??$is_overflow_condition@_K@__crt_strtox@@YA_NI_K@Z 004415d9 f i libucrt:input.obj
 0001:0004061c       ??$make_input_adapter_character_source@V?$string_input_adapter@D@__crt_stdio_input@@@__crt_strtox@@YA?AV?$input_adapter_character_source@V?$string_input_adapter@D@__crt_stdio_input@@@0@QAV?$string_input_adapter@D@__crt_stdio_input@@_KQA_N@Z 0044161c f i libucrt:input.obj
 0001:0004063a       ??$parse_floating_point@V?$input_adapter_character_source@V?$string_input_adapter@D@__crt_stdio_input@@@__crt_strtox@@M@__crt_strtox@@YA?AW4SLD_STATUS@@QAU__crt_locale_pointers@@V?$input_adapter_character_source@V?$string_input_adapter@D@__crt_stdio_input@@@0@QAM@Z 0044163a f i libucrt:input.obj
 0001:000406b5       ??$parse_floating_point@V?$input_adapter_character_source@V?$string_input_adapter@D@__crt_stdio_input@@@__crt_strtox@@N@__crt_strtox@@YA?AW4SLD_STATUS@@QAU__crt_locale_pointers@@V?$input_adapter_character_source@V?$string_input_adapter@D@__crt_stdio_input@@@0@QAN@Z 004416b5 f i libucrt:input.obj
 0001:00040730       ??$parse_floating_point_from_source@V?$input_adapter_character_source@V?$string_input_adapter@D@__crt_stdio_input@@@__crt_strtox@@@__crt_strtox@@YA?AW4floating_point_parse_result@0@QAU__crt_locale_pointers@@AAV?$input_adapter_character_source@V?$string_input_adapter@D@__crt_stdio_input@@@0@AAUfloating_point_string@0@@Z 00441730 f i libucrt:input.obj
 0001:00040b97       ??$parse_floating_point_possible_infinity@DV?$input_adapter_character_source@V?$string_input_adapter@D@__crt_stdio_input@@@__crt_strtox@@_K@__crt_strtox@@YA?AW4floating_point_parse_result@0@AADAAV?$input_adapter_character_source@V?$string_input_adapter@D@__crt_stdio_input@@@0@_K@Z 00441b97 f i libucrt:input.obj
 0001:00040c58       ??$parse_floating_point_possible_nan@DV?$input_adapter_character_source@V?$string_input_adapter@D@__crt_stdio_input@@@__crt_strtox@@_K@__crt_strtox@@YA?AW4floating_point_parse_result@0@AADAAV?$input_adapter_character_source@V?$string_input_adapter@D@__crt_stdio_input@@@0@_K@Z 00441c58 f i libucrt:input.obj
 0001:00040d6a       ??$parse_floating_point_possible_nan_is_ind@DV?$input_adapter_character_source@V?$string_input_adapter@D@__crt_stdio_input@@@__crt_strtox@@@__crt_strtox@@YA_NAADAAV?$input_adapter_character_source@V?$string_input_adapter@D@__crt_stdio_input@@@0@@Z 00441d6a f i libucrt:input.obj
 0001:00040da4       ??$parse_floating_point_possible_nan_is_snan@DV?$input_adapter_character_source@V?$string_input_adapter@D@__crt_stdio_input@@@__crt_strtox@@@__crt_strtox@@YA_NAADAAV?$input_adapter_character_source@V?$string_input_adapter@D@__crt_stdio_input@@@0@@Z 00441da4 f i libucrt:input.obj
 0001:00040dde       ??$parse_integer@_KV?$input_adapter_character_source@V?$string_input_adapter@D@__crt_stdio_input@@@__crt_strtox@@@__crt_strtox@@YA_KQAU__crt_locale_pointers@@V?$input_adapter_character_source@V?$string_input_adapter@D@__crt_stdio_input@@@0@H_N@Z 00441dde f i libucrt:input.obj
 0001:00041091       ??$process_floating_point_specifier_t@M@?$input_processor@DV?$string_input_adapter@D@__crt_stdio_input@@@__crt_stdio_input@@AAE_NXZ 00442091 f i libucrt:input.obj
 0001:000410f9       ??$process_floating_point_specifier_t@N@?$input_processor@DV?$string_input_adapter@D@__crt_stdio_input@@@__crt_stdio_input@@AAE_NXZ 004420f9 f i libucrt:input.obj
 0001:00041161       ??$process_string_specifier_tchar@D@?$input_processor@DV?$string_input_adapter@D@__crt_stdio_input@@@__crt_stdio_input@@AAE_NW4conversion_mode@1@D@Z 00442161 f i libucrt:input.obj
 0001:000412c3       ??$process_string_specifier_tchar@_W@?$input_processor@DV?$string_input_adapter@D@__crt_stdio_input@@@__crt_stdio_input@@AAE_NW4conversion_mode@1@_W@Z 004422c3 f i libucrt:input.obj
 0001:0004142f       ??$skip_whitespace@Vstring_input_adapter@__crt_stdio_input@@D@__crt_stdio_input@@YAHAAV?$string_input_adapter@D@0@QAU__crt_locale_pointers@@@Z 0044242f f i libucrt:input.obj
 0001:0004145e       ??$write_floating_point@M@?$input_processor@DV?$string_input_adapter@D@__crt_stdio_input@@@__crt_stdio_input@@AAE_NABM@Z 0044245e f i libucrt:input.obj
 0001:00041495       ??$write_floating_point@N@?$input_processor@DV?$string_input_adapter@D@__crt_stdio_input@@@__crt_stdio_input@@AAE_NABN@Z 00442495 f i libucrt:input.obj
 0001:000414d2       ??0?$format_string_parser@D@__crt_stdio_input@@QAE@_KQBE@Z 004424d2 f i libucrt:input.obj
 0001:0004151c       ??0?$input_adapter_character_source@V?$string_input_adapter@D@__crt_stdio_input@@@__crt_strtox@@QAE@QAV?$string_input_adapter@D@__crt_stdio_input@@_KQA_N@Z 0044251c f i libucrt:input.obj
 0001:0004154d       ??0?$input_processor@DV?$string_input_adapter@D@__crt_stdio_input@@@__crt_stdio_input@@QAE@ABV?$string_input_adapter@D@1@_KQBDQAU__crt_locale_pointers@@QAD@Z 0044254d f i libucrt:input.obj
 0001:000415bf       ?advance@?$format_string_parser@D@__crt_stdio_input@@QAE_NXZ 004425bf f i libucrt:input.obj
 0001:000416df       ?get@?$input_adapter_character_source@V?$string_input_adapter@D@__crt_stdio_input@@@__crt_strtox@@QAEDXZ 004426df f i libucrt:input.obj
 0001:00041719       ?get@?$string_input_adapter@D@__crt_stdio_input@@QAEHXZ 00442719 f i libucrt:input.obj
 0001:0004172f       ?invert@?$scanset_buffer@E@__crt_stdio_input@@QAEXXZ 0044272f f i libucrt:input.obj
 0001:0004174d       ?is_character_allowed_in_string@?$input_processor@DV?$string_input_adapter@D@__crt_stdio_input@@@__crt_stdio_input@@ABE_NW4conversion_mode@2@H@Z 0044274d f i libucrt:input.obj
 0001:00041793       ?length@?$format_string_parser@D@__crt_stdio_input@@QBEIXZ 00442793 f i libucrt:input.obj
 0001:000417d4       ?process@?$input_processor@DV?$string_input_adapter@D@__crt_stdio_input@@@__crt_stdio_input@@QAEHXZ 004427d4 f i libucrt:input.obj
 0001:00041859       ?process_character_count_specifier@?$input_processor@DV?$string_input_adapter@D@__crt_stdio_input@@@__crt_stdio_input@@AAE_NXZ 00442859 f i libucrt:input.obj
 0001:00041873       ?process_conversion_specifier@?$input_processor@DV?$string_input_adapter@D@__crt_stdio_input@@@__crt_stdio_input@@AAE_NXZ 00442873 f i libucrt:input.obj
 0001:000418e7       ?process_floating_point_specifier@?$input_processor@DV?$string_input_adapter@D@__crt_stdio_input@@@__crt_stdio_input@@AAE_NXZ 004428e7 f i libucrt:input.obj
 0001:00041917       ?process_integer_specifier@?$input_processor@DV?$string_input_adapter@D@__crt_stdio_input@@@__crt_stdio_input@@AAE_NI_N@Z 00442917 f i libucrt:input.obj
 0001:0004197d       ?process_literal_character@?$input_processor@DV?$string_input_adapter@D@__crt_stdio_input@@@__crt_stdio_input@@AAE_NXZ 0044297d f i libucrt:input.obj
 0001:000419b3       ?process_literal_character_tchar@?$input_processor@DV?$string_input_adapter@D@__crt_stdio_input@@@__crt_stdio_input@@AAE_ND@Z 004429b3 f i libucrt:input.obj
 0001:00041a09       ?process_state@?$input_processor@DV?$string_input_adapter@D@__crt_stdio_input@@@__crt_stdio_input@@AAE_NXZ 00442a09 f i libucrt:input.obj
 0001:00041a3f       ?process_string_specifier@?$input_processor@DV?$string_input_adapter@D@__crt_stdio_input@@@__crt_stdio_input@@AAE_NW4conversion_mode@2@@Z 00442a3f f i libucrt:input.obj
 0001:00041a87       ?process_whitespace@?$input_processor@DV?$string_input_adapter@D@__crt_stdio_input@@@__crt_stdio_input@@AAE_NXZ 00442a87 f i libucrt:input.obj
 0001:00041aa4       ?restore_state@?$input_adapter_character_source@V?$string_input_adapter@D@__crt_stdio_input@@@__crt_strtox@@QAE_N_K@Z 00442aa4 f i libucrt:input.obj
 0001:00041ac9       ?scan_conversion_specifier@?$format_string_parser@D@__crt_stdio_input@@AAE_NXZ 00442ac9 f i libucrt:input.obj
 0001:00041c34       ?scan_optional_field_width@?$format_string_parser@D@__crt_stdio_input@@AAE_NXZ 00442c34 f i libucrt:input.obj
 0001:00041cd3       ?scan_optional_length_modifier@?$format_string_parser@D@__crt_stdio_input@@AAEXXZ 00442cd3 f i libucrt:input.obj
 0001:00041df3       ?scan_optional_literal_character_trail_bytes_tchar@?$format_string_parser@D@__crt_stdio_input@@AAE_ND@Z 00442df3 f i libucrt:input.obj
 0001:00041e48       ?scan_optional_wide_modifier@?$format_string_parser@D@__crt_stdio_input@@AAEXXZ 00442e48 f i libucrt:input.obj
 0001:00041e66       ?scan_scanset_range@?$format_string_parser@D@__crt_stdio_input@@AAE_NXZ 00442e66 f i libucrt:input.obj
 0001:00041f71       ?set@?$scanset_buffer@E@__crt_stdio_input@@QAEXE@Z 00442f71 f i libucrt:input.obj
 0001:00041f9c       ?set_wide_for_c_s_or_scanset@?$format_string_parser@D@__crt_stdio_input@@AAEXXZ 00442f9c f i libucrt:input.obj
 0001:00041fbc       ?test@?$scanset_buffer@E@__crt_stdio_input@@QBE_NE@Z 00442fbc f i libucrt:input.obj
 0001:00041fed       ?to_floating_point_length@__crt_stdio_input@@YAIW4length_modifier@1@@Z 00442fed f i libucrt:input.obj
 0001:00042010       ?to_integer_length@__crt_stdio_input@@YAIW4length_modifier@1@@Z 00443010 f i libucrt:input.obj
 0001:00042068       ?unget@?$input_adapter_character_source@V?$string_input_adapter@D@__crt_stdio_input@@@__crt_strtox@@QAEXD@Z 00443068 f i libucrt:input.obj
 0001:000420a9       ?unget@?$string_input_adapter@D@__crt_stdio_input@@QAEXH@Z 004430a9 f i libucrt:input.obj
 0001:000420c8       ?validate@?$format_string_parser@D@__crt_stdio_input@@QBE_NXZ 004430c8 f i libucrt:input.obj
 0001:000420e4       ?validate@?$input_adapter_character_source@V?$string_input_adapter@D@__crt_stdio_input@@@__crt_strtox@@QBE_NXZ 004430e4 f i libucrt:input.obj
 0001:00042105       ?validate@?$string_input_adapter@D@__crt_stdio_input@@QAE_NXZ 00443105 f i libucrt:input.obj
 0001:00042127       ?write_character@?$input_processor@DV?$string_input_adapter@D@__crt_stdio_input@@@__crt_stdio_input@@AAE_NQA_WIAAPA_WAAID@Z 00443127 f i libucrt:input.obj
 0001:00042198       ?write_integer@?$input_processor@DV?$string_input_adapter@D@__crt_stdio_input@@@__crt_stdio_input@@AAE_N_K_N@Z 00443198 f i libucrt:input.obj
 0001:0004220f       ___stdio_common_vsscanf    0044320f f   libucrt:input.obj
 0001:00042233       __calloc_base              00443233 f   libucrt:calloc_base.obj
 0001:00042290       __free_base                00443290 f   libucrt:free_base.obj
 0001:000422ca       _strcpy_s                  004432ca f   libucrt:strcpy_s.obj
 0001:00042324       __malloc_base              00443324 f   libucrt:malloc_base.obj
 0001:00042372       ??$is_overflow_condition@K@__crt_strtox@@YA_NIK@Z 00443372 f i libucrt:atox.obj
 0001:000423a5       ??$parse_integer@KV?$c_string_character_source@D@__crt_strtox@@@__crt_strtox@@YAKQAU__crt_locale_pointers@@V?$c_string_character_source@D@0@H_N@Z 004433a5 f i libucrt:atox.obj
 0001:000425cd       ??$parse_integer@_KV?$c_string_character_source@D@__crt_strtox@@@__crt_strtox@@YA_KQAU__crt_locale_pointers@@V?$c_string_character_source@D@0@H_N@Z 004435cd f i libucrt:atox.obj
 0001:00042875       _atol                      00443875 f   libucrt:atox.obj
 0001:0004289f       __seh_filter_exe           0044389f f   libucrt:exception_filter.obj
 0001:00042a12       __query_app_type           00443a12 f   libucrt:report_runtime_error.obj
 0001:00042a18       __set_app_type             00443a18 f   libucrt:report_runtime_error.obj
 0001:00042a27       ___acrt_has_user_matherr   00443a27 f   libucrt:matherr.obj
 0001:00042a40       ___acrt_initialize_user_matherr 00443a40 f   libucrt:matherr.obj
 0001:00042a54       ___acrt_invoke_user_matherr 00443a54 f   libucrt:matherr.obj
 0001:00042a9d       ___setusermatherr          00443a9d f   libucrt:matherr.obj
 0001:00042d5d       ___acrt_allocate_buffer_for_argv 00443d5d f   libucrt:argv_parsing.obj
 0001:00042db2       __configure_narrow_argv    00443db2 f   libucrt:argv_parsing.obj
 0001:00042fc1       ??$uninitialize@A6AXAAPAPA_W@Z@?$dual_state_global@PAPA_W@__crt_state_management@@QAEXA6AXAAPAPA_W@Z@Z 00443fc1 f i libucrt:environment_initialization.obj
 0001:00042fc1       ??$uninitialize@A6AXAAPAPAD@Z@?$dual_state_global@PAPAD@__crt_state_management@@QAEXA6AXAAPAPAD@Z@Z 00443fc1 f i libucrt:environment_initialization.obj
 0001:00043037       ___dcrt_get_or_create_narrow_environment_nolock 00444037 f   libucrt:environment_initialization.obj
 0001:0004303c       ___dcrt_uninitialize_environments_nolock 0044403c f   libucrt:environment_initialization.obj
 0001:00043073       __get_initial_narrow_environment 00444073 f   libucrt:environment_initialization.obj
 0001:00043087       __initialize_narrow_environment 00444087 f   libucrt:environment_initialization.obj
 0001:0004308c       __initterm                 0044408c f   libucrt:initterm.obj
 0001:000430e8       __initterm_e               004440e8 f   libucrt:initterm.obj
 0001:0004312d       ??$?RV<lambda_03b1d95aef87969028cfba75ccab2455>@@AAV<lambda_6e4b09c48022b2350581041d5f6b0c4c>@@V<lambda_22bdf7517842c4b3e53723af5aa32b9e>@@@?$__crt_seh_guarded_call@X@@QAEX$$QAV<lambda_03b1d95aef87969028cfba75ccab2455>@@AAV<lambda_6e4b09c48022b2350581041d5f6b0c4c>@@$$QAV<lambda_22bdf7517842c4b3e53723af5aa32b9e>@@@Z 0044412d f i libucrt:exit.obj
 0001:00043170       ??$__acrt_lock_and_call@V<lambda_6e4b09c48022b2350581041d5f6b0c4c>@@@@YAXW4__acrt_lock_id@@$$QAV<lambda_6e4b09c48022b2350581041d5f6b0c4c>@@@Z 00444170 f i libucrt:exit.obj
 0001:00043389       ___acrt_initialize_thread_local_exit_callback 00444389 f   libucrt:exit.obj
 0001:00043398       __c_exit                   00444398 f   libucrt:exit.obj
 0001:000433a7       __cexit                    004443a7 f   libucrt:exit.obj
 0001:000433b6       __exit                     004443b6 f   libucrt:exit.obj
 0001:000433cc       __register_thread_local_exe_atexit_callback 004443cc f   libucrt:exit.obj
 0001:00043404       _exit                      00444404 f   libucrt:exit.obj
 0001:0004341a       ___acrt_initialize_command_line 0044441a f   libucrt:argv_data.obj
 0001:00043433       ___p___argc                00444433 f   libucrt:argv_data.obj
 0001:00043439       ___p___argv                00444439 f   libucrt:argv_data.obj
 0001:0004343f       ??$?RV<lambda_e5124f882df8998aaf41531e079ba474>@@AAV<lambda_3e16ef9562a7dcce91392c22ab16ea36>@@V<lambda_e25ca0880e6ef98be67edffd8c599615>@@@?$__crt_seh_guarded_call@X@@QAEX$$QAV<lambda_e5124f882df8998aaf41531e079ba474>@@AAV<lambda_3e16ef9562a7dcce91392c22ab16ea36>@@$$QAV<lambda_e25ca0880e6ef98be67edffd8c599615>@@@Z 0044443f f i libucrt:wsetlocale.obj
 0001:00043488       ??$__acrt_lock_and_call@V<lambda_3e16ef9562a7dcce91392c22ab16ea36>@@@@YAXW4__acrt_lock_id@@$$QAV<lambda_3e16ef9562a7dcce91392c22ab16ea36>@@@Z 00444488 f i libucrt:wsetlocale.obj
 0001:000434b0       ??$uninitialize@V<lambda_88ce03f932007f29bf8b8056cbaba4f3>@@@?$dual_state_global@PAU__crt_locale_data@@@__crt_state_management@@QAEX$$QAV<lambda_88ce03f932007f29bf8b8056cbaba4f3>@@@Z 004444b0 f i libucrt:wsetlocale.obj
 0001:000434df       ___acrt_set_locale_changed 004444df f   libucrt:wsetlocale.obj
 0001:000434ea       ___acrt_uninitialize_locale 004444ea f   libucrt:wsetlocale.obj
 0001:00043501       __configthreadlocale       00444501 f   libucrt:wsetlocale.obj
 0001:00043563       __query_new_mode           00444563 f   libucrt:new_mode.obj
 0001:00043569       __set_new_mode             00444569 f   libucrt:new_mode.obj
 0001:00043598       ___p__commode              00444598 f   libucrt:ncommode.obj
 0001:000437aa       __localtime32              004447aa f   libucrt:localtime.obj
 0001:000437aa       _localtime                 004447aa f   libucrt:localtime.obj
 0001:0004384e       _time                      0044484e f   libucrt:time.obj
 0001:0004384e       __time32                   0044484e f   libucrt:time.obj
 0001:00043880       ??$?RV<lambda_69a2805e680e0e292e8ba93315fe43a8>@@AAV<lambda_f03950bc5685219e0bcd2087efbe011e>@@V<lambda_03fcd07e894ec930e3f35da366ca99d6>@@@?$__crt_seh_guarded_call@H@@QAEH$$QAV<lambda_69a2805e680e0e292e8ba93315fe43a8>@@AAV<lambda_f03950bc5685219e0bcd2087efbe011e>@@$$QAV<lambda_03fcd07e894ec930e3f35da366ca99d6>@@@Z 00444880 f i libucrt:onexit.obj
 0001:000438d1       ??$?RV<lambda_8e746cf0007f6ed984d6f78af1fec997>@@AAV<lambda_22ebabd17bc4fa466a2aca6d8deb888d>@@V<lambda_18ed0c0b38a6dc0daf1e7ac6d6adf05e>@@@?$__crt_seh_guarded_call@H@@QAEH$$QAV<lambda_8e746cf0007f6ed984d6f78af1fec997>@@AAV<lambda_22ebabd17bc4fa466a2aca6d8deb888d>@@$$QAV<lambda_18ed0c0b38a6dc0daf1e7ac6d6adf05e>@@@Z 004448d1 f i libucrt:onexit.obj
 0001:00043922       ??$__acrt_lock_and_call@V<lambda_22ebabd17bc4fa466a2aca6d8deb888d>@@@@YAHW4__acrt_lock_id@@$$QAV<lambda_22ebabd17bc4fa466a2aca6d8deb888d>@@@Z 00444922 f i libucrt:onexit.obj
 0001:0004394a       ??$__acrt_lock_and_call@V<lambda_f03950bc5685219e0bcd2087efbe011e>@@@@YAHW4__acrt_lock_id@@$$QAV<lambda_f03950bc5685219e0bcd2087efbe011e>@@@Z 0044494a f i libucrt:onexit.obj
 0001:00043972       ??$__crt_fast_encode_pointer@P6AHXZ@@YAP6AHXZQ6AHXZ@Z 00444972 f i libucrt:onexit.obj
 0001:00043972       ??$__crt_fast_encode_pointer@P6GXPAXK0@Z@@YAP6GXPAXK0@ZQ6GX0K0@Z@Z 00444972 f i libucrt:exit.obj
 0001:00043972       ??$__crt_fast_encode_pointer@P6AHPAU_exception@@@Z@@YAP6AHPAU_exception@@@ZQ6AH0@Z@Z 00444972 f i libucrt:matherr.obj
 0001:00043bf0       __crt_atexit               00444bf0 f   libucrt:onexit.obj
 0001:00043c06       __execute_onexit_table     00444c06 f   libucrt:onexit.obj
 0001:00043c23       __initialize_onexit_table  00444c23 f   libucrt:onexit.obj
 0001:00043c60       __register_onexit_function 00444c60 f   libucrt:onexit.obj
 0001:00043cb0       __should_initialize_environment 00444cb0 f   LIBCMT:env_mode.obj
 0001:00043cb0       ___acrt_uninitialize_command_line 00444cb0 f   libucrt:argv_data.obj
 0001:00043d93       ___acrt_initialize         00444d93 f   libucrt:initialization.obj
 0001:00043da5       ___acrt_uninitialize       00444da5 f   libucrt:initialization.obj
 0001:00043db7       __controlfp_s              00444db7 f   libucrt:contrlfp.obj
 0001:00043e16       ??$__crt_time_elapsed_leap_years@H@@YAHH@Z 00444e16 f i libucrt:tzset.obj
 0001:00043e50       ??$__crt_time_is_leap_year@H@@YA_NH@Z 00444e50 f i libucrt:tzset.obj
 0001:000445d8       ___tzset                   004455d8 f   libucrt:tzset.obj
 0001:00044629       __isindst                  00445629 f   libucrt:tzset.obj
 0001:00044673       ___acrt_call_reportfault   00445673 f   libucrt:invalid_parameter.obj
 0001:000447ae       ___acrt_initialize_invalid_parameter_handler 004457ae f   libucrt:invalid_parameter.obj
 0001:000447bd       __invalid_parameter        004457bd f   libucrt:invalid_parameter.obj
 0001:00044838       __invalid_parameter_noinfo 00445838 f   libucrt:invalid_parameter.obj
 0001:00044848       __invoke_watson            00445848 f   libucrt:invalid_parameter.obj
 0001:00044e1d       __write                    00445e1d f   libucrt:write.obj
 0001:00044f08       __write_nolock             00445f08 f   libucrt:write.obj
 0001:000454e7       ___acrt_stdio_flush_and_write_narrow_nolock 004464e7 f   libucrt:_flsbuf.obj
 0001:000454f2       ___acrt_stdio_flush_and_write_wide_nolock 004464f2 f   libucrt:_flsbuf.obj
 0001:000454fd       ___acrt_stdio_begin_temporary_buffering_nolock 004464fd f   libucrt:_sftbuf.obj
 0001:000455b2       ___acrt_stdio_end_temporary_buffering_nolock 004465b2 f   libucrt:_sftbuf.obj
 0001:000455eb       __wctomb_s_l               004465eb f   libucrt:wctomb.obj
 0001:0004570c       _wctomb_s                  0044670c f   libucrt:wctomb.obj
 0001:00045893       ___acrt_initialize_lowio   00446893 f   libucrt:ioinit.obj
 0001:000458e9       ___acrt_uninitialize_lowio 004468e9 f   libucrt:ioinit.obj
 0001:00045915       ?__acrt_stdio_free_stream@@YAXV__crt_stdio_stream@@@Z 00446915 f   libucrt:stream.obj
 0001:00045ad3       __lseeki64                 00446ad3 f   libucrt:lseek.obj
 0001:00045aee       __lseeki64_nolock          00446aee f   libucrt:lseek.obj
 0001:00045b09       _wcsncmp                   00446b09 f   libucrt:wcsncmp.obj
 0001:00045b50       _strncmp                   00446b50 f   libucrt:strncmp.obj
 0001:00045bc8       __strnicmp                 00446bc8 f   libucrt:strnicmp.obj
 0001:00045c35       __strnicmp_l               00446c35 f   libucrt:strnicmp.obj
 0001:00045cec       ___acrt_initialize_locks   00446cec f   libucrt:locks.obj
 0001:00045d2d       ___acrt_lock               00446d2d f   libucrt:locks.obj
 0001:00045d44       ___acrt_uninitialize_locks 00446d44 f   libucrt:locks.obj
 0001:00045d75       ___acrt_unlock             00446d75 f   libucrt:locks.obj
 0001:00045f24       ___acrt_AppPolicyGetProcessTerminationMethodInternal@4 00446f24 f   libucrt:winapi_thunks.obj
 0001:00045f7b       ___acrt_AppPolicyGetThreadInitializationTypeInternal@4 00446f7b f   libucrt:winapi_thunks.obj
 0001:00045fd2       ___acrt_CompareStringEx@36 00446fd2 f   libucrt:winapi_thunks.obj
 0001:00046046       ___acrt_FlsAlloc@4         00447046 f   libucrt:winapi_thunks.obj
 0001:0004609c       ___acrt_FlsFree@4          0044709c f   libucrt:winapi_thunks.obj
 0001:000460f2       ___acrt_FlsGetValue@4      004470f2 f   libucrt:winapi_thunks.obj
 0001:00046148       ___acrt_FlsSetValue@8      00447148 f   libucrt:winapi_thunks.obj
 0001:000461a1       ___acrt_GetSystemTimePreciseAsFileTime@4 004471a1 f   libucrt:winapi_thunks.obj
 0001:000461f7       ___acrt_InitializeCriticalSectionEx@12 004471f7 f   libucrt:winapi_thunks.obj
 0001:00046259       ___acrt_LCMapStringEx@36   00447259 f   libucrt:winapi_thunks.obj
 0001:000462cd       ___acrt_LocaleNameToLCID@8 004472cd f   libucrt:winapi_thunks.obj
 0001:00046315       ___acrt_RoInitialize@4     00447315 f   libucrt:winapi_thunks.obj
 0001:00046367       ___acrt_RoUninitialize@0   00447367 f   libucrt:winapi_thunks.obj
 0001:000463b0       ___acrt_initialize_winapi_thunks 004473b0 f   libucrt:winapi_thunks.obj
 0001:000463d6       ___acrt_uninitialize_winapi_thunks 004473d6 f   libucrt:winapi_thunks.obj
 0001:0004640c       ??$?RV<lambda_218ce3db14220d0be481dae8ef3383b6>@@AAV<lambda_628dfdc04ba53c8bfc02c9951375f3f5>@@V<lambda_57dc472bd5c9d5f3b2cbca59b8a843ae>@@@?$__crt_seh_guarded_call@H@@QAEH$$QAV<lambda_218ce3db14220d0be481dae8ef3383b6>@@AAV<lambda_628dfdc04ba53c8bfc02c9951375f3f5>@@$$QAV<lambda_57dc472bd5c9d5f3b2cbca59b8a843ae>@@@Z 0044740c f i libucrt:close.obj
 0001:0004648e       ??$__acrt_lowio_lock_fh_and_call@V<lambda_628dfdc04ba53c8bfc02c9951375f3f5>@@@@YAHH$$QAV<lambda_628dfdc04ba53c8bfc02c9951375f3f5>@@@Z 0044748e f i libucrt:close.obj
 0001:000464b6       __close                    004474b6 f   libucrt:close.obj
 0001:00046535       __close_nolock             00447535 f   libucrt:close.obj
 0001:000465d1       ___acrt_stdio_free_buffer_nolock 004475d1 f   libucrt:_freebuf.obj
 0001:0004660f       ??$?RV<lambda_9e9de3de5fa147e2223d7db92bc10aa6>@@AAV<lambda_38ce7e780aa69e748d6df282ebc68efe>@@V<lambda_8ca6da459f0f6780f1cff60fdc3d00e5>@@@?$__crt_seh_guarded_call@H@@QAEH$$QAV<lambda_9e9de3de5fa147e2223d7db92bc10aa6>@@AAV<lambda_38ce7e780aa69e748d6df282ebc68efe>@@$$QAV<lambda_8ca6da459f0f6780f1cff60fdc3d00e5>@@@Z 0044760f f i libucrt:commit.obj
 0001:000466a7       ??$__acrt_lowio_lock_fh_and_call@V<lambda_38ce7e780aa69e748d6df282ebc68efe>@@@@YAHH$$QAV<lambda_38ce7e780aa69e748d6df282ebc68efe>@@@Z 004476a7 f i libucrt:commit.obj
 0001:000466cf       __commit                   004476cf f   libucrt:commit.obj
 0001:0004673e       _strtol                    0044773e f   libucrt:strtox.obj
 0001:0004676a       _strtoull                  0044776a f   libucrt:strtox.obj
 0001:00046796       ??$?RV<lambda_15ade71b0218206bbe3333a0c9b79046>@@AAV<lambda_da44e0f8b0f19ba52fefafb335991732>@@V<lambda_207f2d024fc103971653565357d6cd41>@@@?$__crt_seh_guarded_call@X@@QAEX$$QAV<lambda_15ade71b0218206bbe3333a0c9b79046>@@AAV<lambda_da44e0f8b0f19ba52fefafb335991732>@@$$QAV<lambda_207f2d024fc103971653565357d6cd41>@@@Z 00447796 f i libucrt:per_thread_data.obj
 0001:000467de       ??$?RV<lambda_38edbb1296d33220d7e4dd0ed76b244a>@@AAV<lambda_5ce1d447e08cb34b2473517608e21441>@@V<lambda_fb385d3da700c9147fc39e65dd577a8c>@@@?$__crt_seh_guarded_call@X@@QAEX$$QAV<lambda_38edbb1296d33220d7e4dd0ed76b244a>@@AAV<lambda_5ce1d447e08cb34b2473517608e21441>@@$$QAV<lambda_fb385d3da700c9147fc39e65dd577a8c>@@@Z 004477de f i libucrt:per_thread_data.obj
 0001:0004683f       ??$?RV<lambda_6affb1475c98b40b75cdec977db92e3c>@@AAV<lambda_b8d4b9c228a6ecc3f80208dbb4b4a104>@@V<lambda_608742c3c92a14382c1684fc64f96c88>@@@?$__crt_seh_guarded_call@X@@QAEX$$QAV<lambda_6affb1475c98b40b75cdec977db92e3c>@@AAV<lambda_b8d4b9c228a6ecc3f80208dbb4b4a104>@@$$QAV<lambda_608742c3c92a14382c1684fc64f96c88>@@@Z 0044783f f i libucrt:per_thread_data.obj
 0001:0004688a       ??$?RV<lambda_a7e850c220f1c8d1e6efeecdedd162c6>@@AAV<lambda_46720907175c18b6c9d2717bc0d2d362>@@V<lambda_9048902d66e8d99359bc9897bbb930a8>@@@?$__crt_seh_guarded_call@X@@QAEX$$QAV<lambda_a7e850c220f1c8d1e6efeecdedd162c6>@@AAV<lambda_46720907175c18b6c9d2717bc0d2d362>@@$$QAV<lambda_9048902d66e8d99359bc9897bbb930a8>@@@Z 0044788a f i libucrt:per_thread_data.obj
 0001:000468da       ??$__acrt_lock_and_call@V<lambda_46720907175c18b6c9d2717bc0d2d362>@@@@YAXW4__acrt_lock_id@@$$QAV<lambda_46720907175c18b6c9d2717bc0d2d362>@@@Z 004478da f i libucrt:per_thread_data.obj
 0001:00046902       ??$__acrt_lock_and_call@V<lambda_5ce1d447e08cb34b2473517608e21441>@@@@YAXW4__acrt_lock_id@@$$QAV<lambda_5ce1d447e08cb34b2473517608e21441>@@@Z 00447902 f i libucrt:per_thread_data.obj
 0001:0004692a       ??$__acrt_lock_and_call@V<lambda_b8d4b9c228a6ecc3f80208dbb4b4a104>@@@@YAXW4__acrt_lock_id@@$$QAV<lambda_b8d4b9c228a6ecc3f80208dbb4b4a104>@@@Z 0044792a f i libucrt:per_thread_data.obj
 0001:00046952       ??$__acrt_lock_and_call@V<lambda_da44e0f8b0f19ba52fefafb335991732>@@@@YAXW4__acrt_lock_id@@$$QAV<lambda_da44e0f8b0f19ba52fefafb335991732>@@@Z 00447952 f i libucrt:per_thread_data.obj
 0001:00046b08       ___acrt_getptd             00447b08 f   libucrt:per_thread_data.obj
 0001:00046bbc       ___acrt_getptd_head        00447bbc f   libucrt:per_thread_data.obj
 0001:00046c56       ___acrt_getptd_noexit      00447c56 f   libucrt:per_thread_data.obj
 0001:00046d09       ___acrt_initialize_ptd     00447d09 f   libucrt:per_thread_data.obj
 0001:00046d35       ___acrt_uninitialize_ptd   00447d35 f   libucrt:per_thread_data.obj
 0001:00046d4f       ___acrt_uninitialize_tmpfile 00447d4f f   libucrt:rmtmp.obj
 0001:00046d59       __rmtmp                    00447d59 f   libucrt:rmtmp.obj
 0001:00046df0       __fcloseall                00447df0 f   libucrt:closeall.obj
 0001:00046e90       ___acrt_stdio_allocate_buffer_nolock 00447e90 f   libucrt:_getbuf.obj
 0001:00046eed       ___sys_errlist             00447eed f   libucrt:syserr.obj
 0001:00046ef3       ___sys_nerr                00447ef3 f   libucrt:syserr.obj
 0001:00046faa       _strncpy_s                 00447faa f   libucrt:strncpy_s.obj
 0001:00046fb5       __realloc_base             00447fb5 f   libucrt:realloc_base.obj
 0001:0004701e       __strnicoll                0044801e f   libucrt:strnicol.obj
 0001:00047047       __strnicoll_l              00448047 f   libucrt:strnicol.obj
 0001:00047111       __mbtowc_l                 00448111 f   libucrt:mbtowc.obj
 0001:0004720b       _mbtowc                    0044820b f   libucrt:mbtowc.obj
 0001:00047225       ___pctype_func             00448225 f   libucrt:ctype.obj
 0001:0004724b       ___acrt_get_begin_thread_init_policy 0044824b f   libucrt:win_policies.obj
 0001:0004727d       ___acrt_get_process_end_policy 0044827d f   libucrt:win_policies.obj
 0001:0004729d       __isleadbyte_l             0044829d f i libucrt:_wctype.obj
 0001:000472d6       __isctype_l                004482d6 f   libucrt:isctype.obj
 0001:000475c5       ___acrt_LCMapStringA       004485c5 f   libucrt:lcmapstringa.obj
 0001:00047610       __freea_crt                00448610 f i libucrt:lcmapstringa.obj
 0001:00047630       ___acrt_update_locale_info 00448630 f   libucrt:locale_update.obj
 0001:0004765d       ___acrt_update_multibyte_info 0044865d f   libucrt:locale_update.obj
 0001:0004768a       ??$?RV<lambda_cbab9ec6f41b0180b23cc171c22676b0>@@AAV<lambda_44731a7d0e6d81c3e6aa82d741081786>@@V<lambda_4b292cb8dd18144e164572427af410ab>@@@?$__crt_seh_guarded_call@P6AXH@Z@@QAEP6AXH@Z$$QAV<lambda_cbab9ec6f41b0180b23cc171c22676b0>@@AAV<lambda_44731a7d0e6d81c3e6aa82d741081786>@@$$QAV<lambda_4b292cb8dd18144e164572427af410ab>@@@Z 0044868a f i libucrt:signal.obj
 0001:000476e4       ??$__acrt_lock_and_call@V<lambda_44731a7d0e6d81c3e6aa82d741081786>@@@@YAP6AXH@ZW4__acrt_lock_id@@$$QAV<lambda_44731a7d0e6d81c3e6aa82d741081786>@@@Z 004486e4 f i libucrt:signal.obj
 0001:00047776       ___acrt_get_sigabrt_handler 00448776 f   libucrt:signal.obj
 0001:0004778d       ___acrt_initialize_signal_handlers 0044878d f   libucrt:signal.obj
 0001:000477c8       ___fpecode                 004487c8 f   libucrt:signal.obj
 0001:000477d1       _raise                     004487d1 f   libucrt:signal.obj
 0001:000479d9       _fegetround                004489d9 f   libucrt:fegetround.obj
 0001:000479e4       ?__acrt_fp_classify@@YA?AW4__acrt_fp_class@@ABN@Z 004489e4 f i libucrt:cvt.obj
 0001:00047a4c       ?__acrt_fp_is_negative@@YA_NABN@Z 00448a4c f i libucrt:cvt.obj
 0001:000482bc       ___acrt_fp_format          004492bc f   libucrt:cvt.obj
 0001:00048406       __get_printf_count_output  00449406 f   libucrt:printf_count_output.obj
 0001:0004841b       ?initialize@?$dual_state_global@P6AHI@Z@__crt_state_management@@QAEXQ6AHI@Z@Z 0044941b f i libucrt:new_handler.obj
 0001:0004841b       ?initialize@?$dual_state_global@P6AXH@Z@__crt_state_management@@QAEXQ6AXH@Z@Z 0044941b f i libucrt:signal.obj
 0001:0004841b       ?initialize@?$dual_state_global@J@__crt_state_management@@QAEXJ@Z 0044941b f i libucrt:timeset.obj
 0001:0004841b       ?initialize@?$dual_state_global@H@__crt_state_management@@QAEXH@Z 0044941b f i libucrt:timeset.obj
 0001:0004841b       ?initialize@?$dual_state_global@P6AHPAU_exception@@@Z@__crt_state_management@@QAEXQ6AHPAU_exception@@@Z@Z 0044941b f i libucrt:matherr.obj
 0001:0004841b       ?initialize@?$dual_state_global@PAPAD@__crt_state_management@@QAEXQAPAD@Z 0044941b f i libucrt:environment_initialization.obj
 0001:0004841b       ?initialize@?$dual_state_global@PAU__crt_locale_data@@@__crt_state_management@@QAEXQAU__crt_locale_data@@@Z 0044941b f i libucrt:initialization.obj
 0001:0004841b       ?initialize@?$dual_state_global@PAU__crt_multibyte_data@@@__crt_state_management@@QAEXQAU__crt_multibyte_data@@@Z 0044941b f i libucrt:mbctype.obj
 0001:0004844c       ___acrt_initialize_new_handler 0044944c f   libucrt:new_handler.obj
 0001:00048460       __callnewh                 00449460 f   libucrt:new_handler.obj
 0001:000484a4       __query_new_handler        004494a4 f   libucrt:new_handler.obj
 0001:000484f6       ___acrt_initialize_heap    004494f6 f   libucrt:heap_handle.obj
 0001:00048507       ___acrt_uninitialize_heap  00449507 f   libucrt:heap_handle.obj
 0001:000489c8       ___acrt_expand_narrow_argv_wildcards 004499c8 f   libucrt:argv_wildcards.obj
 0001:000489d3       ??$?RV<lambda_ceb1ee4838e85a9d631eb091e2fbe199>@@AAV<lambda_ae742caa10f662c28703da3d2ea5e57e>@@V<lambda_cd08b5d6af4937fe54fc07d0c9bf6b37>@@@?$__crt_seh_guarded_call@X@@QAEX$$QAV<lambda_ceb1ee4838e85a9d631eb091e2fbe199>@@AAV<lambda_ae742caa10f662c28703da3d2ea5e57e>@@$$QAV<lambda_cd08b5d6af4937fe54fc07d0c9bf6b37>@@@Z 004499d3 f i libucrt:mbctype.obj
 0001:00048a16       ??$__acrt_lock_and_call@V<lambda_ae742caa10f662c28703da3d2ea5e57e>@@@@YAXW4__acrt_lock_id@@$$QAV<lambda_ae742caa10f662c28703da3d2ea5e57e>@@@Z 00449a16 f i libucrt:mbctype.obj
 0001:00048f0b       ___acrt_initialize_multibyte 00449f0b f   libucrt:mbctype.obj
 0001:00048f58       ___acrt_update_thread_multibyte_data 00449f58 f   libucrt:mbctype.obj
 0001:00048f6c       __setmbcp_nolock           00449f6c f   libucrt:mbctype.obj
 0001:000491b6       __ismbblead                0044a1b6 f   libucrt:ismbbyte.obj
 0001:00049205       ___dcrt_get_narrow_environment_from_os 0044a205 f   libucrt:get_environment_from_os.obj
 0001:000495ee       ___dcrt_set_variable_in_narrow_environment_nolock 0044a5ee f   libucrt:setenv.obj
 0001:000495f9       ____lc_codepage_func       0044a5f9 f   libucrt:initctype.obj
 0001:00049620       ___acrt_locale_free_monetary 0044a620 f   libucrt:initmon.obj
 0001:0004971e       ___acrt_locale_free_numeric 0044a71e f   libucrt:initnum.obj
 0001:000497c3       ___acrt_locale_free_time   0044a7c3 f   libucrt:inittime.obj
 0001:000498a7       ___acrt_GetStringTypeA     0044a8a7 f   libucrt:getstringtypea.obj
 0001:000499c4       ___acrt_add_locale_ref     0044a9c4 f   libucrt:locale_refcounting.obj
 0001:00049a41       ___acrt_free_locale        0044aa41 f   libucrt:locale_refcounting.obj
 0001:00049b8b       ___acrt_locale_add_lc_time_reference 0044ab8b f   libucrt:locale_refcounting.obj
 0001:00049bb4       ___acrt_locale_free_lc_time_if_unreferenced 0044abb4 f   libucrt:locale_refcounting.obj
 0001:00049be4       ___acrt_locale_release_lc_time_reference 0044abe4 f   libucrt:locale_refcounting.obj
 0001:00049c0d       ___acrt_release_locale_ref 0044ac0d f   libucrt:locale_refcounting.obj
 0001:00049c8e       ___acrt_update_thread_locale_data 0044ac8e f   libucrt:locale_refcounting.obj
 0001:00049d05       __updatetlocinfoEx_nolock  0044ad05 f   libucrt:locale_refcounting.obj
 0001:00049d55       ___acrt_initialize_timeset 0044ad55 f   libucrt:timeset.obj
 0001:00049d8c       ___daylight                0044ad8c f   libucrt:timeset.obj
 0001:00049d92       ___dstbias                 0044ad92 f   libucrt:timeset.obj
 0001:00049d98       ___timezone                0044ad98 f   libucrt:timeset.obj
 0001:00049d9e       ___tzname                  0044ad9e f   libucrt:timeset.obj
 0001:00049da4       __get_daylight             0044ada4 f   libucrt:timeset.obj
 0001:00049dd0       __get_dstbias              0044add0 f   libucrt:timeset.obj
 0001:00049dfc       __get_timezone             0044adfc f   libucrt:timeset.obj
 0001:00049fa5       ___getgmtimebuf            0044afa5 f   libucrt:gmtime.obj
 0001:00049fe3       __gmtime32_s               0044afe3 f   libucrt:gmtime.obj
 0001:00049fee       __recalloc_base            0044afee f   libucrt:recalloc.obj
 0001:0004a05b       ___acrt_execute_initializers 0044b05b f   libucrt:shared_initialization.obj
 0001:0004a0de       ___acrt_execute_uninitializers 0044b0de f   libucrt:shared_initialization.obj
 0001:0004a1d6       __clearfp                  0044b1d6 f   libucrt:ieee87.obj
 0001:0004a2b4       __control87                0044b2b4 f   libucrt:ieee87.obj
 0001:0004a64f       __isatty                   0044b64f f   libucrt:isatty.obj
 0001:0004a6a5       __putwch_nolock            0044b6a5 f   libucrt:putwch.obj
 0001:0004a6f0       ___ascii_strnicmp          0044b6f0 f   libucrt:_strnicm.obj
 0001:0004a80d       ___acrt_DownlevelLocaleNameToLCID 0044b80d f   libucrt:lcidtoname_downlevel.obj
 0001:0004aae1       ___acrt_CompareStringA     0044bae1 f   libucrt:comparestringa.obj
 0001:0004ab29       ___strncnt                 0044bb29 f   libucrt:strncnt.obj
 0001:0004ade8       __getfpcontrolword         0044bde8 f   libucrt:_fenvutils.obj
 0001:0004ae2b       __getfpstatusword          0044be2b f   libucrt:_fenvutils.obj
 0001:0004aed3       __setfpcontrolword         0044bed3 f   libucrt:_fenvutils.obj
 0001:0004af53       __setfpstatusword          0044bf53 f   libucrt:_fenvutils.obj
 0001:0004afd3       ___acrt_fp_strflt_to_string 0044bfd3 f   libucrt:_fptostr.obj
 0001:0004b08f       ___acrt_fltout             0044c08f f   libucrt:cfout.obj
 0001:0004c510       _strpbrk                   0044d510 f   libucrt:strpbrk.obj
 0001:0004c550       __mbsdec                   0044d550 f   libucrt:mbsdec.obj
 0001:0004c567       __mbsdec_l                 0044d567 f   libucrt:mbsdec.obj
 0001:0004c603       __msize                    0044d603 f   libucrt:msize.obj
 0001:0004c60e       __msize_base               0044d60e f   libucrt:msize.obj
 0001:0004c641       ___set_fpsr_sse2           0044d641 f   libucrt:fpctrl.obj
 0001:0004c6b7       __clrfp                    0044d6b7 f   libucrt:fpctrl.obj
 0001:0004c6ca       __ctrlfp                   0044d6ca f   libucrt:fpctrl.obj
 0001:0004c6f6       __set_statfp               0044d6f6 f   libucrt:fpctrl.obj
 0001:0004c751       __statfp                   0044d751 f   libucrt:fpctrl.obj
 0001:0004c763       ___dcrt_lowio_initialize_console_output 0044d763 f   libucrt:initcon.obj
 0001:0004c782       ___dcrt_terminate_console_output 0044d782 f   libucrt:initcon.obj
 0001:0004c799       _fegetenv                  0044d799 f   libucrt:fegetenv.obj
 0001:0004c7b6       _fesetenv                  0044d7b6 f   libucrt:fesetenv.obj
 0001:0004c7ff       _feholdexcept              0044d7ff f   libucrt:feholdexcept.obj
 0001:0004c850       _log10                     0044d850 f   libucrt:log10.obj
 0001:0004c890       __CIlog10                  0044d890 f   libucrt:log10.obj
 0001:0004c8cb       __CIlog10_default          0044d8cb f   libucrt:log10.obj
 0001:0004c8df       __log10_default            0044d8df     libucrt:log10.obj
 0001:0004c9a0       _ceil                      0044d9a0 f   libucrt:ceil_pentium4.obj
 0001:0004c9e0       __ceil_pentium4            0044d9e0 f   libucrt:ceil_pentium4.obj
 0001:0004cabd       ___acrt_initialize_sse2    0044dabd f   libucrt:mathfcns.obj
 0001:0004cad0       __CIlog10_pentium4         0044dad0 f   libucrt:log10_pentium4.obj
 0001:0004cae8       __log10_pentium4           0044dae8     libucrt:log10_pentium4.obj
 0001:0004cd71       __fFEXP                    0044dd71     libucrt:87tran.obj
 0001:0004cdc8       __rtinfpopse               0044ddc8     libucrt:87tran.obj
 0001:0004cdca       __rtinfnpopse              0044ddca     libucrt:87tran.obj
 0001:0004cdda       __fFLN                     0044ddda     libucrt:87tran.obj
 0001:0004ce8f       __rtinfpop                 0044de8f     libucrt:87tran.obj
 0001:0004ce91       __rtinfnpop                0044de91     libucrt:87tran.obj
 0001:0004ceae       __ffexpm1                  0044deae     libucrt:87tran.obj
 0001:0004cf60       __trandisp1                0044df60 f   libucrt:87disp.obj
 0001:0004cfc7       __trandisp2                0044dfc7 f   libucrt:87disp.obj
 0001:0004d053       __rttospopde               0044e053     libucrt:87disp.obj
 0001:0004d058       __rttospop                 0044e058     libucrt:87disp.obj
 0001:0004d05a       __rtnospop                 0044e05a     libucrt:87disp.obj
 0001:0004d05c       __rttosnpop                0044e05c     libucrt:87disp.obj
 0001:0004d05d       __rtnospopde               0044e05d     libucrt:87disp.obj
 0001:0004d064       __rtzeropop                0044e064     libucrt:87disp.obj
 0001:0004d066       __rtzeronpop               0044e066     libucrt:87disp.obj
 0001:0004d06b       __rtzerospop               0044e06b     libucrt:87disp.obj
 0001:0004d078       __rtonepop                 0044e078     libucrt:87disp.obj
 0001:0004d07a       __rtonenpop                0044e07a     libucrt:87disp.obj
 0001:0004d07f       __tosnan1                  0044e07f     libucrt:87disp.obj
 0001:0004d0aa       __nosnan2                  0044e0aa     libucrt:87disp.obj
 0001:0004d0ac       __tosnan2                  0044e0ac     libucrt:87disp.obj
 0001:0004d0d4       __nan2                     0044e0d4     libucrt:87disp.obj
 0001:0004d113       __rtindfpop                0044e113     libucrt:87disp.obj
 0001:0004d115       __rtindfnpop               0044e115     libucrt:87disp.obj
 0001:0004d126       __rttosnpopde              0044e126     libucrt:87disp.obj
 0001:0004d130       __rtatan2inf               0044e130     libucrt:87disp.obj
 0001:0004d14d       __rtchsifneg               0044e14d     libucrt:87disp.obj
 0001:0004d160       __twoToTOS                 0044e160 f   libucrt:common.obj
 0001:0004d175       __load_CW                  0044e175 f   libucrt:common.obj
 0001:0004d18c       __convertTOStoQNaN         0044e18c f   libucrt:common.obj
 0001:0004d1a5       __fload_withFB             0044e1a5 f   libucrt:common.obj
 0001:0004d1e8       __checkTOS_withFB          0044e1e8 f   libucrt:common.obj
 0001:0004d1fe       __fast_exit                0044e1fe f   libucrt:common.obj
 0001:0004d20b       __math_exit                0044e20b f   libucrt:common.obj
 0001:0004d235       __check_overflow_exit      0044e235 f   libucrt:common.obj
 0001:0004d249       __check_range_exit         0044e249 f   libucrt:common.obj
 0001:0004d2f0       __startTwoArgErrorHandling 0044e2f0 f   libucrt:genexcep.obj
 0001:0004d307       __startOneArgErrorHandling 0044e307 f   libucrt:genexcep.obj
 0001:0004d343       ___libm_error_support      0044e343 f   libucrt:libm_error.obj
 0001:0004d55b       __ceil_default             0044e55b f   libucrt:ceil.obj
 0001:0004d614       __d_inttype                0044e614 f   libucrt:powhlp.obj
 0001:0004d67e       __powhlp                   0044e67e f   libucrt:powhlp.obj
 0001:0004d7a9       __87except                 0044e7a9 f   libucrt:87except.obj
 0001:0004d8b4       __frnd                     0044e8b4 f   libucrt:frnd.obj
 0001:0004d8ca       __errcode                  0044e8ca f   libucrt:fpexcept.obj
 0001:0004d8fe       __except1                  0044e8fe f   libucrt:fpexcept.obj
 0001:0004d9cc       __handle_exc               0044e9cc f   libucrt:fpexcept.obj
 0001:0004dbac       __raise_exc                0044ebac f   libucrt:fpexcept.obj
 0001:0004dbcf       __raise_exc_ex             0044ebcf f   libucrt:fpexcept.obj
 0001:0004dec0       __set_errno_from_matherr   0044eec0 f   libucrt:fpexcept.obj
 0001:0004deef       __umatherr                 0044eeef f   libucrt:fpexcept.obj
 0001:0004df91       __decomp                   0044ef91 f   libucrt:util.obj
 0001:0004e065       __set_exp                  0044f065 f   libucrt:util.obj
 0001:0004e094       __sptype                   0044f094 f   libucrt:util.obj
 0001:0004e0f2       __fpclass                  0044f0f2 f   libucrt:ieeemisc.obj
 0001:0004e196       _RtlUnwind@16              0044f196 f   kernel32:KERNEL32.dll
 0001:0004e19c       _IsProcessorFeaturePresent@4 0044f19c f   kernel32:KERNEL32.dll
 0001:0004e1a2       ___vcrt_initialize         0044f1a2 f   libvcruntime:initialization.obj
 0001:0004e1cb       ___vcrt_uninitialize       0044f1cb f   libvcruntime:initialization.obj
 0001:0004e1f0       _strrchr                   0044f1f0 f   libvcruntime:strrchr.obj
 0001:0004e330       _strchr                    0044f330 f   libvcruntime:strchr.obj
 0001:0004e39e       ___from_strstr_to_strchr   0044f39e     libvcruntime:strchr.obj
 0001:0004e460       __SEH_prolog4_GS           0044f460 f   LIBCMT:_sehprolg4gs_.obj
 0001:0004e4a9       __SEH_epilog4_GS           0044f4a9 f   LIBCMT:_sehprolg4gs_.obj
 0001:0004e4c0       __allmul                   0044f4c0 f   LIBCMT:llmul.obj
 0001:0004e500       __allshl                   0044f500 f   LIBCMT:llshl.obj
 0001:0004e520       __aullshr                  0044f520 f   LIBCMT:ullshr.obj
 0001:0004e540       __alldvrm                  0044f540 f   LIBCMT:lldvrm.obj
 0001:0004e620       __alloca_probe_16          0044f620 f   LIBCMT:alloca16.obj
 0001:0004e636       __alloca_probe_8           0044f636     LIBCMT:alloca16.obj
 0001:0004e650       __ftol2_sse                0044f650 f   LIBCMT:_ftol2_.obj
 0001:0004e659       __ftol2_pentium4           0044f659 f   LIBCMT:_ftol2_.obj
 0001:0004e66c       __ftol2_sse_excpt          0044f66c f   LIBCMT:_ftol2_.obj
 0001:0004e690       __ftol2                    0044f690 f   LIBCMT:_ftol2_.obj
 0002:00000000       __imp__RegOpenKeyW@12      00450000     advapi32:ADVAPI32.dll
 0002:00000004       __imp__RegSetValueExW@24   00450004     advapi32:ADVAPI32.dll
 0002:00000008       __imp__RegOpenKeyExW@20    00450008     advapi32:ADVAPI32.dll
 0002:0000000c       __imp__RegQueryValueExW@24 0045000c     advapi32:ADVAPI32.dll
 0002:00000010       __imp__RegQueryInfoKeyW@48 00450010     advapi32:ADVAPI32.dll
 0002:00000014       __imp__RegEnumValueW@32    00450014     advapi32:ADVAPI32.dll
 0002:00000018       __imp__RegEnumKeyExW@32    00450018     advapi32:ADVAPI32.dll
 0002:0000001c       __imp__RegDeleteValueW@8   0045001c     advapi32:ADVAPI32.dll
 0002:00000020       __imp__RegDeleteKeyW@8     00450020     advapi32:ADVAPI32.dll
 0002:00000024       __imp__RegCreateKeyExW@36  00450024     advapi32:ADVAPI32.dll
 0002:00000028       __imp__RegFlushKey@4       00450028     advapi32:ADVAPI32.dll
 0002:0000002c       __imp__RegCloseKey@4       0045002c     advapi32:ADVAPI32.dll
 0002:00000030       \177ADVAPI32_NULL_THUNK_DATA 00450030     advapi32:ADVAPI32.dll
 0002:00000034       __imp__CloseHandle@4       00450034     kernel32:KERNEL32.dll
 0002:00000038       __imp__WriteFile@20        00450038     kernel32:KERNEL32.dll
 0002:0000003c       __imp__FindClose@4         0045003c     kernel32:KERNEL32.dll
 0002:00000040       __imp__FormatMessageW@28   00450040     kernel32:KERNEL32.dll
 0002:00000044       __imp__LocalFree@4         00450044     kernel32:KERNEL32.dll
 0002:00000048       __imp__GetModuleHandleA@4  00450048     kernel32:KERNEL32.dll
 0002:0000004c       __imp__GetProcAddress@8    0045004c     kernel32:KERNEL32.dll
 0002:00000050       __imp__lstrlenW@4          00450050     kernel32:KERNEL32.dll
 0002:00000054       __imp__ExpandEnvironmentStringsW@12 00450054     kernel32:KERNEL32.dll
 0002:00000058       __imp__GetStdHandle@4      00450058     kernel32:KERNEL32.dll
 0002:0000005c       __imp__GetEnvironmentStringsW@0 0045005c     kernel32:KERNEL32.dll
 0002:00000060       __imp__FreeEnvironmentStringsW@4 00450060     kernel32:KERNEL32.dll
 0002:00000064       __imp__WaitForSingleObject@8 00450064     kernel32:KERNEL32.dll
 0002:00000068       __imp__TerminateProcess@8  00450068     kernel32:KERNEL32.dll
 0002:0000006c       __imp__GetCurrentProcessId@0 0045006c     kernel32:KERNEL32.dll
 0002:00000070       __imp__GetCurrentThreadId@0 00450070     kernel32:KERNEL32.dll
 0002:00000074       __imp__GetCurrentProcess@0 00450074     kernel32:KERNEL32.dll
 0002:00000078       __imp__LoadLibraryA@4      00450078     kernel32:KERNEL32.dll
 0002:0000007c       __imp__FreeLibrary@4       0045007c     kernel32:KERNEL32.dll
 0002:00000080       __imp__LoadLibraryW@4      00450080     kernel32:KERNEL32.dll
 0002:00000084       __imp__MultiByteToWideChar@24 00450084     kernel32:KERNEL32.dll
 0002:00000088       __imp__GetCommandLineW@0   00450088     kernel32:KERNEL32.dll
 0002:0000008c       __imp__WideCharToMultiByte@32 0045008c     kernel32:KERNEL32.dll
 0002:00000090       __imp__IsDebuggerPresent@0 00450090     kernel32:KERNEL32.dll
 0002:00000094       __imp__InitializeCriticalSection@4 00450094     kernel32:KERNEL32.dll
 0002:00000098       __imp__DeleteCriticalSection@4 00450098     kernel32:KERNEL32.dll
 0002:0000009c       __imp__EnterCriticalSection@4 0045009c     kernel32:KERNEL32.dll
 0002:000000a0       __imp__LeaveCriticalSection@4 004500a0     kernel32:KERNEL32.dll
 0002:000000a4       __imp__TryEnterCriticalSection@4 004500a4     kernel32:KERNEL32.dll
 0002:000000a8       __imp__CreateSemaphoreA@16 004500a8     kernel32:KERNEL32.dll
 0002:000000ac       __imp__ReleaseSemaphore@12 004500ac     kernel32:KERNEL32.dll
 0002:000000b0       __imp__GetCurrentThread@0  004500b0     kernel32:KERNEL32.dll
 0002:000000b4       __imp__DuplicateHandle@28  004500b4     kernel32:KERNEL32.dll
 0002:000000b8       __imp__ResumeThread@4      004500b8     kernel32:KERNEL32.dll
 0002:000000bc       __imp__GetExitCodeThread@8 004500bc     kernel32:KERNEL32.dll
 0002:000000c0       __imp__Sleep@4             004500c0     kernel32:KERNEL32.dll
 0002:000000c4       __imp__SwitchToThread@0    004500c4     kernel32:KERNEL32.dll
 0002:000000c8       __imp__SuspendThread@4     004500c8     kernel32:KERNEL32.dll
 0002:000000cc       __imp__GetThreadContext@8  004500cc     kernel32:KERNEL32.dll
 0002:000000d0       __imp__GetSystemInfo@4     004500d0     kernel32:KERNEL32.dll
 0002:000000d4       __imp__VirtualAlloc@16     004500d4     kernel32:KERNEL32.dll
 0002:000000d8       __imp__VirtualFree@12      004500d8     kernel32:KERNEL32.dll
 0002:000000dc       __imp__QueryPerformanceCounter@4 004500dc     kernel32:KERNEL32.dll
 0002:000000e0       __imp__QueryPerformanceFrequency@4 004500e0     kernel32:KERNEL32.dll
 0002:000000e4       __imp__HeapAlloc@12        004500e4     kernel32:KERNEL32.dll
 0002:000000e8       __imp__HeapFree@12         004500e8     kernel32:KERNEL32.dll
 0002:000000ec       __imp__GetProcessHeap@0    004500ec     kernel32:KERNEL32.dll
 0002:000000f0       __imp__RtlCaptureContext@4 004500f0     kernel32:KERNEL32.dll
 0002:000000f4       __imp__GetEnvironmentVariableA@12 004500f4     kernel32:KERNEL32.dll
 0002:000000f8       __imp__GlobalMemoryStatus@4 004500f8     kernel32:KERNEL32.dll
 0002:000000fc       __imp__WriteConsoleW@20    004500fc     kernel32:KERNEL32.dll
 0002:00000100       __imp__SetEnvironmentVariableA@8 00450100     kernel32:KERNEL32.dll
 0002:00000104       __imp__CreateFileW@28      00450104     kernel32:KERNEL32.dll
 0002:00000108       __imp__TzSpecificLocalTimeToSystemTime@12 00450108     kernel32:KERNEL32.dll
 0002:0000010c       __imp__SystemTimeToTzSpecificLocalTime@12 0045010c     kernel32:KERNEL32.dll
 0002:00000110       __imp__DecodePointer@4     00450110     kernel32:KERNEL32.dll
 0002:00000114       __imp__GetTimeZoneInformation@4 00450114     kernel32:KERNEL32.dll
 0002:00000118       __imp__GetLastError@0      00450118     kernel32:KERNEL32.dll
 0002:0000011c       __imp__FlushFileBuffers@4  0045011c     kernel32:KERNEL32.dll
 0002:00000120       __imp__HeapSize@12         00450120     kernel32:KERNEL32.dll
 0002:00000124       __imp__RaiseException@16   00450124     kernel32:KERNEL32.dll
 0002:00000128       __imp__GetCPInfo@8         00450128     kernel32:KERNEL32.dll
 0002:0000012c       __imp__GetOEMCP@0          0045012c     kernel32:KERNEL32.dll
 0002:00000130       __imp__IsValidCodePage@4   00450130     kernel32:KERNEL32.dll
 0002:00000134       __imp__FindNextFileA@8     00450134     kernel32:KERNEL32.dll
 0002:00000138       __imp__FindFirstFileExA@24 00450138     kernel32:KERNEL32.dll
 0002:0000013c       __imp__GetStringTypeW@16   0045013c     kernel32:KERNEL32.dll
 0002:00000140       __imp__HeapReAlloc@16      00450140     kernel32:KERNEL32.dll
 0002:00000144       __imp__LCMapStringW@24     00450144     kernel32:KERNEL32.dll
 0002:00000148       __imp__CompareStringW@24   00450148     kernel32:KERNEL32.dll
 0002:0000014c       __imp__SetFilePointerEx@20 0045014c     kernel32:KERNEL32.dll
 0002:00000150       __imp__GetConsoleMode@8    00450150     kernel32:KERNEL32.dll
 0002:00000154       __imp__GetConsoleCP@0      00450154     kernel32:KERNEL32.dll
 0002:00000158       __imp__GetACP@0            00450158     kernel32:KERNEL32.dll
 0002:0000015c       __imp__GetCommandLineA@0   0045015c     kernel32:KERNEL32.dll
 0002:00000160       __imp__ExitProcess@4       00450160     kernel32:KERNEL32.dll
 0002:00000164       __imp__GetModuleFileNameA@12 00450164     kernel32:KERNEL32.dll
 0002:00000168       __imp__GetModuleHandleExW@12 00450168     kernel32:KERNEL32.dll
 0002:0000016c       __imp__FreeLibraryAndExitThread@8 0045016c     kernel32:KERNEL32.dll
 0002:00000170       __imp__ExitThread@4        00450170     kernel32:KERNEL32.dll
 0002:00000174       __imp__RtlUnwind@16        00450174     kernel32:KERNEL32.dll
 0002:00000178       __imp__EncodePointer@4     00450178     kernel32:KERNEL32.dll
 0002:0000017c       __imp__SetLastError@4      0045017c     kernel32:KERNEL32.dll
 0002:00000180       __imp__InitializeCriticalSectionAndSpinCount@8 00450180     kernel32:KERNEL32.dll
 0002:00000184       __imp__TlsAlloc@0          00450184     kernel32:KERNEL32.dll
 0002:00000188       __imp__TlsGetValue@4       00450188     kernel32:KERNEL32.dll
 0002:0000018c       __imp__TlsSetValue@8       0045018c     kernel32:KERNEL32.dll
 0002:00000190       __imp__TlsFree@4           00450190     kernel32:KERNEL32.dll
 0002:00000194       __imp__LoadLibraryExW@12   00450194     kernel32:KERNEL32.dll
 0002:00000198       __imp__IsProcessorFeaturePresent@4 00450198     kernel32:KERNEL32.dll
 0002:0000019c       __imp__GetSystemTimeAsFileTime@4 0045019c     kernel32:KERNEL32.dll
 0002:000001a0       __imp__InitializeSListHead@4 004501a0     kernel32:KERNEL32.dll
 0002:000001a4       __imp__UnhandledExceptionFilter@4 004501a4     kernel32:KERNEL32.dll
 0002:000001a8       __imp__SetUnhandledExceptionFilter@4 004501a8     kernel32:KERNEL32.dll
 0002:000001ac       __imp__GetStartupInfoW@4   004501ac     kernel32:KERNEL32.dll
 0002:000001b0       __imp__GetModuleHandleW@4  004501b0     kernel32:KERNEL32.dll
 0002:000001b4       __imp__SetStdHandle@8      004501b4     kernel32:KERNEL32.dll
 0002:000001b8       __imp__GetFileType@4       004501b8     kernel32:KERNEL32.dll
 0002:000001bc       __imp__CreateThread@24     004501bc     kernel32:KERNEL32.dll
 0002:000001c0       \177KERNEL32_NULL_THUNK_DATA 004501c0     kernel32:KERNEL32.dll
 0002:000001c4       __imp__DownloadFile        004501c4     PatcherLib:PatcherLib.dll
 0002:000001c8       \177PatcherLib_NULL_THUNK_DATA 004501c8     PatcherLib:PatcherLib.dll
 0002:000001cc       __imp__CommandLineToArgvW@8 004501cc     shell32:SHELL32.dll
 0002:000001d0       \177SHELL32_NULL_THUNK_DATA 004501d0     shell32:SHELL32.dll
 0002:000001d4       __imp__recv@16             004501d4     ws2_32:WS2_32.dll
 0002:000001d8       __imp__sendto@24           004501d8     ws2_32:WS2_32.dll
 0002:000001dc       __imp__send@16             004501dc     ws2_32:WS2_32.dll
 0002:000001e0       __imp__getsockname@12      004501e0     ws2_32:WS2_32.dll
 0002:000001e4       __imp__getpeername@12      004501e4     ws2_32:WS2_32.dll
 0002:000001e8       __imp__shutdown@8          004501e8     ws2_32:WS2_32.dll
 0002:000001ec       __imp__accept@12           004501ec     ws2_32:WS2_32.dll
 0002:000001f0       __imp__listen@8            004501f0     ws2_32:WS2_32.dll
 0002:000001f4       __imp__connect@12          004501f4     ws2_32:WS2_32.dll
 0002:000001f8       __imp__bind@12             004501f8     ws2_32:WS2_32.dll
 0002:000001fc       __imp__getsockopt@20       004501fc     ws2_32:WS2_32.dll
 0002:00000200       __imp__recvfrom@24         00450200     ws2_32:WS2_32.dll
 0002:00000204       __imp__closesocket@4       00450204     ws2_32:WS2_32.dll
 0002:00000208       __imp__socket@12           00450208     ws2_32:WS2_32.dll
 0002:0000020c       __imp__inet_ntoa@4         0045020c     ws2_32:WS2_32.dll
 0002:00000210       __imp__inet_addr@4         00450210     ws2_32:WS2_32.dll
 0002:00000214       __imp__gethostbyaddr@12    00450214     ws2_32:WS2_32.dll
 0002:00000218       __imp__gethostbyname@4     00450218     ws2_32:WS2_32.dll
 0002:0000021c       __imp__getservbyport@8     0045021c     ws2_32:WS2_32.dll
 0002:00000220       __imp__getservbyname@8     00450220     ws2_32:WS2_32.dll
 0002:00000224       __imp__getprotobynumber@4  00450224     ws2_32:WS2_32.dll
 0002:00000228       __imp__getprotobyname@4    00450228     ws2_32:WS2_32.dll
 0002:0000022c       __imp__WSACleanup@0        0045022c     ws2_32:WS2_32.dll
 0002:00000230       __imp__WSAStartup@8        00450230     ws2_32:WS2_32.dll
 0002:00000234       __imp__WSAGetLastError@0   00450234     ws2_32:WS2_32.dll
 0002:00000238       __imp__setsockopt@20       00450238     ws2_32:WS2_32.dll
 0002:0000023c       __imp__WSAIoctl@36         0045023c     ws2_32:WS2_32.dll
 0002:00000240       __imp__ioctlsocket@12      00450240     ws2_32:WS2_32.dll
 0002:00000244       \177WS2_32_NULL_THUNK_DATA 00450244     ws2_32:WS2_32.dll
 0002:00000248       ___guard_check_icall_fptr  00450248     libvcruntime:jbcxrval.obj
 0002:0000024c       ___xc_a                    0045024c     LIBCMT:initializers.obj
 0002:00000410       ___xc_z                    00450410     LIBCMT:initializers.obj
 0002:00000414       ___xi_a                    00450414     LIBCMT:initializers.obj
 0002:00000420       ___PLEASE_LINK_WITH_legacy_stdio_wide_specifiers.lib 00450420     legacy_stdio_wide_specifiers:legacy_stdio_wide_specifiers.obj
 0002:00000424       ___acrt_stdio_initializer  00450424     libucrt:stdio_initializer.obj
 0002:00000428       ___acrt_multibyte_initializer 00450428     libucrt:multibyte_initializer.obj
 0002:0000042c       ___acrt_timeset_initializer 0045042c     libucrt:timeset_initializer.obj
 0002:00000430       ___acrt_tran_sse2_initializer 00450430     libucrt:sse2_initializer.obj
 0002:00000438       ___xi_z                    00450438     LIBCMT:initializers.obj
 0002:0000043c       ___xl_a                    0045043c     LIBCMT:tlssup.obj
 0002:00000444       ___xl_z                    00450444     LIBCMT:tlssup.obj
 0002:00000448       ___xp_a                    00450448     LIBCMT:initializers.obj
 0002:0000044c       ___acrt_locale_terminator  0045044c     libucrt:locale_initializer.obj
 0002:00000450       ___acrt_tmpfile_terminator 00450450     libucrt:tmpfile_initializer.obj
 0002:00000454       ___dcrt_console_output_terminator 00450454     libucrt:console_output_initializer.obj
 0002:00000458       ___acrt_stdio_terminator   00450458     libucrt:stdio_initializer.obj
 0002:0000045c       ___xp_z                    0045045c     LIBCMT:initializers.obj
 0002:00000460       ___xt_a                    00450460     LIBCMT:initializers.obj
 0002:00000468       ___xt_z                    00450468     LIBCMT:initializers.obj
 0002:00000690       __D3std5stdio14StdioException6__vtblZ 00450690     phobos2-ldc:stdio.obj
 0002:000006a8       __D3std5stdio14StdioException6__initZ 004506a8     phobos2-ldc:stdio.obj
 0002:000007e4       __D3std5array17__T8AppenderTAyaZ8Appender4Data6__initZ 004507e4     phobos2-ldc:stdio.obj
 0002:00000a7c       __D3std9exception14ErrnoException6__initZ 00450a7c     phobos2-ldc:exception.obj
 0002:00000ab0       __D3std9exception14ErrnoException6__vtblZ 00450ab0     phobos2-ldc:exception.obj
 0002:00000b1c       __D3std3utf12UTFException6__initZ 00450b1c     phobos2-ldc:utf.obj
 0002:00000b60       __D3std3utf12UTFException6__vtblZ 00450b60     phobos2-ldc:utf.obj
 0002:00002010       __D3std6format18__T10FormatSpecTaZ10FormatSpec6__initZ 00452010     phobos2-ldc:uni.obj
 0002:00002350       __D3std7variant16VariantException6__initZ 00452350     phobos2-ldc:variant.obj
 0002:00002380       __D3std7variant16VariantException6__vtblZ 00452380     phobos2-ldc:variant.obj
 0002:000023c0       __D3std7variant18__T8VariantNVki16Z8VariantN6__initZ 004523c0     phobos2-ldc:variant.obj
 0002:0000242c       __D3std11concurrency7Message6__initZ 0045242c     phobos2-ldc:concurrency.obj
 0002:000024e0       __D3std11concurrency15MessageMismatch6__initZ 004524e0     phobos2-ldc:concurrency.obj
 0002:00002510       __D3std11concurrency15MessageMismatch6__vtblZ 00452510     phobos2-ldc:concurrency.obj
 0002:00002550       __D3std11concurrency15OwnerTerminated6__initZ 00452550     phobos2-ldc:concurrency.obj
 0002:00002580       __D3std11concurrency15OwnerTerminated6__vtblZ 00452580     phobos2-ldc:concurrency.obj
 0002:000025c0       __D3std11concurrency14LinkTerminated6__initZ 004525c0     phobos2-ldc:concurrency.obj
 0002:000025f0       __D3std11concurrency14LinkTerminated6__vtblZ 004525f0     phobos2-ldc:concurrency.obj
 0002:00002630       __D3std11concurrency24PriorityMessageException6__initZ 00452630     phobos2-ldc:concurrency.obj
 0002:00002670       __D3std11concurrency24PriorityMessageException6__vtblZ 00452670     phobos2-ldc:concurrency.obj
 0002:000026bc       __D3std11concurrency11MailboxFull6__initZ 004526bc     phobos2-ldc:concurrency.obj
 0002:000026f0       __D3std11concurrency11MailboxFull6__vtblZ 004526f0     phobos2-ldc:concurrency.obj
 0002:0000272c       __D3std11concurrency19TidMissingException6__initZ 0045272c     phobos2-ldc:concurrency.obj
 0002:00002750       __D3std11concurrency19TidMissingException6__vtblZ 00452750     phobos2-ldc:concurrency.obj
 0002:000027c0       __D3std11concurrency10MessageBox6__vtblZ 004527c0     phobos2-ldc:concurrency.obj
 0002:000027d4       __D3std11concurrency10MessageBox6__initZ 004527d4     phobos2-ldc:concurrency.obj
 0002:0000284c       __D3std11concurrency15ThreadScheduler16__interfaceInfosZ 0045284c     phobos2-ldc:concurrency.obj
 0002:0000285c       __D3std11concurrency15ThreadScheduler6__initZ 0045285c     phobos2-ldc:concurrency.obj
 0002:00002870       __D3std11concurrency15ThreadScheduler6__vtblZ 00452870     phobos2-ldc:concurrency.obj
 0002:000028a0       __D3std11concurrency15ThreadScheduler11__interface3std11concurrency9Scheduler5Thn8_6__vtblZ 004528a0     phobos2-ldc:concurrency.obj
 0002:000028e0       __D3std11concurrency14FiberScheduler16__interfaceInfosZ 004528e0     phobos2-ldc:concurrency.obj
 0002:000028f0       __D3std11concurrency14FiberScheduler14FiberCondition6__vtblZ 004528f0     phobos2-ldc:concurrency.obj
 0002:00002918       __D3std11concurrency14FiberScheduler14FiberCondition6__initZ 00452918     phobos2-ldc:concurrency.obj
 0002:00002958       __D3std11concurrency14FiberScheduler9InfoFiber6__initZ 00452958     phobos2-ldc:concurrency.obj
 0002:000029a0       __D3std11concurrency14FiberScheduler9InfoFiber6__vtblZ 004529a0     phobos2-ldc:concurrency.obj
 0002:00002a20       __D3std11concurrency14FiberScheduler6__initZ 00452a20     phobos2-ldc:concurrency.obj
 0002:00002a40       __D3std11concurrency14FiberScheduler6__vtblZ 00452a40     phobos2-ldc:concurrency.obj
 0002:00002a70       __D3std11concurrency14FiberScheduler11__interface3std11concurrency9Scheduler5Thn8_6__vtblZ 00452a70     phobos2-ldc:concurrency.obj
 0002:00002ae4       __D3std11concurrency36__T4ListTS3std11concurrency7MessageZ4List4Node6__initZ 00452ae4     phobos2-ldc:concurrency.obj
 0002:00002d1c       __D3std8datetime5Clock6__initZ 00452d1c     phobos2-ldc:datetime.obj
 0002:00002d30       __D3std8datetime5Clock6__vtblZ 00452d30     phobos2-ldc:datetime.obj
 0002:00002d64       __D3std8datetime11lastDayLeapyG13i 00452d64     phobos2-ldc:datetime.obj
 0002:00002d98       __D3std8datetime14lastDayNonLeapyG13i 00452d98     phobos2-ldc:datetime.obj
 0002:00002e2c       __D3std8datetime8TimeZone6__initZ 00452e2c     phobos2-ldc:datetime.obj
 0002:00002e50       __D3std8datetime8TimeZone6__vtblZ 00452e50     phobos2-ldc:datetime.obj
 0002:00002eb0       __D3std8datetime9LocalTime6__vtblZ 00452eb0     phobos2-ldc:datetime.obj
 0002:00002ee4       __D3std8datetime9LocalTime6__initZ 00452ee4     phobos2-ldc:datetime.obj
 0002:00002f30       __D3std8datetime3UTC6__vtblZ 00452f30     phobos2-ldc:datetime.obj
 0002:00002f64       __D3std8datetime3UTC6__initZ 00452f64     phobos2-ldc:datetime.obj
 0002:00002fa8       __D3std8datetime14SimpleTimeZone6__initZ 00452fa8     phobos2-ldc:datetime.obj
 0002:00002fd0       __D3std8datetime14SimpleTimeZone6__vtblZ 00452fd0     phobos2-ldc:datetime.obj
 0002:00003030       __D3std8datetime13PosixTimeZone6__vtblZ 00453030     phobos2-ldc:datetime.obj
 0002:00003064       __D3std8datetime13PosixTimeZone6__initZ 00453064     phobos2-ldc:datetime.obj
 0002:000030c0       __D3std8datetime15WindowsTimeZone6__vtblZ 004530c0     phobos2-ldc:datetime.obj
 0002:000030f4       __D3std8datetime15WindowsTimeZone6__initZ 004530f4     phobos2-ldc:datetime.obj
 0002:00003460       __D3std4file13FileException6__initZ 00453460     phobos2-ldc:file.obj
 0002:00003490       __D3std4file13FileException6__vtblZ 00453490     phobos2-ldc:file.obj
 0002:000035bc       __D3std7windows8syserror16WindowsException6__initZ 004535bc     phobos2-ldc:syserror.obj
 0002:000035f0       __D3std7windows8syserror16WindowsException6__vtblZ 004535f0     phobos2-ldc:syserror.obj
 0002:0000370c       __D3std6format15FormatException6__initZ 0045370c     phobos2-ldc:format.obj
 0002:00003730       __D3std6format15FormatException6__vtblZ 00453730     phobos2-ldc:format.obj
 0002:0000376c       __D3std4conv13ConvException6__initZ 0045376c     phobos2-ldc:conv.obj
 0002:00003790       __D3std4conv13ConvException6__vtblZ 00453790     phobos2-ldc:conv.obj
 0002:000037c8       __D3std4conv21ConvOverflowException6__initZ 004537c8     phobos2-ldc:conv.obj
 0002:000037f0       __D3std4conv21ConvOverflowException6__vtblZ 004537f0     phobos2-ldc:conv.obj
 0002:00003898       __D3std12experimental6logger10filelogger10FileLogger6__initZ 00453898     phobos2-ldc:filelogger.obj
 0002:00003920       __D3std12experimental6logger10filelogger10FileLogger6__vtblZ 00453920     phobos2-ldc:filelogger.obj
 0002:00003b90       __D3std6socket15SocketException6__initZ 00453b90     phobos2-ldc:socket.obj
 0002:00003bc0       __D3std6socket15SocketException6__vtblZ 00453bc0     phobos2-ldc:socket.obj
 0002:00003c00       __D3std6socket17SocketOSException6__initZ 00453c00     phobos2-ldc:socket.obj
 0002:00003c30       __D3std6socket17SocketOSException6__vtblZ 00453c30     phobos2-ldc:socket.obj
 0002:00003c70       __D3std6socket24SocketParameterException6__initZ 00453c70     phobos2-ldc:socket.obj
 0002:00003ca0       __D3std6socket24SocketParameterException6__vtblZ 00453ca0     phobos2-ldc:socket.obj
 0002:00003ce4       __D3std6socket22SocketFeatureException6__initZ 00453ce4     phobos2-ldc:socket.obj
 0002:00003d10       __D3std6socket22SocketFeatureException6__vtblZ 00453d10     phobos2-ldc:socket.obj
 0002:00003db4       __D3std6socket8Protocol6__initZ 00453db4     phobos2-ldc:socket.obj
 0002:00003dd0       __D3std6socket8Protocol6__vtblZ 00453dd0     phobos2-ldc:socket.obj
 0002:00003e04       __D3std6socket7Service6__initZ 00453e04     phobos2-ldc:socket.obj
 0002:00003e30       __D3std6socket7Service6__vtblZ 00453e30     phobos2-ldc:socket.obj
 0002:00003e64       __D3std6socket13HostException6__initZ 00453e64     phobos2-ldc:socket.obj
 0002:00003e90       __D3std6socket13HostException6__vtblZ 00453e90     phobos2-ldc:socket.obj
 0002:00003ee8       __D3std6socket12InternetHost6__initZ 00453ee8     phobos2-ldc:socket.obj
 0002:00003f10       __D3std6socket12InternetHost6__vtblZ 00453f10     phobos2-ldc:socket.obj
 0002:00003f60       __D3std6socket23UnknownAddressReference6__vtblZ 00453f60     phobos2-ldc:socket.obj
 0002:00003f94       __D3std6socket23UnknownAddressReference6__initZ 00453f94     phobos2-ldc:socket.obj
 0002:00003ff0       __D3std6socket16AddressException6__vtblZ 00453ff0     phobos2-ldc:socket.obj
 0002:00004008       __D3std6socket16AddressException6__initZ 00454008     phobos2-ldc:socket.obj
 0002:00004030       __D3std6socket15InternetAddress6__vtblZ 00454030     phobos2-ldc:socket.obj
 0002:0000406c       __D3std6socket15InternetAddress6__initZ 0045406c     phobos2-ldc:socket.obj
 0002:00004174       __D3std6socket7Address6__initZ 00454174     phobos2-ldc:socket.obj
 0002:00004180       __D3std6socket7Address6__vtblZ 00454180     phobos2-ldc:socket.obj
 0002:000041d4       __D3std6socket14UnknownAddress6__initZ 004541d4     phobos2-ldc:socket.obj
 0002:000041f0       __D3std6socket14UnknownAddress6__vtblZ 004541f0     phobos2-ldc:socket.obj
 0002:0000429c       __D3std6socket16Internet6Address6__initZ 0045429c     phobos2-ldc:socket.obj
 0002:000042c0       __D3std6socket16Internet6Address6__vtblZ 004542c0     phobos2-ldc:socket.obj
 0002:0000431c       __D3std6socket21SocketAcceptException6__initZ 0045431c     phobos2-ldc:socket.obj
 0002:00004350       __D3std6socket21SocketAcceptException6__vtblZ 00454350     phobos2-ldc:socket.obj
 0002:00004394       __D3std6socket9SocketSet6__initZ 00454394     phobos2-ldc:socket.obj
 0002:000043b0       __D3std6socket9SocketSet6__vtblZ 004543b0     phobos2-ldc:socket.obj
 0002:000044b0       __D3std6socket6Socket6__vtblZ 004544b0     phobos2-ldc:socket.obj
 0002:00004558       __D3std6socket6Socket6__initZ 00454558     phobos2-ldc:socket.obj
 0002:000046f4       __D3std6socket9TcpSocket6__initZ 004546f4     phobos2-ldc:socket.obj
 0002:00004710       __D3std6socket9TcpSocket6__vtblZ 00454710     phobos2-ldc:socket.obj
 0002:000047d8       __D3std6socket9UdpSocket6__initZ 004547d8     phobos2-ldc:socket.obj
 0002:000047f0       __D3std6socket9UdpSocket6__vtblZ 004547f0     phobos2-ldc:socket.obj
 0002:00004b30       __D3std7windows8registry17RegistryException6__vtblZ 00454b30     phobos2-ldc:registry.obj
 0002:00004b4c       __D3std7windows8registry17RegistryException6__initZ 00454b4c     phobos2-ldc:registry.obj
 0002:00004b74       __D3std7windows8registry14Win32Exception6__initZ 00454b74     phobos2-ldc:registry.obj
 0002:00004ba0       __D3std7windows8registry14Win32Exception6__vtblZ 00454ba0     phobos2-ldc:registry.obj
 0002:00004e80       __D3std7windows8registry11KeySequence6__vtblZ 00454e80     phobos2-ldc:registry.obj
 0002:00004ea4       __D3std7windows8registry11KeySequence6__initZ 00454ea4     phobos2-ldc:registry.obj
 0002:00004eb0       __D3std7windows8registry15KeyNameSequence6__vtblZ 00454eb0     phobos2-ldc:registry.obj
 0002:00004ed4       __D3std7windows8registry15KeyNameSequence6__initZ 00454ed4     phobos2-ldc:registry.obj
 0002:00004f10       __D3std7windows8registry13ValueSequence6__vtblZ 00454f10     phobos2-ldc:registry.obj
 0002:00004f34       __D3std7windows8registry13ValueSequence6__initZ 00454f34     phobos2-ldc:registry.obj
 0002:00004f40       __D3std7windows8registry17ValueNameSequence6__vtblZ 00454f40     phobos2-ldc:registry.obj
 0002:00004f64       __D3std7windows8registry17ValueNameSequence6__initZ 00454f64     phobos2-ldc:registry.obj
 0002:00004f90       __D3std7windows8registry3Key6__vtblZ 00454f90     phobos2-ldc:registry.obj
 0002:00004ff4       __D3std7windows8registry3Key6__initZ 00454ff4     phobos2-ldc:registry.obj
 0002:00005010       __D3std7windows8registry5Value6__vtblZ 00455010     phobos2-ldc:registry.obj
 0002:00005044       __D3std7windows8registry5Value6__initZ 00455044     phobos2-ldc:registry.obj
 0002:000050cc       __D3std7windows8registry8Registry6__initZ 004550cc     phobos2-ldc:registry.obj
 0002:000050e0       __D3std7windows8registry8Registry6__vtblZ 004550e0     phobos2-ldc:registry.obj
 0002:00005308       __D3std5array17__T8AppenderTAAuZ8Appender4Data6__initZ 00455308     phobos2-ldc:registry.obj
 0002:000053b0       __D3std7process3Pid6__vtblZ 004553b0     phobos2-ldc:process.obj
 0002:000053c4       __D3std7process3Pid6__initZ 004553c4     phobos2-ldc:process.obj
 0002:000053f0       __D3std7process16ProcessException6__vtblZ 004553f0     phobos2-ldc:process.obj
 0002:00005408       __D3std7process16ProcessException6__initZ 00455408     phobos2-ldc:process.obj
 0002:00005450       __D3std7process11environment6__initZ 00455450     phobos2-ldc:process.obj
 0002:00005460       __D3std7process11environment6__vtblZ 00455460     phobos2-ldc:process.obj
 0002:000054c0       __D3std12experimental6logger4core6Logger6__initZ 004554c0     phobos2-ldc:core.obj
 0002:00005530       __D3std12experimental6logger4core6Logger6__vtblZ 00455530     phobos2-ldc:core.obj
 0002:00005588       __D3std12experimental6logger4core16StdForwardLogger6__initZ 00455588     phobos2-ldc:core.obj
 0002:00005600       __D3std12experimental6logger4core16StdForwardLogger6__vtblZ 00455600     phobos2-ldc:core.obj
 0002:00005660       __D3std12experimental6logger4core10TestLogger6__initZ 00455660     phobos2-ldc:core.obj
 0002:00005700       __D3std12experimental6logger4core10TestLogger6__vtblZ 00455700     phobos2-ldc:core.obj
 0002:000057a4       __D3std6string15StringException6__initZ 004557a4     phobos2-ldc:string.obj
 0002:000057d0       __D3std6string15StringException6__vtblZ 004557d0     phobos2-ldc:string.obj
 0002:00005918       __D2rt8lifetime20ArrayAllocLengthLock6__initZ 00455918     druntime-ldc:lifetime.obj
 0002:00005920       __D2rt8lifetime20ArrayAllocLengthLock6__vtblZ 00455920     druntime-ldc:lifetime.obj
 0002:000059b0       __xmm@0000000400000000ffffffff00000000 004559b0     druntime-ldc:msvc.obj
 0002:00005b30       __D4core9exception10RangeError6__initZ 00455b30     druntime-ldc:exception.obj
 0002:00005b60       __D4core9exception10RangeError6__vtblZ 00455b60     druntime-ldc:exception.obj
 0002:00005bb4       __D4core9exception11AssertError6__initZ 00455bb4     druntime-ldc:exception.obj
 0002:00005be0       __D4core9exception11AssertError6__vtblZ 00455be0     druntime-ldc:exception.obj
 0002:00005c7c       __D4core9exception13FinalizeError6__initZ 00455c7c     druntime-ldc:exception.obj
 0002:00005cb0       __D4core9exception13FinalizeError6__vtblZ 00455cb0     druntime-ldc:exception.obj
 0002:00005cf0       __D4core9exception15HiddenFuncError6__initZ 00455cf0     druntime-ldc:exception.obj
 0002:00005d20       __D4core9exception15HiddenFuncError6__vtblZ 00455d20     druntime-ldc:exception.obj
 0002:00005d7c       __D4core9exception16OutOfMemoryError6__initZ 00455d7c     druntime-ldc:exception.obj
 0002:00005db0       __D4core9exception16OutOfMemoryError6__vtblZ 00455db0     druntime-ldc:exception.obj
 0002:00005e0c       __D4core9exception27InvalidMemoryOperationError6__initZ 00455e0c     druntime-ldc:exception.obj
 0002:00005e40       __D4core9exception27InvalidMemoryOperationError6__vtblZ 00455e40     druntime-ldc:exception.obj
 0002:00005e8c       __D4core9exception11SwitchError6__initZ 00455e8c     druntime-ldc:exception.obj
 0002:00005ec0       __D4core9exception11SwitchError6__vtblZ 00455ec0     druntime-ldc:exception.obj
 0002:00005efc       __D4core9exception16UnicodeException6__initZ 00455efc     druntime-ldc:exception.obj
 0002:00005f30       __D4core9exception16UnicodeException6__vtblZ 00455f30     druntime-ldc:exception.obj
 0002:00005f70       __D4core9exception17SuppressTraceInfo16__interfaceInfosZ 00455f70     druntime-ldc:exception.obj
 0002:00005f80       __D4core9exception17SuppressTraceInfo6__vtblZ 00455f80     druntime-ldc:exception.obj
 0002:00005f9c       __D4core9exception17SuppressTraceInfo11__interface6object9Throwable9TraceInfo5Thn8_6__vtblZ 00455f9c     druntime-ldc:exception.obj
 0002:00005fac       __D4core9exception17SuppressTraceInfo6__initZ 00455fac     druntime-ldc:exception.obj
 0002:0000603c       __D11TypeInfo_Ag6__initZ   0045603c     druntime-ldc:ti_Ag.obj
 0002:00006050       __D11TypeInfo_Ag6__vtblZ   00456050     druntime-ldc:ti_Ag.obj
 0002:000060ac       __D11TypeInfo_Ah6__initZ   004560ac     druntime-ldc:ti_Ag.obj
 0002:000060c0       __D11TypeInfo_Ah6__vtblZ   004560c0     druntime-ldc:ti_Ag.obj
 0002:0000611c       __D11TypeInfo_Av6__initZ   0045611c     druntime-ldc:ti_Ag.obj
 0002:00006130       __D11TypeInfo_Av6__vtblZ   00456130     druntime-ldc:ti_Ag.obj
 0002:0000618c       __D11TypeInfo_Ab6__initZ   0045618c     druntime-ldc:ti_Ag.obj
 0002:000061a0       __D11TypeInfo_Ab6__vtblZ   004561a0     druntime-ldc:ti_Ag.obj
 0002:000061fc       __D11TypeInfo_Aa6__initZ   004561fc     druntime-ldc:ti_Ag.obj
 0002:00006210       __D11TypeInfo_Aa6__vtblZ   00456210     druntime-ldc:ti_Ag.obj
 0002:00006284       __D12TypeInfo_Aya6__initZ  00456284     druntime-ldc:ti_Ag.obj
 0002:00006290       __D12TypeInfo_Aya6__vtblZ  00456290     druntime-ldc:ti_Ag.obj
 0002:000062f4       __D12TypeInfo_Axa6__initZ  004562f4     druntime-ldc:ti_Ag.obj
 0002:00006300       __D12TypeInfo_Axa6__vtblZ  00456300     druntime-ldc:ti_Ag.obj
 0002:00006360       __D9Exception6__vtblZ      00456360     druntime-ldc:object.obj
 0002:00006378       __D9Exception6__initZ      00456378     druntime-ldc:object.obj
 0002:00006400       __D18TypeInfo_Interface6__vtblZ 00456400     druntime-ldc:object.obj
 0002:00006450       __D14TypeInfo_Class6__vtblZ 00456450     druntime-ldc:object.obj
 0002:000064c8       __D6Object6__initZ         004564c8     druntime-ldc:object.obj
 0002:000064d0       __D6Object6__vtblZ         004564d0     druntime-ldc:object.obj
 0002:00006500       __D15TypeInfo_Struct6__vtblZ 00456500     druntime-ldc:object.obj
 0002:00006550       __D14TypeInfo_Array6__vtblZ 00456550     druntime-ldc:object.obj
 0002:000065a0       __D14TypeInfo_Const6__vtblZ 004565a0     druntime-ldc:object.obj
 0002:000065f0       __D16TypeInfo_Pointer6__vtblZ 004565f0     druntime-ldc:object.obj
 0002:00006638       __D8TypeInfo6__initZ       00456638     druntime-ldc:object.obj
 0002:00006640       __D8TypeInfo6__vtblZ       00456640     druntime-ldc:object.obj
 0002:00006698       __D16TypeInfo_Typedef6__initZ 00456698     druntime-ldc:object.obj
 0002:000066c0       __D16TypeInfo_Typedef6__vtblZ 004566c0     druntime-ldc:object.obj
 0002:00006724       __D13TypeInfo_Enum6__initZ 00456724     druntime-ldc:object.obj
 0002:00006740       __D13TypeInfo_Enum6__vtblZ 00456740     druntime-ldc:object.obj
 0002:00006798       __D16TypeInfo_Pointer6__initZ 00456798     druntime-ldc:object.obj
 0002:000067c4       __D14TypeInfo_Array6__initZ 004567c4     druntime-ldc:object.obj
 0002:000067e4       __D20TypeInfo_StaticArray6__initZ 004567e4     druntime-ldc:object.obj
 0002:00006800       __D20TypeInfo_StaticArray6__vtblZ 00456800     druntime-ldc:object.obj
 0002:00006868       __D25TypeInfo_AssociativeArray6__initZ 00456868     druntime-ldc:object.obj
 0002:00006880       __D25TypeInfo_AssociativeArray6__vtblZ 00456880     druntime-ldc:object.obj
 0002:000068f8       __D15TypeInfo_Vector6__initZ 004568f8     druntime-ldc:object.obj
 0002:00006910       __D15TypeInfo_Vector6__vtblZ 00456910     druntime-ldc:object.obj
 0002:0000696c       __D17TypeInfo_Function6__initZ 0045696c     druntime-ldc:object.obj
 0002:00006980       __D17TypeInfo_Function6__vtblZ 00456980     druntime-ldc:object.obj
 0002:000069f0       __D17TypeInfo_Delegate6__initZ 004569f0     druntime-ldc:object.obj
 0002:00006a10       __D17TypeInfo_Delegate6__vtblZ 00456a10     druntime-ldc:object.obj
 0002:00006a74       __D14TypeInfo_Class6__initZ 00456a74     druntime-ldc:object.obj
 0002:00006ad0       __D18TypeInfo_Interface6__initZ 00456ad0     druntime-ldc:object.obj
 0002:00006af4       __D15TypeInfo_Struct6__initZ 00456af4     druntime-ldc:object.obj
 0002:00006b44       __D14TypeInfo_Tuple6__initZ 00456b44     druntime-ldc:object.obj
 0002:00006b60       __D14TypeInfo_Tuple6__vtblZ 00456b60     druntime-ldc:object.obj
 0002:00006bc0       __D14TypeInfo_Const6__initZ 00456bc0     druntime-ldc:object.obj
 0002:00006be8       __D18TypeInfo_Invariant6__initZ 00456be8     druntime-ldc:object.obj
 0002:00006c00       __D18TypeInfo_Invariant6__vtblZ 00456c00     druntime-ldc:object.obj
 0002:00006c6c       __D15TypeInfo_Shared6__initZ 00456c6c     druntime-ldc:object.obj
 0002:00006c80       __D15TypeInfo_Shared6__vtblZ 00456c80     druntime-ldc:object.obj
 0002:00006ce0       __D14TypeInfo_Inout6__initZ 00456ce0     druntime-ldc:object.obj
 0002:00006cf0       __D14TypeInfo_Inout6__vtblZ 00456cf0     druntime-ldc:object.obj
 0002:00006d84       __D6object9Throwable6__initZ 00456d84     druntime-ldc:object.obj
 0002:00006db0       __D6object9Throwable6__vtblZ 00456db0     druntime-ldc:object.obj
 0002:00006e04       __D6object5Error6__initZ   00456e04     druntime-ldc:object.obj
 0002:00006e30       __D6object5Error6__vtblZ   00456e30     druntime-ldc:object.obj
 0002:00006e58       __D6object19__cpp_type_info_ptr6__initZ 00456e58     druntime-ldc:object.obj
 0002:00006e70       __D6object19__cpp_type_info_ptr6__vtblZ 00456e70     druntime-ldc:object.obj
 0002:00006f6c       __D10TypeInfo_k6__initZ    00456f6c     druntime-ldc:ti_uint.obj
 0002:00006f80       __D10TypeInfo_k6__vtblZ    00456f80     druntime-ldc:ti_uint.obj
 0002:00006fdc       __D10TypeInfo_h6__initZ    00456fdc     druntime-ldc:ti_ubyte.obj
 0002:00006ff0       __D10TypeInfo_h6__vtblZ    00456ff0     druntime-ldc:ti_ubyte.obj
 0002:00007048       __D10TypeInfo_b6__initZ    00457048     druntime-ldc:ti_ubyte.obj
 0002:00007050       __D10TypeInfo_b6__vtblZ    00457050     druntime-ldc:ti_ubyte.obj
 0002:000070a8       __D10TypeInfo_a6__initZ    004570a8     druntime-ldc:ti_char.obj
 0002:000070b0       __D10TypeInfo_a6__vtblZ    004570b0     druntime-ldc:ti_char.obj
 0002:000071b0       __D10TypeInfo_w6__initZ    004571b0     druntime-ldc:ti_dchar.obj
 0002:000071c0       __D10TypeInfo_w6__vtblZ    004571c0     druntime-ldc:ti_dchar.obj
 0002:0000721c       __D10TypeInfo_u6__initZ    0045721c     druntime-ldc:ti_wchar.obj
 0002:00007230       __D10TypeInfo_u6__vtblZ    00457230     druntime-ldc:ti_wchar.obj
 0002:0000728c       __D10TypeInfo_t6__initZ    0045728c     druntime-ldc:ti_ushort.obj
 0002:000072a0       __D10TypeInfo_t6__vtblZ    004572a0     druntime-ldc:ti_ushort.obj
 0002:00007354       __D11TypeInfo_As6__initZ   00457354     druntime-ldc:ti_Ashort.obj
 0002:00007360       __D11TypeInfo_As6__vtblZ   00457360     druntime-ldc:ti_Ashort.obj
 0002:000073c0       __D11TypeInfo_At6__initZ   004573c0     druntime-ldc:ti_Ashort.obj
 0002:000073d0       __D11TypeInfo_At6__vtblZ   004573d0     druntime-ldc:ti_Ashort.obj
 0002:0000742c       __D11TypeInfo_Au6__initZ   0045742c     druntime-ldc:ti_Ashort.obj
 0002:00007440       __D11TypeInfo_Au6__vtblZ   00457440     druntime-ldc:ti_Ashort.obj
 0002:0000749c       __D11TypeInfo_Ai6__initZ   0045749c     druntime-ldc:ti_Aint.obj
 0002:000074b0       __D11TypeInfo_Ai6__vtblZ   004574b0     druntime-ldc:ti_Aint.obj
 0002:0000750c       __D11TypeInfo_Ak6__initZ   0045750c     druntime-ldc:ti_Aint.obj
 0002:00007520       __D11TypeInfo_Ak6__vtblZ   00457520     druntime-ldc:ti_Aint.obj
 0002:0000757c       __D11TypeInfo_Aw6__initZ   0045757c     druntime-ldc:ti_Aint.obj
 0002:00007590       __D11TypeInfo_Aw6__vtblZ   00457590     druntime-ldc:ti_Aint.obj
 0002:000075e8       __D10TypeInfo_i6__initZ    004575e8     druntime-ldc:ti_int.obj
 0002:000075f0       __D10TypeInfo_i6__vtblZ    004575f0     druntime-ldc:ti_int.obj
 0002:00007648       __D10TypeInfo_v6__initZ    00457648     druntime-ldc:ti_void.obj
 0002:00007650       __D10TypeInfo_v6__vtblZ    00457650     druntime-ldc:ti_void.obj
 0002:000076a4       __D4core4sync5mutex5Mutex16__interfaceInfosZ 004576a4     druntime-ldc:mutex.obj
 0002:000076b4       __D4core4sync5mutex5Mutex6__initZ 004576b4     druntime-ldc:mutex.obj
 0002:000076e0       __D4core4sync5mutex5Mutex6__vtblZ 004576e0     druntime-ldc:mutex.obj
 0002:00007700       __D4core4sync5mutex5Mutex11__interface6object6Object7Monitor5Thn8_6__vtblZ 00457700     druntime-ldc:mutex.obj
 0002:00007798       __D4core4sync9condition9Condition6__initZ 00457798     druntime-ldc:condition.obj
 0002:000077d0       __D4core4sync9condition9Condition6__vtblZ 004577d0     druntime-ldc:condition.obj
 0002:00007820       __D4core6thread15ThreadException6__initZ 00457820     druntime-ldc:thread.obj
 0002:00007850       __D4core6thread15ThreadException6__vtblZ 00457850     druntime-ldc:thread.obj
 0002:0000788c       __D4core6thread11ThreadError6__initZ 0045788c     druntime-ldc:thread.obj
 0002:000078c0       __D4core6thread11ThreadError6__vtblZ 004578c0     druntime-ldc:thread.obj
 0002:000079bc       __D4core6thread6Thread6__initZ 004579bc     druntime-ldc:thread.obj
 0002:00007a40       __D4core6thread6Thread6__vtblZ 00457a40     druntime-ldc:thread.obj
 0002:00007ad8       __D4core6thread11ThreadGroup6__initZ 00457ad8     druntime-ldc:thread.obj
 0002:00007af0       __D4core6thread11ThreadGroup6__vtblZ 00457af0     druntime-ldc:thread.obj
 0002:00007b28       __D4core6thread5Fiber6__initZ 00457b28     druntime-ldc:thread.obj
 0002:00007b60       __D4core6thread5Fiber6__vtblZ 00457b60     druntime-ldc:thread.obj
 0002:00007c10       __D4core4time13TimeException6__vtblZ 00457c10     druntime-ldc:time.obj
 0002:00007c28       __D4core4time13TimeException6__initZ 00457c28     druntime-ldc:time.obj
 0002:00007cf8       __D4core3sys7windows7winbase21TIME_ZONE_INFORMATION6__initZ 00457cf8     druntime-ldc:winbase.obj
 0002:00007e10       __D11TypeInfo_Al6__initZ   00457e10     druntime-ldc:ti_Along.obj
 0002:00007e20       __D11TypeInfo_Al6__vtblZ   00457e20     druntime-ldc:ti_Along.obj
 0002:00007e7c       __D11TypeInfo_Am6__initZ   00457e7c     druntime-ldc:ti_Along.obj
 0002:00007e90       __D11TypeInfo_Am6__vtblZ   00457e90     druntime-ldc:ti_Along.obj
 0002:00007eec       __D10TypeInfo_l6__initZ    00457eec     druntime-ldc:ti_long.obj
 0002:00007f00       __D10TypeInfo_l6__vtblZ    00457f00     druntime-ldc:ti_long.obj
 0002:00007f5c       __D10TypeInfo_m6__initZ    00457f5c     druntime-ldc:ti_ulong.obj
 0002:00007f70       __D10TypeInfo_m6__vtblZ    00457f70     druntime-ldc:ti_ulong.obj
 0002:00007fc8       __D10TypeInfo_g6__initZ    00457fc8     druntime-ldc:ti_byte.obj
 0002:00007fd0       __D10TypeInfo_g6__vtblZ    00457fd0     druntime-ldc:ti_byte.obj
 0002:0000802c       __D10TypeInfo_s6__initZ    0045802c     druntime-ldc:ti_short.obj
 0002:00008040       __D10TypeInfo_s6__vtblZ    00458040     druntime-ldc:ti_short.obj
 0002:0000809c       __D10TypeInfo_f6__initZ    0045809c     druntime-ldc:ti_float.obj
 0002:000080b0       __D10TypeInfo_f6__vtblZ    004580b0     druntime-ldc:ti_float.obj
 0002:0000810c       __D10TypeInfo_d6__initZ    0045810c     druntime-ldc:ti_double.obj
 0002:00008120       __D10TypeInfo_d6__vtblZ    00458120     druntime-ldc:ti_double.obj
 0002:00008178       __D10TypeInfo_e6__initZ    00458178     druntime-ldc:ti_real.obj
 0002:00008180       __D10TypeInfo_e6__vtblZ    00458180     druntime-ldc:ti_real.obj
 0002:000081dc       __D10TypeInfo_o6__initZ    004581dc     druntime-ldc:ti_ifloat.obj
 0002:000081f0       __D10TypeInfo_o6__vtblZ    004581f0     druntime-ldc:ti_ifloat.obj
 0002:0000824c       __D10TypeInfo_p6__initZ    0045824c     druntime-ldc:ti_idouble.obj
 0002:00008260       __D10TypeInfo_p6__vtblZ    00458260     druntime-ldc:ti_idouble.obj
 0002:000082bc       __D10TypeInfo_j6__initZ    004582bc     druntime-ldc:ti_ireal.obj
 0002:000082d0       __D10TypeInfo_j6__vtblZ    004582d0     druntime-ldc:ti_ireal.obj
 0002:0000832c       __D10TypeInfo_q6__initZ    0045832c     druntime-ldc:ti_cfloat.obj
 0002:00008340       __D10TypeInfo_q6__vtblZ    00458340     druntime-ldc:ti_cfloat.obj
 0002:0000839c       __D10TypeInfo_r6__initZ    0045839c     druntime-ldc:ti_cdouble.obj
 0002:000083b0       __D10TypeInfo_r6__vtblZ    004583b0     druntime-ldc:ti_cdouble.obj
 0002:0000840c       __D10TypeInfo_c6__initZ    0045840c     druntime-ldc:ti_creal.obj
 0002:00008420       __D10TypeInfo_c6__vtblZ    00458420     druntime-ldc:ti_creal.obj
 0002:00008474       __D4core3sys7windows8winsock27WSADATA6__initZ 00458474     druntime-ldc:winsock2.obj
 0002:000087bd       __D4core5cpuid18getcacheinfoCPUID2FNbNiNeZ14decipherCpuid2MFNbNihZ3idsyG63h 004587bd     druntime-ldc:cpuid.obj
 0002:000087fc       __D4core5cpuid18getcacheinfoCPUID2FNbNiNeZ14decipherCpuid2MFNbNihZ5sizesyG63k 004587fc     druntime-ldc:cpuid.obj
 0002:000088f8       __D4core5cpuid18getcacheinfoCPUID2FNbNiNeZ14decipherCpuid2MFNbNihZ4waysyG63h 004588f8     druntime-ldc:cpuid.obj
 0002:00008960       __D4core4sync9exception9SyncError6__initZ 00458960     druntime-ldc:exception.obj
 0002:00008990       __D4core4sync9exception9SyncError6__vtblZ 00458990     druntime-ldc:exception.obj
 0002:00008a5c       __D4core4sync9semaphore9Semaphore6__initZ 00458a5c     druntime-ldc:semaphore.obj
 0002:00008a70       __D4core4sync9semaphore9Semaphore6__vtblZ 00458a70     druntime-ldc:semaphore.obj
 0002:00008ad8       __real@4330000000000000    00458ad8     druntime-ldc:gc.obj
 0002:00008ae0       __real@3fc5555555555555    00458ae0     druntime-ldc:gc.obj
 0002:00008ae8       __D2gc2gc7binsizeyG11k     00458ae8     druntime-ldc:gc.obj
 0002:00008b14       __D2gc2gc10notbinsizeyG11k 00458b14     druntime-ldc:gc.obj
 0002:00008cc2       __D2gc2gc3Gcx8binTablexG2049g 00458cc2     druntime-ldc:gc.obj
 0002:000094c4       __D4core3sys7windows10stacktrace10StackTrace16__interfaceInfosZ 004594c4     druntime-ldc:stacktrace.obj
 0002:000094ec       __D4core3sys7windows10stacktrace10StackTrace6__initZ 004594ec     druntime-ldc:stacktrace.obj
 0002:00009500       __D4core3sys7windows10stacktrace10StackTrace6__vtblZ 00459500     druntime-ldc:stacktrace.obj
 0002:0000951c       __D4core3sys7windows10stacktrace10StackTrace11__interface6object9Throwable9TraceInfo5Thn8_6__vtblZ 0045951c     druntime-ldc:stacktrace.obj
 0002:00009fb0       __D4core8demangle8Demangle14ParseException6__initZ 00459fb0     druntime-ldc:demangle.obj
 0002:00009fe0       __D4core8demangle8Demangle14ParseException6__vtblZ 00459fe0     druntime-ldc:demangle.obj
 0002:0000a028       __D4core8demangle8Demangle17OverflowException6__initZ 0045a028     druntime-ldc:demangle.obj
 0002:0000a050       __D4core8demangle8Demangle17OverflowException6__vtblZ 0045a050     druntime-ldc:demangle.obj
 0002:0000a0cc       __D4core8demangle8Demangle9parseTypeMFAaZ10primitivesyG23Aa 0045a0cc     druntime-ldc:demangle.obj
 0002:0000a34c       __D4core8demangle8Demangle6__initZ 0045a34c     druntime-ldc:demangle.obj
 0002:0000a368       __pDestructExceptionObject 0045a368     libvcruntime:frame.obj
 0002:0000a370       ??_7exception@std@@6B@     0045a370     libvcruntime:frame.obj
 0002:0000a378       ??_C@_0BC@EOODALEL@Unknown?5exception?$AA@ 0045a378     libvcruntime:frame.obj
 0002:0000a390       ??_7bad_exception@std@@6B@ 0045a390     libvcruntime:frame.obj
 0002:0000a398       ??_C@_0O@DPKOEFFH@bad?5exception?$AA@ 0045a398     libvcruntime:frame.obj
 0002:0000a3d8       ??_C@_1BC@DNHGCMLG@?$AAa?$AAd?$AAv?$AAa?$AAp?$AAi?$AA3?$AA2?$AA?$AA@ 0045a3d8     libvcruntime:winapi_downlevel.obj
 0002:0000a3ec       ??_C@_1DM@KHCHBNEB@?$AAa?$AAp?$AAi?$AA?9?$AAm?$AAs?$AA?9?$AAw?$AAi?$AAn?$AA?9?$AAc?$AAo?$AAr?$AAe?$AA?9?$AAf?$AAi?$AAb?$AAe?$AAr?$AAs?$AA?9?$AAl?$AA1?$AA?9?$AA1?$AA?9?$AA1?$AA?$AA@ 0045a3ec     libvcruntime:winapi_downlevel.obj
 0002:0000a428       ??_C@_1DK@LPPGFMPP@?$AAa?$AAp?$AAi?$AA?9?$AAm?$AAs?$AA?9?$AAw?$AAi?$AAn?$AA?9?$AAc?$AAo?$AAr?$AAe?$AA?9?$AAs?$AAy?$AAn?$AAc?$AAh?$AA?9?$AAl?$AA1?$AA?9?$AA2?$AA?9?$AA0?$AA?$AA@ 0045a428     libvcruntime:winapi_downlevel.obj
 0002:0000a464       ??_C@_1BC@GDMECMAK@?$AAk?$AAe?$AAr?$AAn?$AAe?$AAl?$AA3?$AA2?$AA?$AA@ 0045a464     libvcruntime:winapi_downlevel.obj
 0002:0000a480       ??_C@_08KNHFBNJ@FlsAlloc?$AA@ 0045a480     libvcruntime:winapi_downlevel.obj
 0002:0000a494       ??_C@_07PEJMOBNF@FlsFree?$AA@ 0045a494     libvcruntime:winapi_downlevel.obj
 0002:0000a4a4       ??_C@_0M@GDNOONDI@FlsGetValue?$AA@ 0045a4a4     libvcruntime:winapi_downlevel.obj
 0002:0000a4b8       ??_C@_0M@JCPCPOEF@FlsSetValue?$AA@ 0045a4b8     libvcruntime:winapi_downlevel.obj
 0002:0000a4cc       ??_C@_0BM@HCFOFFN@InitializeCriticalSectionEx?$AA@ 0045a4cc     libvcruntime:winapi_downlevel.obj
 0002:0000a678       ??_C@_08EHJDFFNH@__based?$CI?$AA@ 0045a678     libvcruntime:undname.obj
 0002:0000a684       ??_C@_07KOLFKCDI@__cdecl?$AA@ 0045a684     libvcruntime:undname.obj
 0002:0000a68c       ??_C@_08GHMPAG@__pascal?$AA@ 0045a68c     libvcruntime:undname.obj
 0002:0000a698       ??_C@_09IFJBGAPI@__stdcall?$AA@ 0045a698     libvcruntime:undname.obj
 0002:0000a6a4       ??_C@_0L@NPHFGOKO@__thiscall?$AA@ 0045a6a4     libvcruntime:undname.obj
 0002:0000a6b0       ??_C@_0L@JMKHOMEK@__fastcall?$AA@ 0045a6b0     libvcruntime:undname.obj
 0002:0000a6bc       ??_C@_0N@BCKKPABJ@__vectorcall?$AA@ 0045a6bc     libvcruntime:undname.obj
 0002:0000a6cc       ??_C@_09HIJEGCPM@__clrcall?$AA@ 0045a6cc     libvcruntime:undname.obj
 0002:0000a6d8       ??_C@_06GHPCKEAG@__eabi?$AA@ 0045a6d8     libvcruntime:undname.obj
 0002:0000a6e0       ??_C@_07JOMMBBKO@__ptr64?$AA@ 0045a6e0     libvcruntime:undname.obj
 0002:0000a6e8       ??_C@_0L@PILCLIHE@__restrict?$AA@ 0045a6e8     libvcruntime:undname.obj
 0002:0000a6f4       ??_C@_0M@GFIIJFMG@__unaligned?$AA@ 0045a6f4     libvcruntime:undname.obj
 0002:0000a700       ??_C@_09DHDLOLLB@restrict?$CI?$AA@ 0045a700     libvcruntime:undname.obj
 0002:0000a70a       ??_C@_00CNPNBAHC@?$AA@     0045a70a     libvcruntime:undname.obj
 0002:0000a70c       ??_C@_04NIHEBCM@?5new?$AA@ 0045a70c     libvcruntime:undname.obj
 0002:0000a714       ??_C@_07FPCDHGMM@?5delete?$AA@ 0045a714     libvcruntime:undname.obj
 0002:0000a71c       ??_C@_01NEMOKFLO@?$DN?$AA@ 0045a71c     libvcruntime:undname.obj
 0002:0000a720       ??_C@_02GPIOPFAK@?$DO?$DO?$AA@ 0045a720     libvcruntime:undname.obj
 0002:0000a724       ??_C@_02FODMEDOG@?$DM?$DM?$AA@ 0045a724     libvcruntime:undname.obj
 0002:0000a728       ??_C@_01DCLJPIOD@?$CB?$AA@ 0045a728     libvcruntime:undname.obj
 0002:0000a72c       ??_C@_02EGOFBIJA@?$DN?$DN?$AA@ 0045a72c     libvcruntime:undname.obj
 0002:0000a730       ??_C@_02FDNJECIE@?$CB?$DN?$AA@ 0045a730     libvcruntime:undname.obj
 0002:0000a734       ??_C@_02GPECMEKF@?$FL?$FN?$AA@ 0045a734     libvcruntime:undname.obj
 0002:0000a738       ??_C@_08LHJFAFGD@operator?$AA@ 0045a738     libvcruntime:undname.obj
 0002:0000a744       ??_C@_02HBOOOICD@?9?$DO?$AA@ 0045a744     libvcruntime:undname.obj
 0002:0000a748       ??_C@_01NBENCBCI@?$CK?$AA@ 0045a748     libvcruntime:undname.obj
 0002:0000a74c       ??_C@_02ECNGHCIF@?$CL?$CL?$AA@ 0045a74c     libvcruntime:undname.obj
 0002:0000a750       ??_C@_02BAABKJLB@?9?9?$AA@ 0045a750     libvcruntime:undname.obj
 0002:0000a754       ??_C@_01JOAMLHOP@?9?$AA@   0045a754     libvcruntime:undname.obj
 0002:0000a758       ??_C@_01MIFGBAGJ@?$CL?$AA@ 0045a758     libvcruntime:undname.obj
 0002:0000a75c       ??_C@_01HNPIGOCE@?$CG?$AA@ 0045a75c     libvcruntime:undname.obj
 0002:0000a760       ??_C@_03MNHNFDLC@?9?$DO?$CK?$AA@ 0045a760     libvcruntime:undname.obj
 0002:0000a764       ??_C@_01KMDKNFGN@?1?$AA@   0045a764     libvcruntime:undname.obj
 0002:0000a768       ??_C@_01FGNFDNOH@?$CF?$AA@ 0045a768     libvcruntime:undname.obj
 0002:0000a76c       ??_C@_01MNNFJEPP@?$DM?$AA@ 0045a76c     libvcruntime:undname.obj
 0002:0000a770       ??_C@_02EHCHHCKH@?$DM?$DN?$AA@ 0045a770     libvcruntime:undname.obj
 0002:0000a774       ??_C@_01PPODPGHN@?$DO?$AA@ 0045a774     libvcruntime:undname.obj
 0002:0000a778       ??_C@_02EEKDKGMJ@?$DO?$DN?$AA@ 0045a778     libvcruntime:undname.obj
 0002:0000a77c       ??_C@_01IHBHIGKO@?0?$AA@   0045a77c     libvcruntime:undname.obj
 0002:0000a780       ??_C@_02HCKGKOFO@?$CI?$CJ?$AA@ 0045a780     libvcruntime:undname.obj
 0002:0000a784       ??_C@_01PJKLJHI@?$HO?$AA@  0045a784     libvcruntime:undname.obj
 0002:0000a788       ??_C@_01JKBOJNNK@?$FO?$AA@ 0045a788     libvcruntime:undname.obj
 0002:0000a78c       ??_C@_01DNKMNLPK@?$HM?$AA@ 0045a78c     libvcruntime:undname.obj
 0002:0000a790       ??_C@_02PPKAJPJL@?$CG?$CG?$AA@ 0045a790     libvcruntime:undname.obj
 0002:0000a794       ??_C@_02NONPIBCD@?$HM?$HM?$AA@ 0045a794     libvcruntime:undname.obj
 0002:0000a798       ??_C@_02FPIMKNGF@?$CK?$DN?$AA@ 0045a798     libvcruntime:undname.obj
 0002:0000a79c       ??_C@_02FOEOMHFC@?$CL?$DN?$AA@ 0045a79c     libvcruntime:undname.obj
 0002:0000a7a0       ??_C@_02FKMDLLOA@?9?$DN?$AA@ 0045a7a0     libvcruntime:undname.obj
 0002:0000a7a4       ??_C@_02FJEHGPIO@?1?$DN?$AA@ 0045a7a4     libvcruntime:undname.obj
 0002:0000a7a8       ??_C@_02FENAOKFI@?$CF?$DN?$AA@ 0045a7a8     libvcruntime:undname.obj
 0002:0000a7ac       ??_C@_03IKFCCPFF@?$DO?$DO?$DN?$AA@ 0045a7ac     libvcruntime:undname.obj
 0002:0000a7b0       ??_C@_03CDNPDDLA@?$DM?$DM?$DN?$AA@ 0045a7b0     libvcruntime:undname.obj
 0002:0000a7b4       ??_C@_02FGJGFEAB@?$CG?$DN?$AA@ 0045a7b4     libvcruntime:undname.obj
 0002:0000a7b8       ??_C@_02DHLNPPGH@?$HM?$DN?$AA@ 0045a7b8     libvcruntime:undname.obj
 0002:0000a7bc       ??_C@_02MHEGNOJ@?$FO?$DN?$AA@ 0045a7bc     libvcruntime:undname.obj
 0002:0000a7c0       ??_C@_09IFPLHPGF@?$GAvftable?8?$AA@ 0045a7c0     libvcruntime:undname.obj
 0002:0000a7cc       ??_C@_09BLBHBJP@?$GAvbtable?8?$AA@ 0045a7cc     libvcruntime:undname.obj
 0002:0000a7d8       ??_C@_07FEEIOKP@?$GAvcall?8?$AA@ 0045a7d8     libvcruntime:undname.obj
 0002:0000a7e0       ??_C@_08LLFFHHDJ@?$GAtypeof?8?$AA@ 0045a7e0     libvcruntime:undname.obj
 0002:0000a7ec       ??_C@_0BF@KDPPACIK@?$GAlocal?5static?5guard?8?$AA@ 0045a7ec     libvcruntime:undname.obj
 0002:0000a804       ??_C@_08OBABFOLI@?$GAstring?8?$AA@ 0045a804     libvcruntime:undname.obj
 0002:0000a810       ??_C@_0BD@JDLKDPAB@?$GAvbase?5destructor?8?$AA@ 0045a810     libvcruntime:undname.obj
 0002:0000a824       ??_C@_0BN@DEGPLNFK@?$GAvector?5deleting?5destructor?8?$AA@ 0045a824     libvcruntime:undname.obj
 0002:0000a844       ??_C@_0BO@OBMKPJIG@?$GAdefault?5constructor?5closure?8?$AA@ 0045a844     libvcruntime:undname.obj
 0002:0000a864       ??_C@_0BN@IMDCHIKM@?$GAscalar?5deleting?5destructor?8?$AA@ 0045a864     libvcruntime:undname.obj
 0002:0000a884       ??_C@_0BO@PFGOCPJJ@?$GAvector?5constructor?5iterator?8?$AA@ 0045a884     libvcruntime:undname.obj
 0002:0000a8a4       ??_C@_0BN@LFPFMEDL@?$GAvector?5destructor?5iterator?8?$AA@ 0045a8a4     libvcruntime:undname.obj
 0002:0000a8c4       ??_C@_0CE@IKBNEHA@?$GAvector?5vbase?5constructor?5iterat@ 0045a8c4     libvcruntime:undname.obj
 0002:0000a8e8       ??_C@_0BL@NILFHHPC@?$GAvirtual?5displacement?5map?8?$AA@ 0045a8e8     libvcruntime:undname.obj
 0002:0000a904       ??_C@_0CB@JONCMFFK@?$GAeh?5vector?5constructor?5iterator?8@ 0045a904     libvcruntime:undname.obj
 0002:0000a928       ??_C@_0CA@GCEOPDGL@?$GAeh?5vector?5destructor?5iterator?8?$AA@ 0045a928     libvcruntime:undname.obj
 0002:0000a948       ??_C@_0CH@OOJPLCPH@?$GAeh?5vector?5vbase?5constructor?5ite@ 0045a948     libvcruntime:undname.obj
 0002:0000a970       ??_C@_0BL@LLKPOHJI@?$GAcopy?5constructor?5closure?8?$AA@ 0045a970     libvcruntime:undname.obj
 0002:0000a98c       ??_C@_0BA@KBCDOMBN@?$GAudt?5returning?8?$AA@ 0045a98c     libvcruntime:undname.obj
 0002:0000a99c       ??_C@_03KLGMFNMG@?$GAEH?$AA@ 0045a99c     libvcruntime:undname.obj
 0002:0000a9a0       ??_C@_05KHLCHHI@?$GARTTI?$AA@ 0045a9a0     libvcruntime:undname.obj
 0002:0000a9a8       ??_C@_0BA@KKLDJDLB@?$GAlocal?5vftable?8?$AA@ 0045a9a8     libvcruntime:undname.obj
 0002:0000a9b8       ??_C@_0CE@IIHCMGGL@?$GAlocal?5vftable?5constructor?5closu@ 0045a9b8     libvcruntime:undname.obj
 0002:0000a9dc       ??_C@_06FHBGPFGH@?5new?$FL?$FN?$AA@ 0045a9dc     libvcruntime:undname.obj
 0002:0000a9e4       ??_C@_09LBNFPBCA@?5delete?$FL?$FN?$AA@ 0045a9e4     libvcruntime:undname.obj
 0002:0000a9f0       ??_C@_0P@HJKNJFNN@?$GAomni?5callsig?8?$AA@ 0045a9f0     libvcruntime:undname.obj
 0002:0000aa00       ??_C@_0BL@CNOONJFP@?$GAplacement?5delete?5closure?8?$AA@ 0045aa00     libvcruntime:undname.obj
 0002:0000aa1c       ??_C@_0BN@CKNJLHMB@?$GAplacement?5delete?$FL?$FN?5closure?8?$AA@ 0045aa1c     libvcruntime:undname.obj
 0002:0000aa3c       ??_C@_0CG@CFDHKGGD@?$GAmanaged?5vector?5constructor?5iter@ 0045aa3c     libvcruntime:undname.obj
 0002:0000aa64       ??_C@_0CF@IMGKMJNO@?$GAmanaged?5vector?5destructor?5itera@ 0045aa64     libvcruntime:undname.obj
 0002:0000aa8c       ??_C@_0CG@HLDDJMAG@?$GAeh?5vector?5copy?5constructor?5iter@ 0045aa8c     libvcruntime:undname.obj
 0002:0000aab4       ??_C@_0CM@FCBBDIGB@?$GAeh?5vector?5vbase?5copy?5constructo@ 0045aab4     libvcruntime:undname.obj
 0002:0000aae0       ??_C@_0BL@CLIPGLGB@?$GAdynamic?5initializer?5for?5?8?$AA@ 0045aae0     libvcruntime:undname.obj
 0002:0000aafc       ??_C@_0CB@PDBIFEP@?$GAdynamic?5atexit?5destructor?5for?5?8@ 0045aafc     libvcruntime:undname.obj
 0002:0000ab20       ??_C@_0CD@CGAJBKEJ@?$GAvector?5copy?5constructor?5iterato@ 0045ab20     libvcruntime:undname.obj
 0002:0000ab44       ??_C@_0CJ@GJELGAMM@?$GAvector?5vbase?5copy?5constructor?5i@ 0045ab44     libvcruntime:undname.obj
 0002:0000ab70       ??_C@_0CL@FGIJHLCE@?$GAmanaged?5vector?5copy?5constructor@ 0045ab70     libvcruntime:undname.obj
 0002:0000ab9c       ??_C@_0BM@PMGGMLDN@?$GAlocal?5static?5thread?5guard?8?$AA@ 0045ab9c     libvcruntime:undname.obj
 0002:0000abb8       ??_C@_0N@BDNMDMOL@operator?5?$CC?$CC?5?$AA@ 0045abb8     libvcruntime:undname.obj
 0002:0000abc8       ??_C@_0BC@DAFEJGAK@?5Type?5Descriptor?8?$AA@ 0045abc8     libvcruntime:undname.obj
 0002:0000abdc       ??_C@_0BM@LDKODKLH@?5Base?5Class?5Descriptor?5at?5?$CI?$AA@ 0045abdc     libvcruntime:undname.obj
 0002:0000abf8       ??_C@_0BD@LGICGFMM@?5Base?5Class?5Array?8?$AA@ 0045abf8     libvcruntime:undname.obj
 0002:0000ac0c       ??_C@_0BN@MECKDCOJ@?5Class?5Hierarchy?5Descriptor?8?$AA@ 0045ac0c     libvcruntime:undname.obj
 0002:0000ac2c       ??_C@_0BK@CFCOFLF@?5Complete?5Object?5Locator?8?$AA@ 0045ac2c     libvcruntime:undname.obj
 0002:0000ac4c       ??_7type_info@@6B@         0045ac4c     LIBCMT:std_type_info_static.obj
 0002:0000ac58       ??_C@_0EA@FCLIIPNN@Visual?5C?$CL?$CL?5CRT?3?5Not?5enough?5memor@ 0045ac58     libucrt:strerror.obj
 0002:0000adf8       ?large_power_data@?1??multiply_by_power_of_ten@__crt_strtox@@YA_NAAUbig_integer@2@I@Z@4QBIB 0045adf8     libucrt:strtod.obj
 0002:0000b700       ?large_power_indices@?1??multiply_by_power_of_ten@__crt_strtox@@YA_NAAUbig_integer@2@I@Z@4QBUunpack_index@?1??12@YA_N0I@Z@B 0045b700     libucrt:strtod.obj
 0002:0000b798       ?small_powers_of_ten@?1??multiply_by_power_of_ten@__crt_strtox@@YA_NAAUbig_integer@2@I@Z@4QBIB 0045b798     libucrt:strtod.obj
 0002:0000b7c0       ??_C@_1GE@DPGDJKLM@?$AAm?$AAi?$AAn?$AAk?$AAe?$AAr?$AAn?$AAe?$AAl?$AA?2?$AAc?$AAr?$AAt?$AAs?$AA?2?$AAu?$AAc?$AAr?$AAt?$AA?2?$AAi?$AAn?$AAc?$AA?2?$AAc?$AAo?$AAr?$AAe?$AAc?$AAr?$AAt?$AA_@ 0045b7c0     libucrt:strtod.obj
 0002:0000b828       ??_C@_1FM@FELNCOBF@?$AA_?$AA_?$AAc?$AAr?$AAt?$AA_?$AAs?$AAt?$AAr?$AAt?$AAo?$AAx?$AA?3?$AA?3?$AAf?$AAl?$AAo?$AAa?$AAt?$AAi?$AAn?$AAg?$AA_?$AAp?$AAo?$AAi?$AAn?$AAt?$AA_?$AAv?$AAa?$AAl@ 0045b828     libucrt:strtod.obj
 0002:0000b884       ??_C@_1BG@GEMHBGAF@?$AA_?$AAi?$AAs?$AA_?$AAd?$AAo?$AAu?$AAb?$AAl?$AAe?$AA?$AA@ 0045b884     libucrt:strtod.obj
 0002:0000b8a0       ??_C@_1FK@JOJELFFO@?$AA_?$AA_?$AAc?$AAr?$AAt?$AA_?$AAs?$AAt?$AAr?$AAt?$AAo?$AAx?$AA?3?$AA?3?$AAf?$AAl?$AAo?$AAa?$AAt?$AAi?$AAn?$AAg?$AA_?$AAp?$AAo?$AAi?$AAn?$AAt?$AA_?$AAv?$AAa?$AAl@ 0045b8a0     libucrt:strtod.obj
 0002:0000b8fc       ??_C@_1BI@BANMPGJI@?$AA?$CB?$AA_?$AAi?$AAs?$AA_?$AAd?$AAo?$AAu?$AAb?$AAl?$AAe?$AA?$AA@ 0045b8fc     libucrt:strtod.obj
 0002:0000b914       ?inf_uppercase@?1???$parse_floating_point_possible_infinity@DV?$c_string_character_source@D@__crt_strtox@@PBD@__crt_strtox@@YA?AW4floating_point_parse_result@1@AADAAV?$c_string_character_source@D@1@PBD@Z@4QBDB 0045b914     libucrt:strtod.obj
 0002:0000b918       ?inf_lowercase@?1???$parse_floating_point_possible_infinity@DV?$c_string_character_source@D@__crt_strtox@@PBD@__crt_strtox@@YA?AW4floating_point_parse_result@1@AADAAV?$c_string_character_source@D@1@PBD@Z@4QBDB 0045b918     libucrt:strtod.obj
 0002:0000b91c       ?inity_uppercase@?1???$parse_floating_point_possible_infinity@DV?$c_string_character_source@D@__crt_strtox@@PBD@__crt_strtox@@YA?AW4floating_point_parse_result@1@AADAAV?$c_string_character_source@D@1@PBD@Z@4QBDB 0045b91c     libucrt:strtod.obj
 0002:0000b924       ?inity_lowercase@?1???$parse_floating_point_possible_infinity@DV?$c_string_character_source@D@__crt_strtox@@PBD@__crt_strtox@@YA?AW4floating_point_parse_result@1@AADAAV?$c_string_character_source@D@1@PBD@Z@4QBDB 0045b924     libucrt:strtod.obj
 0002:0000b92c       ?uppercase@?1???$parse_floating_point_possible_nan@DV?$c_string_character_source@D@__crt_strtox@@PBD@__crt_strtox@@YA?AW4floating_point_parse_result@1@AADAAV?$c_string_character_source@D@1@PBD@Z@4QBDB 0045b92c     libucrt:strtod.obj
 0002:0000b930       ?lowercase@?1???$parse_floating_point_possible_nan@DV?$c_string_character_source@D@__crt_strtox@@PBD@__crt_strtox@@YA?AW4floating_point_parse_result@1@AADAAV?$c_string_character_source@D@1@PBD@Z@4QBDB 0045b930     libucrt:strtod.obj
 0002:0000b934       ?uppercase@?1???$parse_floating_point_possible_nan_is_snan@DV?$c_string_character_source@D@__crt_strtox@@@__crt_strtox@@YA_NAADAAV?$c_string_character_source@D@1@@Z@4QBDB 0045b934     libucrt:strtod.obj
 0002:0000b93c       ?lowercase@?1???$parse_floating_point_possible_nan_is_snan@DV?$c_string_character_source@D@__crt_strtox@@@__crt_strtox@@YA_NAADAAV?$c_string_character_source@D@1@@Z@4QBDB 0045b93c     libucrt:strtod.obj
 0002:0000b944       ?uppercase@?1???$parse_floating_point_possible_nan_is_ind@DV?$c_string_character_source@D@__crt_strtox@@@__crt_strtox@@YA_NAADAAV?$c_string_character_source@D@1@@Z@4QBDB 0045b944     libucrt:strtod.obj
 0002:0000b948       ?lowercase@?1???$parse_floating_point_possible_nan_is_ind@DV?$c_string_character_source@D@__crt_strtox@@@__crt_strtox@@YA_NAADAAV?$c_string_character_source@D@1@@Z@4QBDB 0045b948     libucrt:strtod.obj
 0002:0000b950       _standard_lookup_table     0045b950     libucrt:output.obj
 0002:0000b9ac       ??_C@_1O@CEDCILHN@?$AA?$CI?$AAn?$AAu?$AAl?$AAl?$AA?$CJ?$AA?$AA@ 0045b9ac     libucrt:output.obj
 0002:0000b9bc       ??_C@_06OJHGLDPL@?$CInull?$CJ?$AA@ 0045b9bc     libucrt:output.obj
 0002:0000b9c8       ?constraints@?1??is_length_valid@__crt_stdio_input@@YA_NW4conversion_mode@2@W4length_modifier@2@@Z@4QAY0M@$$CBEA 0045b9c8     libucrt:input.obj
 0002:0000ba40       ?inf_uppercase@?1???$parse_floating_point_possible_infinity@DV?$input_adapter_character_source@V?$string_input_adapter@D@__crt_stdio_input@@@__crt_strtox@@_K@__crt_strtox@@YA?AW4floating_point_parse_result@1@AADAAV?$input_adapter_character_source@V?$string_input_adapter@D@__crt_stdio_input@@@1@_K@Z@4QBDB 0045ba40     libucrt:input.obj
 0002:0000ba44       ?inf_lowercase@?1???$parse_floating_point_possible_infinity@DV?$input_adapter_character_source@V?$string_input_adapter@D@__crt_stdio_input@@@__crt_strtox@@_K@__crt_strtox@@YA?AW4floating_point_parse_result@1@AADAAV?$input_adapter_character_source@V?$string_input_adapter@D@__crt_stdio_input@@@1@_K@Z@4QBDB 0045ba44     libucrt:input.obj
 0002:0000ba48       ?inity_uppercase@?1???$parse_floating_point_possible_infinity@DV?$input_adapter_character_source@V?$string_input_adapter@D@__crt_stdio_input@@@__crt_strtox@@_K@__crt_strtox@@YA?AW4floating_point_parse_result@1@AADAAV?$input_adapter_character_source@V?$string_input_adapter@D@__crt_stdio_input@@@1@_K@Z@4QBDB 0045ba48     libucrt:input.obj
 0002:0000ba50       ?inity_lowercase@?1???$parse_floating_point_possible_infinity@DV?$input_adapter_character_source@V?$string_input_adapter@D@__crt_stdio_input@@@__crt_strtox@@_K@__crt_strtox@@YA?AW4floating_point_parse_result@1@AADAAV?$input_adapter_character_source@V?$string_input_adapter@D@__crt_stdio_input@@@1@_K@Z@4QBDB 0045ba50     libucrt:input.obj
 0002:0000ba58       ?uppercase@?1???$parse_floating_point_possible_nan@DV?$input_adapter_character_source@V?$string_input_adapter@D@__crt_stdio_input@@@__crt_strtox@@_K@__crt_strtox@@YA?AW4floating_point_parse_result@1@AADAAV?$input_adapter_character_source@V?$string_input_adapter@D@__crt_stdio_input@@@1@_K@Z@4QBDB 0045ba58     libucrt:input.obj
 0002:0000ba5c       ?lowercase@?1???$parse_floating_point_possible_nan@DV?$input_adapter_character_source@V?$string_input_adapter@D@__crt_stdio_input@@@__crt_strtox@@_K@__crt_strtox@@YA?AW4floating_point_parse_result@1@AADAAV?$input_adapter_character_source@V?$string_input_adapter@D@__crt_stdio_input@@@1@_K@Z@4QBDB 0045ba5c     libucrt:input.obj
 0002:0000ba60       ?uppercase@?1???$parse_floating_point_possible_nan_is_snan@DV?$input_adapter_character_source@V?$string_input_adapter@D@__crt_stdio_input@@@__crt_strtox@@@__crt_strtox@@YA_NAADAAV?$input_adapter_character_source@V?$string_input_adapter@D@__crt_stdio_input@@@1@@Z@4QBDB 0045ba60     libucrt:input.obj
 0002:0000ba68       ?lowercase@?1???$parse_floating_point_possible_nan_is_snan@DV?$input_adapter_character_source@V?$string_input_adapter@D@__crt_stdio_input@@@__crt_strtox@@@__crt_strtox@@YA_NAADAAV?$input_adapter_character_source@V?$string_input_adapter@D@__crt_stdio_input@@@1@@Z@4QBDB 0045ba68     libucrt:input.obj
 0002:0000ba70       ?uppercase@?1???$parse_floating_point_possible_nan_is_ind@DV?$input_adapter_character_source@V?$string_input_adapter@D@__crt_stdio_input@@@__crt_strtox@@@__crt_strtox@@YA_NAADAAV?$input_adapter_character_source@V?$string_input_adapter@D@__crt_stdio_input@@@1@@Z@4QBDB 0045ba70     libucrt:input.obj
 0002:0000ba74       ?lowercase@?1???$parse_floating_point_possible_nan_is_ind@DV?$input_adapter_character_source@V?$string_input_adapter@D@__crt_stdio_input@@@__crt_strtox@@@__crt_strtox@@YA_NAADAAV?$input_adapter_character_source@V?$string_input_adapter@D@__crt_stdio_input@@@1@@Z@4QBDB 0045ba74     libucrt:input.obj
 0002:0000ba78       ___acrt_exception_action_table 0045ba78     libucrt:exception_filter.obj
 0002:0000bb08       ___acrt_signal_action_table_count 0045bb08     libucrt:exception_filter.obj
 0002:0000bb0c       ___acrt_signal_action_first_fpe_index 0045bb0c     libucrt:exception_filter.obj
 0002:0000bb10       ___acrt_signal_action_fpe_count 0045bb10     libucrt:exception_filter.obj
 0002:0000bb14       ??_C@_1BI@BGOHAHKC@?$AAm?$AAs?$AAc?$AAo?$AAr?$AAe?$AAe?$AA?4?$AAd?$AAl?$AAl?$AA?$AA@ 0045bb14     libucrt:exit.obj
 0002:0000bb2c       ??_C@_0P@MIGLKIOC@CorExitProcess?$AA@ 0045bb2c     libucrt:exit.obj
 0002:0000bbb8       ??_C@_02CLFPBFFP@TZ?$AA@   0045bbb8     libucrt:tzset.obj
 0002:0000bc10       ??_C@_1EA@JGEFHKEI@?$AAa?$AAp?$AAi?$AA?9?$AAm?$AAs?$AA?9?$AAw?$AAi?$AAn?$AA?9?$AAc?$AAo?$AAr?$AAe?$AA?9?$AAd?$AAa?$AAt?$AAe?$AAt?$AAi?$AAm?$AAe?$AA?9?$AAl?$AA1?$AA?9?$AA1?$AA?9?$AA1?$AA?$AA@ 0045bc10     libucrt:winapi_thunks.obj
 0002:0000bc50       ??_C@_1EI@MPIAOHOC@?$AAa?$AAp?$AAi?$AA?9?$AAm?$AAs?$AA?9?$AAw?$AAi?$AAn?$AA?9?$AAc?$AAo?$AAr?$AAe?$AA?9?$AAl?$AAo?$AAc?$AAa?$AAl?$AAi?$AAz?$AAa?$AAt?$AAi?$AAo?$AAn?$AA?9?$AAl?$AA1?$AA?9@ 0045bc50     libucrt:winapi_thunks.obj
 0002:0000bc98       ??_C@_1FK@FPHCKFIE@?$AAa?$AAp?$AAi?$AA?9?$AAm?$AAs?$AA?9?$AAw?$AAi?$AAn?$AA?9?$AAc?$AAo?$AAr?$AAe?$AA?9?$AAl?$AAo?$AAc?$AAa?$AAl?$AAi?$AAz?$AAa?$AAt?$AAi?$AAo?$AAn?$AA?9?$AAo?$AAb?$AAs@ 0045bc98     libucrt:winapi_thunks.obj
 0002:0000bcf8       ??_C@_1EM@DILCGIIO@?$AAa?$AAp?$AAi?$AA?9?$AAm?$AAs?$AA?9?$AAw?$AAi?$AAn?$AA?9?$AAc?$AAo?$AAr?$AAe?$AA?9?$AAp?$AAr?$AAo?$AAc?$AAe?$AAs?$AAs?$AAt?$AAh?$AAr?$AAe?$AAa?$AAd?$AAs?$AA?9?$AAl@ 0045bcf8     libucrt:winapi_thunks.obj
 0002:0000bd44       ??_C@_1DM@LNCGDDPN@?$AAa?$AAp?$AAi?$AA?9?$AAm?$AAs?$AA?9?$AAw?$AAi?$AAn?$AA?9?$AAc?$AAo?$AAr?$AAe?$AA?9?$AAs?$AAt?$AAr?$AAi?$AAn?$AAg?$AA?9?$AAl?$AA1?$AA?9?$AA1?$AA?9?$AA0?$AA?$AA@ 0045bd44     libucrt:winapi_thunks.obj
 0002:0000bd80       ??_C@_1DO@FPAPJEMD@?$AAa?$AAp?$AAi?$AA?9?$AAm?$AAs?$AA?9?$AAw?$AAi?$AAn?$AA?9?$AAc?$AAo?$AAr?$AAe?$AA?9?$AAs?$AAy?$AAs?$AAi?$AAn?$AAf?$AAo?$AA?9?$AAl?$AA1?$AA?9?$AA2?$AA?9?$AA1?$AA?$AA@ 0045bd80     libucrt:winapi_thunks.obj
 0002:0000bdc0       ??_C@_1DK@NDHNAHIO@?$AAa?$AAp?$AAi?$AA?9?$AAm?$AAs?$AA?9?$AAw?$AAi?$AAn?$AA?9?$AAc?$AAo?$AAr?$AAe?$AA?9?$AAw?$AAi?$AAn?$AAr?$AAt?$AA?9?$AAl?$AA1?$AA?9?$AA1?$AA?9?$AA0?$AA?$AA@ 0045bdc0     libucrt:winapi_thunks.obj
 0002:0000bdfc       ??_C@_1DM@KGHDGBCM@?$AAa?$AAp?$AAi?$AA?9?$AAm?$AAs?$AA?9?$AAw?$AAi?$AAn?$AA?9?$AAc?$AAo?$AAr?$AAe?$AA?9?$AAx?$AAs?$AAt?$AAa?$AAt?$AAe?$AA?9?$AAl?$AA2?$AA?9?$AA1?$AA?9?$AA0?$AA?$AA@ 0045bdfc     libucrt:winapi_thunks.obj
 0002:0000be38       ??_C@_1EO@IJIOEFOH@?$AAa?$AAp?$AAi?$AA?9?$AAm?$AAs?$AA?9?$AAw?$AAi?$AAn?$AA?9?$AAr?$AAt?$AAc?$AAo?$AAr?$AAe?$AA?9?$AAn?$AAt?$AAu?$AAs?$AAe?$AAr?$AA?9?$AAw?$AAi?$AAn?$AAd?$AAo?$AAw?$AA?9@ 0045be38     libucrt:winapi_thunks.obj
 0002:0000be88       ??_C@_1FG@HHGEKANL@?$AAa?$AAp?$AAi?$AA?9?$AAm?$AAs?$AA?9?$AAw?$AAi?$AAn?$AA?9?$AAs?$AAe?$AAc?$AAu?$AAr?$AAi?$AAt?$AAy?$AA?9?$AAs?$AAy?$AAs?$AAt?$AAe?$AAm?$AAf?$AAu?$AAn?$AAc?$AAt?$AAi@ 0045be88     libucrt:winapi_thunks.obj
 0002:0000bee0       ??_C@_1EG@DBIOJECG@?$AAe?$AAx?$AAt?$AA?9?$AAm?$AAs?$AA?9?$AAw?$AAi?$AAn?$AA?9?$AAn?$AAt?$AAu?$AAs?$AAe?$AAr?$AA?9?$AAd?$AAi?$AAa?$AAl?$AAo?$AAg?$AAb?$AAo?$AAx?$AA?9?$AAl?$AA1?$AA?9?$AA1@ 0045bee0     libucrt:winapi_thunks.obj
 0002:0000bf28       ??_C@_1EO@FIHMJCLF@?$AAe?$AAx?$AAt?$AA?9?$AAm?$AAs?$AA?9?$AAw?$AAi?$AAn?$AA?9?$AAn?$AAt?$AAu?$AAs?$AAe?$AAr?$AA?9?$AAw?$AAi?$AAn?$AAd?$AAo?$AAw?$AAs?$AAt?$AAa?$AAt?$AAi?$AAo?$AAn?$AA?9@ 0045bf28     libucrt:winapi_thunks.obj
 0002:0000bf78       ??_C@_1M@OAIMIKLP@?$AAn?$AAt?$AAd?$AAl?$AAl?$AA?$AA@ 0045bf78     libucrt:winapi_thunks.obj
 0002:0000bf88       ??_C@_1EG@DPGNFKGC@?$AAa?$AAp?$AAi?$AA?9?$AAm?$AAs?$AA?9?$AAw?$AAi?$AAn?$AA?9?$AAa?$AAp?$AAp?$AAm?$AAo?$AAd?$AAe?$AAl?$AA?9?$AAr?$AAu?$AAn?$AAt?$AAi?$AAm?$AAe?$AA?9?$AAl?$AA1?$AA?9?$AA1@ 0045bf88     libucrt:winapi_thunks.obj
 0002:0000bfd0       ??_C@_1O@BCCLBEOE@?$AAu?$AAs?$AAe?$AAr?$AA3?$AA2?$AA?$AA@ 0045bfd0     libucrt:winapi_thunks.obj
 0002:0000bfe0       ??_C@_1BA@PFFKHIOG@?$AAa?$AAp?$AAi?$AA?9?$AAm?$AAs?$AA?9?$AA?$AA@ 0045bfe0     libucrt:winapi_thunks.obj
 0002:0000bff0       ??_C@_1BA@IAIFMGEF@?$AAe?$AAx?$AAt?$AA?9?$AAm?$AAs?$AA?9?$AA?$AA@ 0045bff0     libucrt:winapi_thunks.obj
 0002:0000c008       ??_C@_0BA@IHGNDAEB@CompareStringEx?$AA@ 0045c008     libucrt:winapi_thunks.obj
 0002:0000c03c       ??_C@_0BP@FPNJPEJC@GetSystemTimePreciseAsFileTime?$AA@ 0045c03c     libucrt:winapi_thunks.obj
 0002:0000c06c       ??_C@_0O@KKBNKAPF@LCMapStringEx?$AA@ 0045c06c     libucrt:winapi_thunks.obj
 0002:0000c084       ??_C@_0BB@HBDEELFH@LocaleNameToLCID?$AA@ 0045c084     libucrt:winapi_thunks.obj
 0002:0000c09c       ??_C@_0N@PPOMPGGK@RoInitialize?$AA@ 0045c09c     libucrt:winapi_thunks.obj
 0002:0000c0b0       ??_C@_0P@LLFHBIJD@RoUninitialize?$AA@ 0045c0b0     libucrt:winapi_thunks.obj
 0002:0000c0c4       ??_C@_0CF@OJOFEIGO@AppPolicyGetProcessTerminationMe@ 0045c0c4     libucrt:winapi_thunks.obj
 0002:0000c0f0       ??_C@_0CF@NNDFDCOC@AppPolicyGetThreadInitialization@ 0045c0f0     libucrt:winapi_thunks.obj
 0002:0000c118       __sys_errlist              0045c118     libucrt:syserr.obj
 0002:0000c1c8       ??_C@_08INEPGKHH@No?5error?$AA@ 0045c1c8     libucrt:syserr.obj
 0002:0000c1d4       ??_C@_0BI@BJFCGOHL@Operation?5not?5permitted?$AA@ 0045c1d4     libucrt:syserr.obj
 0002:0000c1ec       ??_C@_0BK@FMDHKPNF@No?5such?5file?5or?5directory?$AA@ 0045c1ec     libucrt:syserr.obj
 0002:0000c208       ??_C@_0BA@FKIAIBGA@No?5such?5process?$AA@ 0045c208     libucrt:syserr.obj
 0002:0000c218       ??_C@_0BK@FJBOAFDK@Interrupted?5function?5call?$AA@ 0045c218     libucrt:syserr.obj
 0002:0000c234       ??_C@_0BD@KKNFOBBD@Input?1output?5error?$AA@ 0045c234     libucrt:syserr.obj
 0002:0000c248       ??_C@_0BK@DPKMCKJ@No?5such?5device?5or?5address?$AA@ 0045c248     libucrt:syserr.obj
 0002:0000c264       ??_C@_0BC@MFFGCDFL@Arg?5list?5too?5long?$AA@ 0045c264     libucrt:syserr.obj
 0002:0000c278       ??_C@_0BC@HKPNECK@Exec?5format?5error?$AA@ 0045c278     libucrt:syserr.obj
 0002:0000c28c       ??_C@_0BE@NFGDDCEF@Bad?5file?5descriptor?$AA@ 0045c28c     libucrt:syserr.obj
 0002:0000c2a0       ??_C@_0BD@LOHELEP@No?5child?5processes?$AA@ 0045c2a0     libucrt:syserr.obj
 0002:0000c2b4       ??_C@_0CB@EPFKGNAK@Resource?5temporarily?5unavailable@ 0045c2b4     libucrt:syserr.obj
 0002:0000c2d8       ??_C@_0BB@IMDKMPFB@Not?5enough?5space?$AA@ 0045c2d8     libucrt:syserr.obj
 0002:0000c2ec       ??_C@_0BC@HFNFNKAI@Permission?5denied?$AA@ 0045c2ec     libucrt:syserr.obj
 0002:0000c300       ??_C@_0M@LOEHLCJD@Bad?5address?$AA@ 0045c300     libucrt:syserr.obj
 0002:0000c30c       ??_C@_0O@NIPGCINC@Unknown?5error?$AA@ 0045c30c     libucrt:syserr.obj
 0002:0000c31c       ??_C@_0BA@BIBLIOEK@Resource?5device?$AA@ 0045c31c     libucrt:syserr.obj
 0002:0000c32c       ??_C@_0M@NAAJNNGH@File?5exists?$AA@ 0045c32c     libucrt:syserr.obj
 0002:0000c338       ??_C@_0O@OAMDNOCP@Improper?5link?$AA@ 0045c338     libucrt:syserr.obj
 0002:0000c348       ??_C@_0P@NLEIANHE@No?5such?5device?$AA@ 0045c348     libucrt:syserr.obj
 0002:0000c358       ??_C@_0BA@CJBACOOL@Not?5a?5directory?$AA@ 0045c358     libucrt:syserr.obj
 0002:0000c368       ??_C@_0P@NDHGCGKE@Is?5a?5directory?$AA@ 0045c368     libucrt:syserr.obj
 0002:0000c378       ??_C@_0BB@HMGGCEBG@Invalid?5argument?$AA@ 0045c378     libucrt:syserr.obj
 0002:0000c38c       ??_C@_0BO@IIFBODJE@Too?5many?5open?5files?5in?5system?$AA@ 0045c38c     libucrt:syserr.obj
 0002:0000c3ac       ??_C@_0BE@INBJMKGG@Too?5many?5open?5files?$AA@ 0045c3ac     libucrt:syserr.obj
 0002:0000c3c0       ??_C@_0CE@ONOKNLPF@Inappropriate?5I?1O?5control?5operat@ 0045c3c0     libucrt:syserr.obj
 0002:0000c3e4       ??_C@_0P@LFMMIPAE@File?5too?5large?$AA@ 0045c3e4     libucrt:syserr.obj
 0002:0000c3f4       ??_C@_0BI@FEALHKLD@No?5space?5left?5on?5device?$AA@ 0045c3f4     libucrt:syserr.obj
 0002:0000c40c       ??_C@_0N@FEHLOILP@Invalid?5seek?$AA@ 0045c40c     libucrt:syserr.obj
 0002:0000c41c       ??_C@_0BG@DDBFNKBH@Read?9only?5file?5system?$AA@ 0045c41c     libucrt:syserr.obj
 0002:0000c434       ??_C@_0P@PKCJJLLM@Too?5many?5links?$AA@ 0045c434     libucrt:syserr.obj
 0002:0000c444       ??_C@_0M@LHEPIIOM@Broken?5pipe?$AA@ 0045c444     libucrt:syserr.obj
 0002:0000c450       ??_C@_0N@MMJPGLJK@Domain?5error?$AA@ 0045c450     libucrt:syserr.obj
 0002:0000c460       ??_C@_0BB@FCBJFCAJ@Result?5too?5large?$AA@ 0045c460     libucrt:syserr.obj
 0002:0000c474       ??_C@_0BK@JAEBMJJM@Resource?5deadlock?5avoided?$AA@ 0045c474     libucrt:syserr.obj
 0002:0000c490       ??_C@_0BC@BEDIHIDK@Filename?5too?5long?$AA@ 0045c490     libucrt:syserr.obj
 0002:0000c4a4       ??_C@_0BD@CLHBCGPB@No?5locks?5available?$AA@ 0045c4a4     libucrt:syserr.obj
 0002:0000c4b8       ??_C@_0BJ@IHEHINLI@Function?5not?5implemented?$AA@ 0045c4b8     libucrt:syserr.obj
 0002:0000c4d4       ??_C@_0BE@ICMCHPHH@Directory?5not?5empty?$AA@ 0045c4d4     libucrt:syserr.obj
 0002:0000c4e8       ??_C@_0BG@KLEAJEFJ@Illegal?5byte?5sequence?$AA@ 0045c4e8     libucrt:syserr.obj
 0002:0000c500       __sys_nerr                 0045c500     libucrt:syserr.obj
 0002:0000c508       ___newctype                0045c508     libucrt:ctype.obj
 0002:0000c808       ___newclmap                0045c808     libucrt:ctype.obj
 0002:0000c988       ___newcumap                0045c988     libucrt:ctype.obj
 0002:0000cb08       ??_C@_03KOEHGMDN@Sun?$AA@  0045cb08     libucrt:nlsdata.obj
 0002:0000cb0c       ??_C@_03PDAGKDH@Mon?$AA@   0045cb0c     libucrt:nlsdata.obj
 0002:0000cb10       ??_C@_03NAGEINEP@Tue?$AA@  0045cb10     libucrt:nlsdata.obj
 0002:0000cb14       ??_C@_03MHOMLAJA@Wed?$AA@  0045cb14     libucrt:nlsdata.obj
 0002:0000cb18       ??_C@_03IOFIKPDN@Thu?$AA@  0045cb18     libucrt:nlsdata.obj
 0002:0000cb1c       ??_C@_03IDIOELNC@Fri?$AA@  0045cb1c     libucrt:nlsdata.obj
 0002:0000cb20       ??_C@_03FEFJNEK@Sat?$AA@   0045cb20     libucrt:nlsdata.obj
 0002:0000cb24       ??_C@_06OOPIFAJ@Sunday?$AA@ 0045cb24     libucrt:nlsdata.obj
 0002:0000cb2c       ??_C@_06JLEDEDGH@Monday?$AA@ 0045cb2c     libucrt:nlsdata.obj
 0002:0000cb34       ??_C@_07BAAGCFCM@Tuesday?$AA@ 0045cb34     libucrt:nlsdata.obj
 0002:0000cb3c       ??_C@_09DLIGFAKA@Wednesday?$AA@ 0045cb3c     libucrt:nlsdata.obj
 0002:0000cb48       ??_C@_08HACCIKIA@Thursday?$AA@ 0045cb48     libucrt:nlsdata.obj
 0002:0000cb54       ??_C@_06JECMNKMI@Friday?$AA@ 0045cb54     libucrt:nlsdata.obj
 0002:0000cb5c       ??_C@_08INBOOONO@Saturday?$AA@ 0045cb5c     libucrt:nlsdata.obj
 0002:0000cb68       ??_C@_03JIHJHPIE@Jan?$AA@  0045cb68     libucrt:nlsdata.obj
 0002:0000cb6c       ??_C@_03HJBDCHOM@Feb?$AA@  0045cb6c     libucrt:nlsdata.obj
 0002:0000cb70       ??_C@_03ODNJBKGA@Mar?$AA@  0045cb70     libucrt:nlsdata.obj
 0002:0000cb74       ??_C@_03LEOLGMJP@Apr?$AA@  0045cb74     libucrt:nlsdata.obj
 0002:0000cb78       ??_C@_03CNMDKL@May?$AA@    0045cb78     libucrt:nlsdata.obj
 0002:0000cb7c       ??_C@_03IDFGHECI@Jun?$AA@  0045cb7c     libucrt:nlsdata.obj
 0002:0000cb80       ??_C@_03LBGABGKK@Jul?$AA@  0045cb80     libucrt:nlsdata.obj
 0002:0000cb84       ??_C@_03IFJFEIGA@Aug?$AA@  0045cb84     libucrt:nlsdata.obj
 0002:0000cb88       ??_C@_03GGCAPAJC@Sep?$AA@  0045cb88     libucrt:nlsdata.obj
 0002:0000cb8c       ??_C@_03BMAOKBAD@Oct?$AA@  0045cb8c     libucrt:nlsdata.obj
 0002:0000cb90       ??_C@_03JPJOFNIA@Nov?$AA@  0045cb90     libucrt:nlsdata.obj
 0002:0000cb94       ??_C@_03MKABNOCG@Dec?$AA@  0045cb94     libucrt:nlsdata.obj
 0002:0000cb98       ??_C@_07CGJPFGJA@January?$AA@ 0045cb98     libucrt:nlsdata.obj
 0002:0000cba0       ??_C@_08GNJGEPFN@February?$AA@ 0045cba0     libucrt:nlsdata.obj
 0002:0000cbac       ??_C@_05HPCKOFNC@March?$AA@ 0045cbac     libucrt:nlsdata.obj
 0002:0000cbb4       ??_C@_05DMJDNLEJ@April?$AA@ 0045cbb4     libucrt:nlsdata.obj
 0002:0000cbbc       ??_C@_04CNLMGBGM@June?$AA@ 0045cbbc     libucrt:nlsdata.obj
 0002:0000cbc4       ??_C@_04MIEPOIFP@July?$AA@ 0045cbc4     libucrt:nlsdata.obj
 0002:0000cbcc       ??_C@_06LBBHFDDG@August?$AA@ 0045cbcc     libucrt:nlsdata.obj
 0002:0000cbd4       ??_C@_09BHHEALKD@September?$AA@ 0045cbd4     libucrt:nlsdata.obj
 0002:0000cbe0       ??_C@_07JJNFCEND@October?$AA@ 0045cbe0     libucrt:nlsdata.obj
 0002:0000cbe8       ??_C@_08HCHEGEOA@November?$AA@ 0045cbe8     libucrt:nlsdata.obj
 0002:0000cbf4       ??_C@_08EDHMEBNP@December?$AA@ 0045cbf4     libucrt:nlsdata.obj
 0002:0000cc00       ??_C@_02DEDBPAFC@AM?$AA@   0045cc00     libucrt:nlsdata.obj
 0002:0000cc04       ??_C@_02CJNFDJBF@PM?$AA@   0045cc04     libucrt:nlsdata.obj
 0002:0000cc08       ??_C@_08BPBNCDIB@MM?1dd?1yy?$AA@ 0045cc08     libucrt:nlsdata.obj
 0002:0000cc14       ??_C@_0BE@CKGJFCPC@dddd?0?5MMMM?5dd?0?5yyyy?$AA@ 0045cc14     libucrt:nlsdata.obj
 0002:0000cc28       ??_C@_08JCCMCCIL@HH?3mm?3ss?$AA@ 0045cc28     libucrt:nlsdata.obj
 0002:0000cc34       ??_C@_17MBGCMIPB@?$AAS?$AAu?$AAn?$AA?$AA@ 0045cc34     libucrt:nlsdata.obj
 0002:0000cc3c       ??_C@_17KBOMKBF@?$AAM?$AAo?$AAn?$AA?$AA@ 0045cc3c     libucrt:nlsdata.obj
 0002:0000cc44       ??_C@_17BMKGEGOJ@?$AAT?$AAu?$AAe?$AA?$AA@ 0045cc44     libucrt:nlsdata.obj
 0002:0000cc4c       ??_C@_17CJEDCEPE@?$AAW?$AAe?$AAd?$AA?$AA@ 0045cc4c     libucrt:nlsdata.obj
 0002:0000cc54       ??_C@_17PDPHAADD@?$AAT?$AAh?$AAu?$AA?$AA@ 0045cc54     libucrt:nlsdata.obj
 0002:0000cc5c       ??_C@_17HFOLPPLP@?$AAF?$AAr?$AAi?$AA?$AA@ 0045cc5c     libucrt:nlsdata.obj
 0002:0000cc64       ??_C@_17GGIBDPIH@?$AAS?$AAa?$AAt?$AA?$AA@ 0045cc64     libucrt:nlsdata.obj
 0002:0000cc6c       ??_C@_1O@IHNHDHPB@?$AAS?$AAu?$AAn?$AAd?$AAa?$AAy?$AA?$AA@ 0045cc6c     libucrt:nlsdata.obj
 0002:0000cc7c       ??_C@_1O@MMNBFLIA@?$AAM?$AAo?$AAn?$AAd?$AAa?$AAy?$AA?$AA@ 0045cc7c     libucrt:nlsdata.obj
 0002:0000cc8c       ??_C@_1BA@ENFBFFEK@?$AAT?$AAu?$AAe?$AAs?$AAd?$AAa?$AAy?$AA?$AA@ 0045cc8c     libucrt:nlsdata.obj
 0002:0000cc9c       ??_C@_1BE@EBOGMDOH@?$AAW?$AAe?$AAd?$AAn?$AAe?$AAs?$AAd?$AAa?$AAy?$AA?$AA@ 0045cc9c     libucrt:nlsdata.obj
 0002:0000ccb0       ??_C@_1BC@HHMNLIHE@?$AAT?$AAh?$AAu?$AAr?$AAs?$AAd?$AAa?$AAy?$AA?$AA@ 0045ccb0     libucrt:nlsdata.obj
 0002:0000ccc4       ??_C@_1O@PDICJHAG@?$AAF?$AAr?$AAi?$AAd?$AAa?$AAy?$AA?$AA@ 0045ccc4     libucrt:nlsdata.obj
 0002:0000ccd4       ??_C@_1BC@ENMNNPAJ@?$AAS?$AAa?$AAt?$AAu?$AAr?$AAd?$AAa?$AAy?$AA?$AA@ 0045ccd4     libucrt:nlsdata.obj
 0002:0000cce8       ??_C@_17DKNBKCHM@?$AAJ?$AAa?$AAn?$AA?$AA@ 0045cce8     libucrt:nlsdata.obj
 0002:0000ccf0       ??_C@_17LMDJEKJN@?$AAF?$AAe?$AAb?$AA?$AA@ 0045ccf0     libucrt:nlsdata.obj
 0002:0000ccf8       ??_C@_17CKNLEDEC@?$AAM?$AAa?$AAr?$AA?$AA@ 0045ccf8     libucrt:nlsdata.obj
 0002:0000cd00       ??_C@_17LFPOIHDD@?$AAA?$AAp?$AAr?$AA?$AA@ 0045cd00     libucrt:nlsdata.obj
 0002:0000cd08       ??_C@_17PNNKMEED@?$AAM?$AAa?$AAy?$AA?$AA@ 0045cd08     libucrt:nlsdata.obj
 0002:0000cd10       ??_C@_17KCJGOCPB@?$AAJ?$AAu?$AAn?$AA?$AA@ 0045cd10     libucrt:nlsdata.obj
 0002:0000cd18       ??_C@_17IJPCKHK@?$AAJ?$AAu?$AAl?$AA?$AA@ 0045cd18     libucrt:nlsdata.obj
 0002:0000cd20       ??_C@_17ICPELBCN@?$AAA?$AAu?$AAg?$AA?$AA@ 0045cd20     libucrt:nlsdata.obj
 0002:0000cd28       ??_C@_17HCHCOKMG@?$AAS?$AAe?$AAp?$AA?$AA@ 0045cd28     libucrt:nlsdata.obj
 0002:0000cd30       ??_C@_17FNLKOI@?$AAO?$AAc?$AAt?$AA?$AA@ 0045cd30     libucrt:nlsdata.obj
 0002:0000cd38       ??_C@_17BBDMLCIG@?$AAN?$AAo?$AAv?$AA?$AA@ 0045cd38     libucrt:nlsdata.obj
 0002:0000cd40       ??_C@_17EGKACKIF@?$AAD?$AAe?$AAc?$AA?$AA@ 0045cd40     libucrt:nlsdata.obj
 0002:0000cd48       ??_C@_1BA@EFMEIEBA@?$AAJ?$AAa?$AAn?$AAu?$AAa?$AAr?$AAy?$AA?$AA@ 0045cd48     libucrt:nlsdata.obj
 0002:0000cd58       ??_C@_1BC@JGDDFFAM@?$AAF?$AAe?$AAb?$AAr?$AAu?$AAa?$AAr?$AAy?$AA?$AA@ 0045cd58     libucrt:nlsdata.obj
 0002:0000cd6c       ??_C@_1M@IKEENEDF@?$AAM?$AAa?$AAr?$AAc?$AAh?$AA?$AA@ 0045cd6c     libucrt:nlsdata.obj
 0002:0000cd78       ??_C@_1M@GJNLMHFD@?$AAA?$AAp?$AAr?$AAi?$AAl?$AA?$AA@ 0045cd78     libucrt:nlsdata.obj
 0002:0000cd84       ??_C@_19EPFLPGAP@?$AAJ?$AAu?$AAn?$AAe?$AA?$AA@ 0045cd84     libucrt:nlsdata.obj
 0002:0000cd90       ??_C@_19BIFMLPCD@?$AAJ?$AAu?$AAl?$AAy?$AA?$AA@ 0045cd90     libucrt:nlsdata.obj
 0002:0000cd9c       ??_C@_1O@PAHLKOAC@?$AAA?$AAu?$AAg?$AAu?$AAs?$AAt?$AA?$AA@ 0045cd9c     libucrt:nlsdata.obj
 0002:0000cdac       ??_C@_1BE@DKAAMBJL@?$AAS?$AAe?$AAp?$AAt?$AAe?$AAm?$AAb?$AAe?$AAr?$AA?$AA@ 0045cdac     libucrt:nlsdata.obj
 0002:0000cdc0       ??_C@_1BA@EPANDLNG@?$AAO?$AAc?$AAt?$AAo?$AAb?$AAe?$AAr?$AA?$AA@ 0045cdc0     libucrt:nlsdata.obj
 0002:0000cdd0       ??_C@_1BC@BGLIFPF@?$AAN?$AAo?$AAv?$AAe?$AAm?$AAb?$AAe?$AAr?$AA?$AA@ 0045cdd0     libucrt:nlsdata.obj
 0002:0000cde4       ??_C@_1BC@FEMKIFH@?$AAD?$AAe?$AAc?$AAe?$AAm?$AAb?$AAe?$AAr?$AA?$AA@ 0045cde4     libucrt:nlsdata.obj
 0002:0000cdf8       ??_C@_15ODEHAHHF@?$AAA?$AAM?$AA?$AA@ 0045cdf8     libucrt:nlsdata.obj
 0002:0000ce00       ??_C@_15CLMNNGEL@?$AAP?$AAM?$AA?$AA@ 0045ce00     libucrt:nlsdata.obj
 0002:0000ce08       ??_C@_1BC@IEBCMHCM@?$AAM?$AAM?$AA?1?$AAd?$AAd?$AA?1?$AAy?$AAy?$AA?$AA@ 0045ce08     libucrt:nlsdata.obj
 0002:0000ce1c       ??_C@_1CI@KNAKOEBC@?$AAd?$AAd?$AAd?$AAd?$AA?0?$AA?5?$AAM?$AAM?$AAM?$AAM?$AA?5?$AAd?$AAd?$AA?0?$AA?5?$AAy?$AAy?$AAy?$AAy?$AA?$AA@ 0045ce1c     libucrt:nlsdata.obj
 0002:0000ce44       ??_C@_1BC@GDGBMEMK@?$AAH?$AAH?$AA?3?$AAm?$AAm?$AA?3?$AAs?$AAs?$AA?$AA@ 0045ce44     libucrt:nlsdata.obj
 0002:0000ce58       ??_C@_1M@BMHNFIME@?$AAe?$AAn?$AA?9?$AAU?$AAS?$AA?$AA@ 0045ce58     libucrt:nlsdata.obj
 0002:0000ce68       ___lc_time_c               0045ce68     libucrt:nlsdata.obj
 0002:0000cfcc       ??_C@_03OEIAHPBN@INF?$AA@  0045cfcc     libucrt:cvt.obj
 0002:0000cfd0       ??_C@_03OJHLLCGB@inf?$AA@  0045cfd0     libucrt:cvt.obj
 0002:0000cfd4       ??_C@_03LKNCIKJB@NAN?$AA@  0045cfd4     libucrt:cvt.obj
 0002:0000cfd8       ??_C@_03LHCJEHON@nan?$AA@  0045cfd8     libucrt:cvt.obj
 0002:0000cfdc       ??_C@_09OFJJIMPC@NAN?$CISNAN?$CJ?$AA@ 0045cfdc     libucrt:cvt.obj
 0002:0000cfe8       ??_C@_09IPFBKMDL@nan?$CIsnan?$CJ?$AA@ 0045cfe8     libucrt:cvt.obj
 0002:0000cff4       ??_C@_08IKHNHAJ@NAN?$CIIND?$CJ?$AA@ 0045cff4     libucrt:cvt.obj
 0002:0000d000       ??_C@_08OFCDMILK@nan?$CIind?$CJ?$AA@ 0045d000     libucrt:cvt.obj
 0002:0000d00c       ??_C@_05KLBDPFGC@e?$CL000?$AA@ 0045d00c     libucrt:cvt.obj
 0002:0000d024       ??_C@_1M@HPNHIDJI@?$AAj?$AAa?$AA?9?$AAJ?$AAP?$AA?$AA@ 0045d024     libucrt:mbctype.obj
 0002:0000d030       ??_C@_1M@BIBDDEMK@?$AAz?$AAh?$AA?9?$AAC?$AAN?$AA?$AA@ 0045d030     libucrt:mbctype.obj
 0002:0000d03c       ??_C@_1M@JLOOOEGK@?$AAk?$AAo?$AA?9?$AAK?$AAR?$AA?$AA@ 0045d03c     libucrt:mbctype.obj
 0002:0000d048       ??_C@_1M@CLNBBOPM@?$AAz?$AAh?$AA?9?$AAT?$AAW?$AA?$AA@ 0045d048     libucrt:mbctype.obj
 0002:0000d054       ??_C@_15PJPFLCCM@?$AAu?$AAk?$AA?$AA@ 0045d054     libucrt:get_qualified_locale.obj
 0002:0000d05c       __days                     0045d05c     libucrt:days.obj
 0002:0000d090       __lpdays                   0045d090     libucrt:days.obj
 0002:0000d7e8       ??_C@_15EMKDOKLE@?$AAa?$AAr?$AA?$AA@ 0045d7e8     libucrt:lcidtoname_downlevel.obj
 0002:0000d7f0       ??_C@_15KNPADPLH@?$AAb?$AAg?$AA?$AA@ 0045d7f0     libucrt:lcidtoname_downlevel.obj
 0002:0000d7f8       ??_C@_15EDMHLDMO@?$AAc?$AAa?$AA?$AA@ 0045d7f8     libucrt:lcidtoname_downlevel.obj
 0002:0000d800       ??_C@_1O@BPEAJADD@?$AAz?$AAh?$AA?9?$AAC?$AAH?$AAS?$AA?$AA@ 0045d800     libucrt:lcidtoname_downlevel.obj
 0002:0000d810       ??_C@_15LJNHCMNK@?$AAc?$AAs?$AA?$AA@ 0045d810     libucrt:lcidtoname_downlevel.obj
 0002:0000d818       ??_C@_15FOMCIDHG@?$AAd?$AAa?$AA?$AA@ 0045d818     libucrt:lcidtoname_downlevel.obj
 0002:0000d820       ??_C@_15NBKABECB@?$AAd?$AAe?$AA?$AA@ 0045d820     libucrt:lcidtoname_downlevel.obj
 0002:0000d828       ??_C@_15GHPEIIAO@?$AAe?$AAl?$AA?$AA@ 0045d828     libucrt:lcidtoname_downlevel.obj
 0002:0000d830       ??_C@_15MNPNEAIF@?$AAe?$AAn?$AA?$AA@ 0045d830     libucrt:lcidtoname_downlevel.obj
 0002:0000d838       ??_C@_15GPIOMPMH@?$AAe?$AAs?$AA?$AA@ 0045d838     libucrt:lcidtoname_downlevel.obj
 0002:0000d840       ??_C@_15NGLOAKJC@?$AAf?$AAi?$AA?$AA@ 0045d840     libucrt:lcidtoname_downlevel.obj
 0002:0000d848       ??_C@_15FBKGNKAM@?$AAf?$AAr?$AA?$AA@ 0045d848     libucrt:lcidtoname_downlevel.obj
 0002:0000d850       ??_C@_15KGGCNEFK@?$AAh?$AAe?$AA?$AA@ 0045d850     libucrt:lcidtoname_downlevel.obj
 0002:0000d858       ??_C@_15PGHLIDMF@?$AAh?$AAu?$AA?$AA@ 0045d858     libucrt:lcidtoname_downlevel.obj
 0002:0000d860       ??_C@_15BIEMAPLM@?$AAi?$AAs?$AA?$AA@ 0045d860     libucrt:lcidtoname_downlevel.obj
 0002:0000d868       ??_C@_15IFJLDHAF@?$AAi?$AAt?$AA?$AA@ 0045d868     libucrt:lcidtoname_downlevel.obj
 0002:0000d870       ??_C@_15GEMIOCAG@?$AAj?$AAa?$AA?$AA@ 0045d870     libucrt:lcidtoname_downlevel.obj
 0002:0000d878       ??_C@_15EPELEGJA@?$AAk?$AAo?$AA?$AA@ 0045d878     libucrt:lcidtoname_downlevel.obj
 0002:0000d880       ??_C@_15NDDHIMN@?$AAn?$AAl?$AA?$AA@ 0045d880     libucrt:lcidtoname_downlevel.obj
 0002:0000d888       ??_C@_15BPIGNHCD@?$AAn?$AAo?$AA?$AA@ 0045d888     libucrt:lcidtoname_downlevel.obj
 0002:0000d890       ??_C@_15DEOPBLCG@?$AAp?$AAl?$AA?$AA@ 0045d890     libucrt:lcidtoname_downlevel.obj
 0002:0000d898       ??_C@_15KBECGEFG@?$AAp?$AAt?$AA?$AA@ 0045d898     libucrt:lcidtoname_downlevel.obj
 0002:0000d8a0       ??_C@_15GLJCBFMD@?$AAr?$AAo?$AA?$AA@ 0045d8a0     libucrt:lcidtoname_downlevel.obj
 0002:0000d8a8       ??_C@_15FEDGKCDI@?$AAr?$AAu?$AA?$AA@ 0045d8a8     libucrt:lcidtoname_downlevel.obj
 0002:0000d8b0       ??_C@_15GLKMLLHM@?$AAh?$AAr?$AA?$AA@ 0045d8b0     libucrt:lcidtoname_downlevel.obj
 0002:0000d8b8       ??_C@_15CPKMFBDB@?$AAs?$AAk?$AA?$AA@ 0045d8b8     libucrt:lcidtoname_downlevel.obj
 0002:0000d8c0       ??_C@_15BAAIOGMK@?$AAs?$AAq?$AA?$AA@ 0045d8c0     libucrt:lcidtoname_downlevel.obj
 0002:0000d8c8       ??_C@_15INNPNOHD@?$AAs?$AAv?$AA?$AA@ 0045d8c8     libucrt:lcidtoname_downlevel.obj
 0002:0000d8d0       ??_C@_15CABMMOGH@?$AAt?$AAh?$AA?$AA@ 0045d8d0     libucrt:lcidtoname_downlevel.obj
 0002:0000d8d8       ??_C@_15BPLIHJJM@?$AAt?$AAr?$AA?$AA@ 0045d8d8     libucrt:lcidtoname_downlevel.obj
 0002:0000d8e0       ??_C@_15NEOEKKDJ@?$AAu?$AAr?$AA?$AA@ 0045d8e0     libucrt:lcidtoname_downlevel.obj
 0002:0000d8e8       ??_C@_15NFICGAJK@?$AAi?$AAd?$AA?$AA@ 0045d8e8     libucrt:lcidtoname_downlevel.obj
 0002:0000d8f0       ??_C@_15HPJPHDM@?$AAb?$AAe?$AA?$AA@ 0045d8f0     libucrt:lcidtoname_downlevel.obj
 0002:0000d8f8       ??_C@_15LCHLGJII@?$AAs?$AAl?$AA?$AA@ 0045d8f8     libucrt:lcidtoname_downlevel.obj
 0002:0000d900       ??_C@_15PCFJPHHO@?$AAe?$AAt?$AA?$AA@ 0045d900     libucrt:lcidtoname_downlevel.obj
 0002:0000d908       ??_C@_15HPFPGODN@?$AAl?$AAv?$AA?$AA@ 0045d908     libucrt:lcidtoname_downlevel.obj
 0002:0000d910       ??_C@_15NFFGKGLG@?$AAl?$AAt?$AA?$AA@ 0045d910     libucrt:lcidtoname_downlevel.obj
 0002:0000d918       ??_C@_15BDAKCCHN@?$AAf?$AAa?$AA?$AA@ 0045d918     libucrt:lcidtoname_downlevel.obj
 0002:0000d920       ??_C@_15NFGIAIAJ@?$AAv?$AAi?$AA?$AA@ 0045d920     libucrt:lcidtoname_downlevel.obj
 0002:0000d928       ??_C@_15LMKNDMHN@?$AAh?$AAy?$AA?$AA@ 0045d928     libucrt:lcidtoname_downlevel.obj
 0002:0000d930       ??_C@_15IJBHMCFL@?$AAa?$AAz?$AA?$AA@ 0045d930     libucrt:lcidtoname_downlevel.obj
 0002:0000d938       ??_C@_15EKOFJABL@?$AAe?$AAu?$AA?$AA@ 0045d938     libucrt:lcidtoname_downlevel.obj
 0002:0000d940       ??_C@_15BGHADCNK@?$AAm?$AAk?$AA?$AA@ 0045d940     libucrt:lcidtoname_downlevel.obj
 0002:0000d948       ??_C@_15JDNICKHM@?$AAa?$AAf?$AA?$AA@ 0045d948     libucrt:lcidtoname_downlevel.obj
 0002:0000d950       ??_C@_15KPJEDBKD@?$AAk?$AAa?$AA?$AA@ 0045d950     libucrt:lcidtoname_downlevel.obj
 0002:0000d958       ??_C@_15PDNFFFEO@?$AAf?$AAo?$AA?$AA@ 0045d958     libucrt:lcidtoname_downlevel.obj
 0002:0000d960       ??_C@_15OMLEGLOC@?$AAh?$AAi?$AA?$AA@ 0045d960     libucrt:lcidtoname_downlevel.obj
 0002:0000d968       ??_C@_15IDNNENKK@?$AAm?$AAs?$AA?$AA@ 0045d968     libucrt:lcidtoname_downlevel.obj
 0002:0000d970       ??_C@_15MACJNBMH@?$AAk?$AAk?$AA?$AA@ 0045d970     libucrt:lcidtoname_downlevel.obj
 0002:0000d978       ??_C@_15DKDJEOND@?$AAk?$AAy?$AA?$AA@ 0045d978     libucrt:lcidtoname_downlevel.obj
 0002:0000d980       ??_C@_15DFGDLJBG@?$AAs?$AAw?$AA?$AA@ 0045d980     libucrt:lcidtoname_downlevel.obj
 0002:0000d988       ??_C@_15BBFAICNG@?$AAu?$AAz?$AA?$AA@ 0045d988     libucrt:lcidtoname_downlevel.obj
 0002:0000d990       ??_C@_15DKNDCGEA@?$AAt?$AAt?$AA?$AA@ 0045d990     libucrt:lcidtoname_downlevel.obj
 0002:0000d998       ??_C@_15MGIFMDPL@?$AAp?$AAa?$AA?$AA@ 0045d998     libucrt:lcidtoname_downlevel.obj
 0002:0000d9a0       ??_C@_15HCNDBBA@?$AAg?$AAu?$AA?$AA@ 0045d9a0     libucrt:lcidtoname_downlevel.obj
 0002:0000d9a8       ??_C@_15FNBEIBON@?$AAt?$AAa?$AA?$AA@ 0045d9a8     libucrt:lcidtoname_downlevel.obj
 0002:0000d9b0       ??_C@_15NCHGBGLK@?$AAt?$AAe?$AA?$AA@ 0045d9b0     libucrt:lcidtoname_downlevel.obj
 0002:0000d9b8       ??_C@_15PHPHCBPF@?$AAk?$AAn?$AA?$AA@ 0045d9b8     libucrt:lcidtoname_downlevel.obj
 0002:0000d9c0       ??_C@_15DLGBCKMP@?$AAm?$AAr?$AA?$AA@ 0045d9c0     libucrt:lcidtoname_downlevel.obj
 0002:0000d9c8       ??_C@_15EABBLBFF@?$AAs?$AAa?$AA?$AA@ 0045d9c8     libucrt:lcidtoname_downlevel.obj
 0002:0000d9d0       ??_C@_15CBKOMCOI@?$AAm?$AAn?$AA?$AA@ 0045d9d0     libucrt:lcidtoname_downlevel.obj
 0002:0000d9d8       ??_C@_15CKDMCJAF@?$AAg?$AAl?$AA?$AA@ 0045d9d8     libucrt:lcidtoname_downlevel.obj
 0002:0000d9e0       ??_C@_17CNJFBPG@?$AAk?$AAo?$AAk?$AA?$AA@ 0045d9e0     libucrt:lcidtoname_downlevel.obj
 0002:0000d9e8       ??_C@_17FFBJICPL@?$AAs?$AAy?$AAr?$AA?$AA@ 0045d9e8     libucrt:lcidtoname_downlevel.obj
 0002:0000d9f0       ??_C@_17KPNDCPAF@?$AAd?$AAi?$AAv?$AA?$AA@ 0045d9f0     libucrt:lcidtoname_downlevel.obj
 0002:0000d9f8       ??_C@_11LOCGONAA@?$AA?$AA@ 0045d9f8     libucrt:lcidtoname_downlevel.obj
 0002:0000d9fc       ??_C@_1M@OKAHONE@?$AAa?$AAr?$AA?9?$AAS?$AAA?$AA?$AA@ 0045d9fc     libucrt:lcidtoname_downlevel.obj
 0002:0000da08       ??_C@_1M@FFFIGIGK@?$AAb?$AAg?$AA?9?$AAB?$AAG?$AA?$AA@ 0045da08     libucrt:lcidtoname_downlevel.obj
 0002:0000da14       ??_C@_1M@BJNKEDC@?$AAc?$AAa?$AA?9?$AAE?$AAS?$AA?$AA@ 0045da14     libucrt:lcidtoname_downlevel.obj
 0002:0000da20       ??_C@_1M@IJJHFJHA@?$AAc?$AAs?$AA?9?$AAC?$AAZ?$AA?$AA@ 0045da20     libucrt:lcidtoname_downlevel.obj
 0002:0000da2c       ??_C@_1M@CLPEOBGI@?$AAd?$AAa?$AA?9?$AAD?$AAK?$AA?$AA@ 0045da2c     libucrt:lcidtoname_downlevel.obj
 0002:0000da38       ??_C@_1M@MCMADGCB@?$AAd?$AAe?$AA?9?$AAD?$AAE?$AA?$AA@ 0045da38     libucrt:lcidtoname_downlevel.obj
 0002:0000da44       ??_C@_1M@OOCKEMAM@?$AAe?$AAl?$AA?9?$AAG?$AAR?$AA?$AA@ 0045da44     libucrt:lcidtoname_downlevel.obj
 0002:0000da50       ??_C@_1M@DDNJFGID@?$AAf?$AAi?$AA?9?$AAF?$AAI?$AA?$AA@ 0045da50     libucrt:lcidtoname_downlevel.obj
 0002:0000da5c       ??_C@_1M@GLIPPMAC@?$AAf?$AAr?$AA?9?$AAF?$AAR?$AA?$AA@ 0045da5c     libucrt:lcidtoname_downlevel.obj
 0002:0000da68       ??_C@_1M@GFMCHPE@?$AAh?$AAe?$AA?9?$AAI?$AAL?$AA?$AA@ 0045da68     libucrt:lcidtoname_downlevel.obj
 0002:0000da74       ??_C@_1M@MHLPGNKM@?$AAh?$AAu?$AA?9?$AAH?$AAU?$AA?$AA@ 0045da74     libucrt:lcidtoname_downlevel.obj
 0002:0000da80       ??_C@_1M@LPDDNNPN@?$AAi?$AAs?$AA?9?$AAI?$AAS?$AA?$AA@ 0045da80     libucrt:lcidtoname_downlevel.obj
 0002:0000da8c       ??_C@_1M@MADIPODN@?$AAi?$AAt?$AA?9?$AAI?$AAT?$AA?$AA@ 0045da8c     libucrt:lcidtoname_downlevel.obj
 0002:0000da98       ??_C@_1M@IHBJJGG@?$AAn?$AAl?$AA?9?$AAN?$AAL?$AA?$AA@ 0045da98     libucrt:lcidtoname_downlevel.obj
 0002:0000daa4       ??_C@_1M@EANAGDL@?$AAn?$AAb?$AA?9?$AAN?$AAO?$AA?$AA@ 0045daa4     libucrt:lcidtoname_downlevel.obj
 0002:0000dab0       ??_C@_1M@NEIEMEGP@?$AAp?$AAl?$AA?9?$AAP?$AAL?$AA?$AA@ 0045dab0     libucrt:lcidtoname_downlevel.obj
 0002:0000dabc       ??_C@_1M@BOCFIGEP@?$AAp?$AAt?$AA?9?$AAB?$AAR?$AA?$AA@ 0045dabc     libucrt:lcidtoname_downlevel.obj
 0002:0000dac8       ??_C@_1M@IMPFOPBG@?$AAr?$AAo?$AA?9?$AAR?$AAO?$AA?$AA@ 0045dac8     libucrt:lcidtoname_downlevel.obj
 0002:0000dad4       ??_C@_1M@IDNNEJMM@?$AAr?$AAu?$AA?9?$AAR?$AAU?$AA?$AA@ 0045dad4     libucrt:lcidtoname_downlevel.obj
 0002:0000dae0       ??_C@_1M@LILEEOGM@?$AAh?$AAr?$AA?9?$AAH?$AAR?$AA?$AA@ 0045dae0     libucrt:lcidtoname_downlevel.obj
 0002:0000daec       ??_C@_1M@FKIFEHPB@?$AAs?$AAk?$AA?9?$AAS?$AAK?$AA?$AA@ 0045daec     libucrt:lcidtoname_downlevel.obj
 0002:0000daf8       ??_C@_1M@LJMAMNPJ@?$AAs?$AAq?$AA?9?$AAA?$AAL?$AA?$AA@ 0045daf8     libucrt:lcidtoname_downlevel.obj
 0002:0000db04       ??_C@_1M@GIAKDKJK@?$AAs?$AAv?$AA?9?$AAS?$AAE?$AA?$AA@ 0045db04     libucrt:lcidtoname_downlevel.obj
 0002:0000db10       ??_C@_1M@MKJKIKCL@?$AAt?$AAh?$AA?9?$AAT?$AAH?$AA?$AA@ 0045db10     libucrt:lcidtoname_downlevel.obj
 0002:0000db1c       ??_C@_1M@MFLCCMPB@?$AAt?$AAr?$AA?9?$AAT?$AAR?$AA?$AA@ 0045db1c     libucrt:lcidtoname_downlevel.obj
 0002:0000db28       ??_C@_1M@OIJHDKJN@?$AAu?$AAr?$AA?9?$AAP?$AAK?$AA?$AA@ 0045db28     libucrt:lcidtoname_downlevel.obj
 0002:0000db34       ??_C@_1M@LHIPCIEK@?$AAi?$AAd?$AA?9?$AAI?$AAD?$AA?$AA@ 0045db34     libucrt:lcidtoname_downlevel.obj
 0002:0000db40       ??_C@_1M@MFMOBGI@?$AAu?$AAk?$AA?9?$AAU?$AAA?$AA?$AA@ 0045db40     libucrt:lcidtoname_downlevel.obj
 0002:0000db4c       ??_C@_1M@OBGLJIPL@?$AAb?$AAe?$AA?9?$AAB?$AAY?$AA?$AA@ 0045db4c     libucrt:lcidtoname_downlevel.obj
 0002:0000db58       ??_C@_1M@BCFAJEAD@?$AAs?$AAl?$AA?9?$AAS?$AAI?$AA?$AA@ 0045db58     libucrt:lcidtoname_downlevel.obj
 0002:0000db64       ??_C@_1M@FKFFEDDN@?$AAe?$AAt?$AA?9?$AAE?$AAE?$AA?$AA@ 0045db64     libucrt:lcidtoname_downlevel.obj
 0002:0000db70       ??_C@_1M@KGKKAACI@?$AAl?$AAv?$AA?9?$AAL?$AAV?$AA?$AA@ 0045db70     libucrt:lcidtoname_downlevel.obj
 0002:0000db7c       ??_C@_1M@IFGBIJO@?$AAl?$AAt?$AA?9?$AAL?$AAT?$AA?$AA@ 0045db7c     libucrt:lcidtoname_downlevel.obj
 0002:0000db88       ??_C@_1M@FGEAHEDM@?$AAf?$AAa?$AA?9?$AAI?$AAR?$AA?$AA@ 0045db88     libucrt:lcidtoname_downlevel.obj
 0002:0000db94       ??_C@_1M@KBMAIBFN@?$AAv?$AAi?$AA?9?$AAV?$AAN?$AA?$AA@ 0045db94     libucrt:lcidtoname_downlevel.obj
 0002:0000dba0       ??_C@_1M@GPCBKDJK@?$AAh?$AAy?$AA?9?$AAA?$AAM?$AA?$AA@ 0045dba0     libucrt:lcidtoname_downlevel.obj
 0002:0000dbac       ??_C@_1BG@BECMDDJB@?$AAa?$AAz?$AA?9?$AAA?$AAZ?$AA?9?$AAL?$AAa?$AAt?$AAn?$AA?$AA@ 0045dbac     libucrt:lcidtoname_downlevel.obj
 0002:0000dbc4       ??_C@_1M@MAOFCAEA@?$AAe?$AAu?$AA?9?$AAE?$AAS?$AA?$AA@ 0045dbc4     libucrt:lcidtoname_downlevel.obj
 0002:0000dbd0       ??_C@_1M@IGHABKPI@?$AAm?$AAk?$AA?9?$AAM?$AAK?$AA?$AA@ 0045dbd0     libucrt:lcidtoname_downlevel.obj
 0002:0000dbdc       ??_C@_1M@IAIGNEJG@?$AAt?$AAn?$AA?9?$AAZ?$AAA?$AA?$AA@ 0045dbdc     libucrt:lcidtoname_downlevel.obj
 0002:0000dbe8       ??_C@_1M@IIJCOJFA@?$AAx?$AAh?$AA?9?$AAZ?$AAA?$AA?$AA@ 0045dbe8     libucrt:lcidtoname_downlevel.obj
 0002:0000dbf4       ??_C@_1M@LGPJHNJH@?$AAz?$AAu?$AA?9?$AAZ?$AAA?$AA?$AA@ 0045dbf4     libucrt:lcidtoname_downlevel.obj
 0002:0000dc00       ??_C@_1M@HOKAOIO@?$AAa?$AAf?$AA?9?$AAZ?$AAA?$AA?$AA@ 0045dc00     libucrt:lcidtoname_downlevel.obj
 0002:0000dc0c       ??_C@_1M@DPCLHLIE@?$AAk?$AAa?$AA?9?$AAG?$AAE?$AA?$AA@ 0045dc0c     libucrt:lcidtoname_downlevel.obj
 0002:0000dc18       ??_C@_1M@BLKMHJBI@?$AAf?$AAo?$AA?9?$AAF?$AAO?$AA?$AA@ 0045dc18     libucrt:lcidtoname_downlevel.obj
 0002:0000dc24       ??_C@_1M@LGGJAPPB@?$AAh?$AAi?$AA?9?$AAI?$AAN?$AA?$AA@ 0045dc24     libucrt:lcidtoname_downlevel.obj
 0002:0000dc30       ??_C@_1M@FIKPIHFE@?$AAm?$AAt?$AA?9?$AAM?$AAT?$AA?$AA@ 0045dc30     libucrt:lcidtoname_downlevel.obj
 0002:0000dc3c       ??_C@_1M@HEGGPBFA@?$AAs?$AAe?$AA?9?$AAN?$AAO?$AA?$AA@ 0045dc3c     libucrt:lcidtoname_downlevel.obj
 0002:0000dc48       ??_C@_1M@EIBJEEPA@?$AAm?$AAs?$AA?9?$AAM?$AAY?$AA?$AA@ 0045dc48     libucrt:lcidtoname_downlevel.obj
 0002:0000dc54       ??_C@_1M@FHLBGMPP@?$AAk?$AAk?$AA?9?$AAK?$AAZ?$AA?$AA@ 0045dc54     libucrt:lcidtoname_downlevel.obj
 0002:0000dc60       ??_C@_1M@NGJJLCGI@?$AAk?$AAy?$AA?9?$AAK?$AAG?$AA?$AA@ 0045dc60     libucrt:lcidtoname_downlevel.obj
 0002:0000dc6c       ??_C@_1M@GIENNBFC@?$AAs?$AAw?$AA?9?$AAK?$AAE?$AA?$AA@ 0045dc6c     libucrt:lcidtoname_downlevel.obj
 0002:0000dc78       ??_C@_1BG@NDGMJIMJ@?$AAu?$AAz?$AA?9?$AAU?$AAZ?$AA?9?$AAL?$AAa?$AAt?$AAn?$AA?$AA@ 0045dc78     libucrt:lcidtoname_downlevel.obj
 0002:0000dc90       ??_C@_1M@IDCCIHBC@?$AAt?$AAt?$AA?9?$AAR?$AAU?$AA?$AA@ 0045dc90     libucrt:lcidtoname_downlevel.obj
 0002:0000dc9c       ??_C@_1M@LOICPMOJ@?$AAb?$AAn?$AA?9?$AAI?$AAN?$AA?$AA@ 0045dc9c     libucrt:lcidtoname_downlevel.obj
 0002:0000dca8       ??_C@_1M@KPKKNEAH@?$AAp?$AAa?$AA?9?$AAI?$AAN?$AA?$AA@ 0045dca8     libucrt:lcidtoname_downlevel.obj
 0002:0000dcb4       ??_C@_1M@PJGPPBOG@?$AAg?$AAu?$AA?9?$AAI?$AAN?$AA?$AA@ 0045dcb4     libucrt:lcidtoname_downlevel.obj
 0002:0000dcc0       ??_C@_1M@KMKMOPHI@?$AAt?$AAa?$AA?9?$AAI?$AAN?$AA?$AA@ 0045dcc0     libucrt:lcidtoname_downlevel.obj
 0002:0000dccc       ??_C@_1M@KFEHEPAC@?$AAt?$AAe?$AA?9?$AAI?$AAN?$AA?$AA@ 0045dccc     libucrt:lcidtoname_downlevel.obj
 0002:0000dcd8       ??_C@_1M@CDCLMGHI@?$AAk?$AAn?$AA?9?$AAI?$AAN?$AA?$AA@ 0045dcd8     libucrt:lcidtoname_downlevel.obj
 0002:0000dce4       ??_C@_1M@MIODLDKF@?$AAm?$AAl?$AA?9?$AAI?$AAN?$AA?$AA@ 0045dce4     libucrt:lcidtoname_downlevel.obj
 0002:0000dcf0       ??_C@_1M@PBIEACPO@?$AAm?$AAr?$AA?9?$AAI?$AAN?$AA?$AA@ 0045dcf0     libucrt:lcidtoname_downlevel.obj
 0002:0000dcfc       ??_C@_1M@NIDEAGPH@?$AAs?$AAa?$AA?9?$AAI?$AAN?$AA?$AA@ 0045dcfc     libucrt:lcidtoname_downlevel.obj
 0002:0000dd08       ??_C@_1M@FHIHCBIO@?$AAm?$AAn?$AA?9?$AAM?$AAN?$AA?$AA@ 0045dd08     libucrt:lcidtoname_downlevel.obj
 0002:0000dd14       ??_C@_1M@JAIJPENP@?$AAc?$AAy?$AA?9?$AAG?$AAB?$AA?$AA@ 0045dd14     libucrt:lcidtoname_downlevel.obj
 0002:0000dd20       ??_C@_1M@PHGFBEPN@?$AAg?$AAl?$AA?9?$AAE?$AAS?$AA?$AA@ 0045dd20     libucrt:lcidtoname_downlevel.obj
 0002:0000dd2c       ??_C@_1O@KPIPDNCP@?$AAk?$AAo?$AAk?$AA?9?$AAI?$AAN?$AA?$AA@ 0045dd2c     libucrt:lcidtoname_downlevel.obj
 0002:0000dd3c       ??_C@_1O@KNHJLDJA@?$AAs?$AAy?$AAr?$AA?9?$AAS?$AAY?$AA?$AA@ 0045dd3c     libucrt:lcidtoname_downlevel.obj
 0002:0000dd4c       ??_C@_1O@MKEKBLAH@?$AAd?$AAi?$AAv?$AA?9?$AAM?$AAV?$AA?$AA@ 0045dd4c     libucrt:lcidtoname_downlevel.obj
 0002:0000dd5c       ??_C@_1O@OHDCKDDF@?$AAq?$AAu?$AAz?$AA?9?$AAB?$AAO?$AA?$AA@ 0045dd5c     libucrt:lcidtoname_downlevel.obj
 0002:0000dd6c       ??_C@_1M@LEPJNLFD@?$AAn?$AAs?$AA?9?$AAZ?$AAA?$AA?$AA@ 0045dd6c     libucrt:lcidtoname_downlevel.obj
 0002:0000dd78       ??_C@_1M@OMLEIIJB@?$AAm?$AAi?$AA?9?$AAN?$AAZ?$AA?$AA@ 0045dd78     libucrt:lcidtoname_downlevel.obj
 0002:0000dd84       ??_C@_1M@PMPEAILG@?$AAa?$AAr?$AA?9?$AAI?$AAQ?$AA?$AA@ 0045dd84     libucrt:lcidtoname_downlevel.obj
 0002:0000dd90       ??_C@_1M@CNKPNOEE@?$AAd?$AAe?$AA?9?$AAC?$AAH?$AA?$AA@ 0045dd90     libucrt:lcidtoname_downlevel.obj
 0002:0000dd9c       ??_C@_1M@LKMGMLKO@?$AAe?$AAn?$AA?9?$AAG?$AAB?$AA?$AA@ 0045dd9c     libucrt:lcidtoname_downlevel.obj
 0002:0000dda8       ??_C@_1M@PGKJFFGL@?$AAe?$AAs?$AA?9?$AAM?$AAX?$AA?$AA@ 0045dda8     libucrt:lcidtoname_downlevel.obj
 0002:0000ddb4       ??_C@_1M@DNNANBDC@?$AAf?$AAr?$AA?9?$AAB?$AAE?$AA?$AA@ 0045ddb4     libucrt:lcidtoname_downlevel.obj
 0002:0000ddc0       ??_C@_1M@HLGMDFHM@?$AAi?$AAt?$AA?9?$AAC?$AAH?$AA?$AA@ 0045ddc0     libucrt:lcidtoname_downlevel.obj
 0002:0000ddcc       ??_C@_1M@CLLBGJH@?$AAn?$AAl?$AA?9?$AAB?$AAE?$AA?$AA@ 0045ddcc     libucrt:lcidtoname_downlevel.obj
 0002:0000ddd8       ??_C@_1M@BODBOGLF@?$AAn?$AAn?$AA?9?$AAN?$AAO?$AA?$AA@ 0045ddd8     libucrt:lcidtoname_downlevel.obj
 0002:0000dde4       ??_C@_1M@HFFAHKAD@?$AAp?$AAt?$AA?9?$AAP?$AAT?$AA?$AA@ 0045dde4     libucrt:lcidtoname_downlevel.obj
 0002:0000ddf0       ??_C@_1BG@LNOAKHIE@?$AAs?$AAr?$AA?9?$AAS?$AAP?$AA?9?$AAL?$AAa?$AAt?$AAn?$AA?$AA@ 0045ddf0     libucrt:lcidtoname_downlevel.obj
 0002:0000de08       ??_C@_1M@HBMHBGAK@?$AAs?$AAv?$AA?9?$AAF?$AAI?$AA?$AA@ 0045de08     libucrt:lcidtoname_downlevel.obj
 0002:0000de14       ??_C@_1BG@DGCJGJBE@?$AAa?$AAz?$AA?9?$AAA?$AAZ?$AA?9?$AAC?$AAy?$AAr?$AAl?$AA?$AA@ 0045de14     libucrt:lcidtoname_downlevel.obj
 0002:0000de2c       ??_C@_1M@KEJDAAHB@?$AAs?$AAe?$AA?9?$AAS?$AAE?$AA?$AA@ 0045de2c     libucrt:lcidtoname_downlevel.obj
 0002:0000de38       ??_C@_1M@HEIBJJAD@?$AAm?$AAs?$AA?9?$AAB?$AAN?$AA?$AA@ 0045de38     libucrt:lcidtoname_downlevel.obj
 0002:0000de44       ??_C@_1BG@PBGJMCEM@?$AAu?$AAz?$AA?9?$AAU?$AAZ?$AA?9?$AAC?$AAy?$AAr?$AAl?$AA?$AA@ 0045de44     libucrt:lcidtoname_downlevel.obj
 0002:0000de5c       ??_C@_1O@LAOBCMDF@?$AAq?$AAu?$AAz?$AA?9?$AAE?$AAC?$AA?$AA@ 0045de5c     libucrt:lcidtoname_downlevel.obj
 0002:0000de6c       ??_C@_1M@POEEMAIO@?$AAa?$AAr?$AA?9?$AAE?$AAG?$AA?$AA@ 0045de6c     libucrt:lcidtoname_downlevel.obj
 0002:0000de78       ??_C@_1M@EFAKDEDL@?$AAz?$AAh?$AA?9?$AAH?$AAK?$AA?$AA@ 0045de78     libucrt:lcidtoname_downlevel.obj
 0002:0000de84       ??_C@_1M@HKKIJHGI@?$AAd?$AAe?$AA?9?$AAA?$AAT?$AA?$AA@ 0045de84     libucrt:lcidtoname_downlevel.obj
 0002:0000de90       ??_C@_1M@KBFBEHJF@?$AAe?$AAn?$AA?9?$AAA?$AAU?$AA?$AA@ 0045de90     libucrt:lcidtoname_downlevel.obj
 0002:0000de9c       ??_C@_1M@MNPLFAAH@?$AAe?$AAs?$AA?9?$AAE?$AAS?$AA?$AA@ 0045de9c     libucrt:lcidtoname_downlevel.obj
 0002:0000dea8       ??_C@_1M@HJOOJFMA@?$AAf?$AAr?$AA?9?$AAC?$AAA?$AA?$AA@ 0045dea8     libucrt:lcidtoname_downlevel.obj
 0002:0000deb4       ??_C@_1BG@JPOFPNAB@?$AAs?$AAr?$AA?9?$AAS?$AAP?$AA?9?$AAC?$AAy?$AAr?$AAl?$AA?$AA@ 0045deb4     libucrt:lcidtoname_downlevel.obj
 0002:0000decc       ??_C@_1M@LNFOCMOB@?$AAs?$AAe?$AA?9?$AAF?$AAI?$AA?$AA@ 0045decc     libucrt:lcidtoname_downlevel.obj
 0002:0000ded8       ??_C@_1O@MGJBOAMB@?$AAq?$AAu?$AAz?$AA?9?$AAP?$AAE?$AA?$AA@ 0045ded8     libucrt:lcidtoname_downlevel.obj
 0002:0000dee8       ??_C@_1M@GJINLBOK@?$AAa?$AAr?$AA?9?$AAL?$AAY?$AA?$AA@ 0045dee8     libucrt:lcidtoname_downlevel.obj
 0002:0000def4       ??_C@_1M@GGMNHJNL@?$AAz?$AAh?$AA?9?$AAS?$AAG?$AA?$AA@ 0045def4     libucrt:lcidtoname_downlevel.obj
 0002:0000df00       ??_C@_1M@HOIKODND@?$AAd?$AAe?$AA?9?$AAL?$AAU?$AA?$AA@ 0045df00     libucrt:lcidtoname_downlevel.obj
 0002:0000df0c       ??_C@_1M@DDOCCGFG@?$AAe?$AAn?$AA?9?$AAC?$AAA?$AA?$AA@ 0045df0c     libucrt:lcidtoname_downlevel.obj
 0002:0000df18       ??_C@_1M@BNOEMJLF@?$AAe?$AAs?$AA?9?$AAG?$AAT?$AA?$AA@ 0045df18     libucrt:lcidtoname_downlevel.obj
 0002:0000df24       ??_C@_1M@EOGNKEK@?$AAf?$AAr?$AA?9?$AAC?$AAH?$AA?$AA@ 0045df24     libucrt:lcidtoname_downlevel.obj
 0002:0000df30       ??_C@_1M@FLIDJFHL@?$AAh?$AAr?$AA?9?$AAB?$AAA?$AA?$AA@ 0045df30     libucrt:lcidtoname_downlevel.obj
 0002:0000df3c       ??_C@_1O@FMCELNAJ@?$AAs?$AAm?$AAj?$AA?9?$AAN?$AAO?$AA?$AA@ 0045df3c     libucrt:lcidtoname_downlevel.obj
 0002:0000df4c       ??_C@_1M@JHGLJMGJ@?$AAa?$AAr?$AA?9?$AAD?$AAZ?$AA?$AA@ 0045df4c     libucrt:lcidtoname_downlevel.obj
 0002:0000df58       ??_C@_1M@JKKFDCNP@?$AAz?$AAh?$AA?9?$AAM?$AAO?$AA?$AA@ 0045df58     libucrt:lcidtoname_downlevel.obj
 0002:0000df64       ??_C@_1M@GEEFALPE@?$AAd?$AAe?$AA?9?$AAL?$AAI?$AA?$AA@ 0045df64     libucrt:lcidtoname_downlevel.obj
 0002:0000df70       ??_C@_1M@IGEOFBG@?$AAe?$AAn?$AA?9?$AAN?$AAZ?$AA?$AA@ 0045df70     libucrt:lcidtoname_downlevel.obj
 0002:0000df7c       ??_C@_1M@KDBONEHP@?$AAe?$AAs?$AA?9?$AAC?$AAR?$AA?$AA@ 0045df7c     libucrt:lcidtoname_downlevel.obj
 0002:0000df88       ??_C@_1M@FHMDOHNN@?$AAf?$AAr?$AA?9?$AAL?$AAU?$AA?$AA@ 0045df88     libucrt:lcidtoname_downlevel.obj
 0002:0000df94       ??_C@_1BG@NFKKMAFG@?$AAb?$AAs?$AA?9?$AAB?$AAA?$AA?9?$AAL?$AAa?$AAt?$AAn?$AA?$AA@ 0045df94     libucrt:lcidtoname_downlevel.obj
 0002:0000dfac       ??_C@_1O@IMNBEMCI@?$AAs?$AAm?$AAj?$AA?9?$AAS?$AAE?$AA?$AA@ 0045dfac     libucrt:lcidtoname_downlevel.obj
 0002:0000dfbc       ??_C@_1M@DHHMBNDP@?$AAa?$AAr?$AA?9?$AAM?$AAA?$AA?$AA@ 0045dfbc     libucrt:lcidtoname_downlevel.obj
 0002:0000dfc8       ??_C@_1M@BNBLJCGH@?$AAe?$AAn?$AA?9?$AAI?$AAE?$AA?$AA@ 0045dfc8     libucrt:lcidtoname_downlevel.obj
 0002:0000dfd4       ??_C@_1M@GEPAFMDL@?$AAe?$AAs?$AA?9?$AAP?$AAA?$AA?$AA@ 0045dfd4     libucrt:lcidtoname_downlevel.obj
 0002:0000dfe0       ??_C@_1M@OJONDMDL@?$AAf?$AAr?$AA?9?$AAM?$AAC?$AA?$AA@ 0045dfe0     libucrt:lcidtoname_downlevel.obj
 0002:0000dfec       ??_C@_1BG@OBCNFJB@?$AAs?$AAr?$AA?9?$AAB?$AAA?$AA?9?$AAL?$AAa?$AAt?$AAn?$AA?$AA@ 0045dfec     libucrt:lcidtoname_downlevel.obj
 0002:0000e004       ??_C@_1O@KEMEEGPO@?$AAs?$AAm?$AAa?$AA?9?$AAN?$AAO?$AA?$AA@ 0045e004     libucrt:lcidtoname_downlevel.obj
 0002:0000e014       ??_C@_1M@ELMGFODK@?$AAa?$AAr?$AA?9?$AAT?$AAN?$AA?$AA@ 0045e014     libucrt:lcidtoname_downlevel.obj
 0002:0000e020       ??_C@_1M@BHDLHFAF@?$AAe?$AAn?$AA?9?$AAZ?$AAA?$AA?$AA@ 0045e020     libucrt:lcidtoname_downlevel.obj
 0002:0000e02c       ??_C@_1M@BMGIGLIF@?$AAe?$AAs?$AA?9?$AAD?$AAO?$AA?$AA@ 0045e02c     libucrt:lcidtoname_downlevel.obj
 0002:0000e038       ??_C@_1BG@CMBHIPBE@?$AAs?$AAr?$AA?9?$AAB?$AAA?$AA?9?$AAC?$AAy?$AAr?$AAl?$AA?$AA@ 0045e038     libucrt:lcidtoname_downlevel.obj
 0002:0000e050       ??_C@_1O@HEDBLHNP@?$AAs?$AAm?$AAa?$AA?9?$AAS?$AAE?$AA?$AA@ 0045e050     libucrt:lcidtoname_downlevel.obj
 0002:0000e060       ??_C@_1M@DAGCADIM@?$AAa?$AAr?$AA?9?$AAO?$AAM?$AA?$AA@ 0045e060     libucrt:lcidtoname_downlevel.obj
 0002:0000e06c       ??_C@_1M@FODLMICG@?$AAe?$AAn?$AA?9?$AAJ?$AAM?$AA?$AA@ 0045e06c     libucrt:lcidtoname_downlevel.obj
 0002:0000e078       ??_C@_1M@DNMLCIHB@?$AAe?$AAs?$AA?9?$AAV?$AAE?$AA?$AA@ 0045e078     libucrt:lcidtoname_downlevel.obj
 0002:0000e084       ??_C@_1O@EOKHMKJK@?$AAs?$AAm?$AAs?$AA?9?$AAF?$AAI?$AA?$AA@ 0045e084     libucrt:lcidtoname_downlevel.obj
 0002:0000e094       ??_C@_1M@CAFJMKOF@?$AAa?$AAr?$AA?9?$AAY?$AAE?$AA?$AA@ 0045e094     libucrt:lcidtoname_downlevel.obj
 0002:0000e0a0       ??_C@_1M@CBFHIJLI@?$AAe?$AAn?$AA?9?$AAC?$AAB?$AA?$AA@ 0045e0a0     libucrt:lcidtoname_downlevel.obj
 0002:0000e0ac       ??_C@_1M@BGNFLDN@?$AAe?$AAs?$AA?9?$AAC?$AAO?$AA?$AA@ 0045e0ac     libucrt:lcidtoname_downlevel.obj
 0002:0000e0b8       ??_C@_1O@JMPHMAMC@?$AAs?$AAm?$AAn?$AA?9?$AAF?$AAI?$AA?$AA@ 0045e0b8     libucrt:lcidtoname_downlevel.obj
 0002:0000e0c8       ??_C@_1M@JLANABKE@?$AAa?$AAr?$AA?9?$AAS?$AAY?$AA?$AA@ 0045e0c8     libucrt:lcidtoname_downlevel.obj
 0002:0000e0d4       ??_C@_1M@HPKGCFGN@?$AAe?$AAn?$AA?9?$AAB?$AAZ?$AA?$AA@ 0045e0d4     libucrt:lcidtoname_downlevel.obj
 0002:0000e0e0       ??_C@_1M@OLJCMLGM@?$AAe?$AAs?$AA?9?$AAP?$AAE?$AA?$AA@ 0045e0e0     libucrt:lcidtoname_downlevel.obj
 0002:0000e0ec       ??_C@_1M@MKKGFKLE@?$AAa?$AAr?$AA?9?$AAJ?$AAO?$AA?$AA@ 0045e0ec     libucrt:lcidtoname_downlevel.obj
 0002:0000e0f8       ??_C@_1M@EKPGLDNI@?$AAe?$AAn?$AA?9?$AAT?$AAT?$AA?$AA@ 0045e0f8     libucrt:lcidtoname_downlevel.obj
 0002:0000e104       ??_C@_1M@OONGHFHE@?$AAe?$AAs?$AA?9?$AAA?$AAR?$AA?$AA@ 0045e104     libucrt:lcidtoname_downlevel.obj
 0002:0000e110       ??_C@_1M@OOJFGBHE@?$AAa?$AAr?$AA?9?$AAL?$AAB?$AA?$AA@ 0045e110     libucrt:lcidtoname_downlevel.obj
 0002:0000e11c       ??_C@_1M@GCEJHNEG@?$AAe?$AAn?$AA?9?$AAZ?$AAW?$AA?$AA@ 0045e11c     libucrt:lcidtoname_downlevel.obj
 0002:0000e128       ??_C@_1M@JNOCAHJI@?$AAe?$AAs?$AA?9?$AAE?$AAC?$AA?$AA@ 0045e128     libucrt:lcidtoname_downlevel.obj
 0002:0000e134       ??_C@_1M@JEFHPGGB@?$AAa?$AAr?$AA?9?$AAK?$AAW?$AA?$AA@ 0045e134     libucrt:lcidtoname_downlevel.obj
 0002:0000e140       ??_C@_1M@MLKIBJOJ@?$AAe?$AAn?$AA?9?$AAP?$AAH?$AA?$AA@ 0045e140     libucrt:lcidtoname_downlevel.obj
 0002:0000e14c       ??_C@_1M@BDNIPEND@?$AAe?$AAs?$AA?9?$AAC?$AAL?$AA?$AA@ 0045e14c     libucrt:lcidtoname_downlevel.obj
 0002:0000e158       ??_C@_1M@MPNMEKBD@?$AAa?$AAr?$AA?9?$AAA?$AAE?$AA?$AA@ 0045e158     libucrt:lcidtoname_downlevel.obj
 0002:0000e164       ??_C@_1M@KBJALCPI@?$AAe?$AAs?$AA?9?$AAU?$AAY?$AA?$AA@ 0045e164     libucrt:lcidtoname_downlevel.obj
 0002:0000e170       ??_C@_1M@LLCCOAGA@?$AAa?$AAr?$AA?9?$AAB?$AAH?$AA?$AA@ 0045e170     libucrt:lcidtoname_downlevel.obj
 0002:0000e17c       ??_C@_1M@PBFNCDEL@?$AAe?$AAs?$AA?9?$AAP?$AAY?$AA?$AA@ 0045e17c     libucrt:lcidtoname_downlevel.obj
 0002:0000e188       ??_C@_1M@EDGINPNP@?$AAa?$AAr?$AA?9?$AAQ?$AAA?$AA?$AA@ 0045e188     libucrt:lcidtoname_downlevel.obj
 0002:0000e194       ??_C@_1M@MKDBIIJI@?$AAe?$AAs?$AA?9?$AAB?$AAO?$AA?$AA@ 0045e194     libucrt:lcidtoname_downlevel.obj
 0002:0000e1a0       ??_C@_1M@CPKKEBLD@?$AAe?$AAs?$AA?9?$AAS?$AAV?$AA?$AA@ 0045e1a0     libucrt:lcidtoname_downlevel.obj
 0002:0000e1ac       ??_C@_1M@NDBGMMJL@?$AAe?$AAs?$AA?9?$AAH?$AAN?$AA?$AA@ 0045e1ac     libucrt:lcidtoname_downlevel.obj
 0002:0000e1b8       ??_C@_1M@JIJIBHDP@?$AAe?$AAs?$AA?9?$AAN?$AAI?$AA?$AA@ 0045e1b8     libucrt:lcidtoname_downlevel.obj
 0002:0000e1c4       ??_C@_1M@CGFMKEEK@?$AAe?$AAs?$AA?9?$AAP?$AAR?$AA?$AA@ 0045e1c4     libucrt:lcidtoname_downlevel.obj
 0002:0000e1d0       ??_C@_1O@ICJHKIIK@?$AAz?$AAh?$AA?9?$AAC?$AAH?$AAT?$AA?$AA@ 0045e1d0     libucrt:lcidtoname_downlevel.obj
 0002:0000e1e0       ??_C@_15CLNEJCE@?$AAs?$AAr?$AA?$AA@ 0045e1e0     libucrt:lcidtoname_downlevel.obj
 0002:0000e908       ??_C@_1M@KAHEKEIG@?$AAa?$AAf?$AA?9?$AAz?$AAa?$AA?$AA@ 0045e908     libucrt:lcidtoname_downlevel.obj
 0002:0000e914       ??_C@_1M@GIECOABL@?$AAa?$AAr?$AA?9?$AAa?$AAe?$AA?$AA@ 0045e914     libucrt:lcidtoname_downlevel.obj
 0002:0000e920       ??_C@_1M@BMLMEKGI@?$AAa?$AAr?$AA?9?$AAb?$AAh?$AA?$AA@ 0045e920     libucrt:lcidtoname_downlevel.obj
 0002:0000e92c       ??_C@_1M@DAPFDGGB@?$AAa?$AAr?$AA?9?$AAd?$AAz?$AA?$AA@ 0045e92c     libucrt:lcidtoname_downlevel.obj
 0002:0000e938       ??_C@_1M@FJNKGKIG@?$AAa?$AAr?$AA?9?$AAe?$AAg?$AA?$AA@ 0045e938     libucrt:lcidtoname_downlevel.obj
 0002:0000e944       ??_C@_1M@FLGKKCLO@?$AAa?$AAr?$AA?9?$AAi?$AAq?$AA?$AA@ 0045e944     libucrt:lcidtoname_downlevel.obj
 0002:0000e950       ??_C@_1M@GNDIPALM@?$AAa?$AAr?$AA?9?$AAj?$AAo?$AA?$AA@ 0045e950     libucrt:lcidtoname_downlevel.obj
 0002:0000e95c       ??_C@_1M@DDMJFMGJ@?$AAa?$AAr?$AA?9?$AAk?$AAw?$AA?$AA@ 0045e95c     libucrt:lcidtoname_downlevel.obj
 0002:0000e968       ??_C@_1M@EJALMLHM@?$AAa?$AAr?$AA?9?$AAl?$AAb?$AA?$AA@ 0045e968     libucrt:lcidtoname_downlevel.obj
 0002:0000e974       ??_C@_1M@MOBDBLOC@?$AAa?$AAr?$AA?9?$AAl?$AAy?$AA?$AA@ 0045e974     libucrt:lcidtoname_downlevel.obj
 0002:0000e980       ??_C@_1M@JAOCLHDH@?$AAa?$AAr?$AA?9?$AAm?$AAa?$AA?$AA@ 0045e980     libucrt:lcidtoname_downlevel.obj
 0002:0000e98c       ??_C@_1M@JHPMKJIE@?$AAa?$AAr?$AA?9?$AAo?$AAm?$AA?$AA@ 0045e98c     libucrt:lcidtoname_downlevel.obj
 0002:0000e998       ??_C@_1M@OEPGHFNH@?$AAa?$AAr?$AA?9?$AAq?$AAa?$AA?$AA@ 0045e998     libucrt:lcidtoname_downlevel.obj
 0002:0000e9a4       ??_C@_1M@KJDONENM@?$AAa?$AAr?$AA?9?$AAs?$AAa?$AA?$AA@ 0045e9a4     libucrt:lcidtoname_downlevel.obj
 0002:0000e9b0       ??_C@_1M@DMJDKLKM@?$AAa?$AAr?$AA?9?$AAs?$AAy?$AA?$AA@ 0045e9b0     libucrt:lcidtoname_downlevel.obj
 0002:0000e9bc       ??_C@_1M@OMFIPEDC@?$AAa?$AAr?$AA?9?$AAt?$AAn?$AA?$AA@ 0045e9bc     libucrt:lcidtoname_downlevel.obj
 0002:0000e9c8       ??_C@_1M@IHMHGAON@?$AAa?$AAr?$AA?9?$AAy?$AAe?$AA?$AA@ 0045e9c8     libucrt:lcidtoname_downlevel.obj
 0002:0000e9d4       ??_C@_1BG@KDCPGJGB@?$AAa?$AAz?$AA?9?$AAa?$AAz?$AA?9?$AAc?$AAy?$AAr?$AAl?$AA?$AA@ 0045e9d4     libucrt:lcidtoname_downlevel.obj
 0002:0000e9ec       ??_C@_1BG@IBCKDDOE@?$AAa?$AAz?$AA?9?$AAa?$AAz?$AA?9?$AAl?$AAa?$AAt?$AAn?$AA?$AA@ 0045e9ec     libucrt:lcidtoname_downlevel.obj
 0002:0000ea04       ??_C@_1M@EGPFDCPD@?$AAb?$AAe?$AA?9?$AAb?$AAy?$AA?$AA@ 0045ea04     libucrt:lcidtoname_downlevel.obj
 0002:0000ea10       ??_C@_1M@PCMGMCGC@?$AAb?$AAg?$AA?9?$AAb?$AAg?$AA?$AA@ 0045ea10     libucrt:lcidtoname_downlevel.obj
 0002:0000ea1c       ??_C@_1M@BJBMFGOB@?$AAb?$AAn?$AA?9?$AAi?$AAn?$AA?$AA@ 0045ea1c     libucrt:lcidtoname_downlevel.obj
 0002:0000ea28       ??_C@_1BG@EAKMMACD@?$AAb?$AAs?$AA?9?$AAb?$AAa?$AA?9?$AAl?$AAa?$AAt?$AAn?$AA?$AA@ 0045ea28     libucrt:lcidtoname_downlevel.obj
 0002:0000ea40       ??_C@_1M@KGADAODK@?$AAc?$AAa?$AA?9?$AAe?$AAs?$AA?$AA@ 0045ea40     libucrt:lcidtoname_downlevel.obj
 0002:0000ea4c       ??_C@_1M@COAJPDHI@?$AAc?$AAs?$AA?9?$AAc?$AAz?$AA?$AA@ 0045ea4c     libucrt:lcidtoname_downlevel.obj
 0002:0000ea58       ??_C@_1M@DHBHFONH@?$AAc?$AAy?$AA?9?$AAg?$AAb?$AA?$AA@ 0045ea58     libucrt:lcidtoname_downlevel.obj
 0002:0000ea64       ??_C@_1M@IMGKELGA@?$AAd?$AAa?$AA?9?$AAd?$AAk?$AA?$AA@ 0045ea64     libucrt:lcidtoname_downlevel.obj
 0002:0000ea70       ??_C@_1M@NNDGDNGA@?$AAd?$AAe?$AA?9?$AAa?$AAt?$AA?$AA@ 0045ea70     libucrt:lcidtoname_downlevel.obj
 0002:0000ea7c       ??_C@_1M@IKDBHEEM@?$AAd?$AAe?$AA?9?$AAc?$AAh?$AA?$AA@ 0045ea7c     libucrt:lcidtoname_downlevel.obj
 0002:0000ea88       ??_C@_1M@GFFOJMCJ@?$AAd?$AAe?$AA?9?$AAd?$AAe?$AA?$AA@ 0045ea88     libucrt:lcidtoname_downlevel.obj
 0002:0000ea94       ??_C@_1M@MDNLKBPM@?$AAd?$AAe?$AA?9?$AAl?$AAi?$AA?$AA@ 0045ea94     libucrt:lcidtoname_downlevel.obj
 0002:0000eaa0       ??_C@_1M@NJBEEJNL@?$AAd?$AAe?$AA?9?$AAl?$AAu?$AA?$AA@ 0045eaa0     libucrt:lcidtoname_downlevel.obj
 0002:0000eaac       ??_C@_1O@GNNELBAP@?$AAd?$AAi?$AAv?$AA?9?$AAm?$AAv?$AA?$AA@ 0045eaac     libucrt:lcidtoname_downlevel.obj
 0002:0000eabc       ??_C@_1M@EJLEOGAE@?$AAe?$AAl?$AA?9?$AAg?$AAr?$AA?$AA@ 0045eabc     libucrt:lcidtoname_downlevel.obj
 0002:0000eac8       ??_C@_1M@GMPONJN@?$AAe?$AAn?$AA?9?$AAa?$AAu?$AA?$AA@ 0045eac8     libucrt:lcidtoname_downlevel.obj
 0002:0000ead4       ??_C@_1M@NIDIIPGF@?$AAe?$AAn?$AA?9?$AAb?$AAz?$AA?$AA@ 0045ead4     libucrt:lcidtoname_downlevel.obj
 0002:0000eae0       ??_C@_1M@JEHMIMFO@?$AAe?$AAn?$AA?9?$AAc?$AAa?$AA?$AA@ 0045eae0     libucrt:lcidtoname_downlevel.obj
 0002:0000eaec       ??_C@_1M@IGMJCDLA@?$AAe?$AAn?$AA?9?$AAc?$AAb?$AA?$AA@ 0045eaec     libucrt:lcidtoname_downlevel.obj
 0002:0000eaf8       ??_C@_1M@BNFIGBKG@?$AAe?$AAn?$AA?9?$AAg?$AAb?$AA?$AA@ 0045eaf8     libucrt:lcidtoname_downlevel.obj
 0002:0000eb04       ??_C@_1M@LKIFDIGP@?$AAe?$AAn?$AA?9?$AAi?$AAe?$AA?$AA@ 0045eb04     libucrt:lcidtoname_downlevel.obj
 0002:0000eb10       ??_C@_1M@PJKFGCCO@?$AAe?$AAn?$AA?9?$AAj?$AAm?$AA?$AA@ 0045eb10     libucrt:lcidtoname_downlevel.obj
 0002:0000eb1c       ??_C@_1M@KPPKEPBO@?$AAe?$AAn?$AA?9?$AAn?$AAz?$AA?$AA@ 0045eb1c     libucrt:lcidtoname_downlevel.obj
 0002:0000eb28       ??_C@_1M@GMDGLDOB@?$AAe?$AAn?$AA?9?$AAp?$AAh?$AA?$AA@ 0045eb28     libucrt:lcidtoname_downlevel.obj
 0002:0000eb34       ??_C@_1M@ONGIBJNA@?$AAe?$AAn?$AA?9?$AAt?$AAt?$AA?$AA@ 0045eb34     libucrt:lcidtoname_downlevel.obj
 0002:0000eb40       ??_C@_1M@LLODPCMM@?$AAe?$AAn?$AA?9?$AAu?$AAs?$AA?$AA@ 0045eb40     libucrt:lcidtoname_downlevel.obj
 0002:0000eb4c       ??_C@_1M@LAKFNPAN@?$AAe?$AAn?$AA?9?$AAz?$AAa?$AA?$AA@ 0045eb4c     libucrt:lcidtoname_downlevel.obj
 0002:0000eb58       ??_C@_1M@MFNHNHEO@?$AAe?$AAn?$AA?9?$AAz?$AAw?$AA?$AA@ 0045eb58     libucrt:lcidtoname_downlevel.obj
 0002:0000eb64       ??_C@_1M@EJEINPHM@?$AAe?$AAs?$AA?9?$AAa?$AAr?$AA?$AA@ 0045eb64     libucrt:lcidtoname_downlevel.obj
 0002:0000eb70       ??_C@_1M@GNKPCCJA@?$AAe?$AAs?$AA?9?$AAb?$AAo?$AA?$AA@ 0045eb70     libucrt:lcidtoname_downlevel.obj
 0002:0000eb7c       ??_C@_1M@LEEGFONL@?$AAe?$AAs?$AA?9?$AAc?$AAl?$AA?$AA@ 0045eb7c     libucrt:lcidtoname_downlevel.obj
 0002:0000eb88       ??_C@_1M@KGPDPBDF@?$AAe?$AAs?$AA?9?$AAc?$AAo?$AA?$AA@ 0045eb88     libucrt:lcidtoname_downlevel.obj
 0002:0000eb94       ??_C@_1M@EIAHOHH@?$AAe?$AAs?$AA?9?$AAc?$AAr?$AA?$AA@ 0045eb94     libucrt:lcidtoname_downlevel.obj
 0002:0000eba0       ??_C@_1M@LLPGMBIN@?$AAe?$AAs?$AA?9?$AAd?$AAo?$AA?$AA@ 0045eba0     libucrt:lcidtoname_downlevel.obj
 0002:0000ebac       ??_C@_1M@DKHMKNJA@?$AAe?$AAs?$AA?9?$AAe?$AAc?$AA?$AA@ 0045ebac     libucrt:lcidtoname_downlevel.obj
 0002:0000ebb8       ??_C@_1M@GKGFPKAP@?$AAe?$AAs?$AA?9?$AAe?$AAs?$AA?$AA@ 0045ebb8     libucrt:lcidtoname_downlevel.obj
 0002:0000ebc4       ??_C@_1M@LKHKGDLN@?$AAe?$AAs?$AA?9?$AAg?$AAt?$AA?$AA@ 0045ebc4     libucrt:lcidtoname_downlevel.obj
 0002:0000ebd0       ??_C@_1M@HEIIGGJD@?$AAe?$AAs?$AA?9?$AAh?$AAn?$AA?$AA@ 0045ebd0     libucrt:lcidtoname_downlevel.obj
 0002:0000ebdc       ??_C@_1M@FBDHPPGD@?$AAe?$AAs?$AA?9?$AAm?$AAx?$AA?$AA@ 0045ebdc     libucrt:lcidtoname_downlevel.obj
 0002:0000ebe8       ??_C@_1M@DPAGLNDH@?$AAe?$AAs?$AA?9?$AAn?$AAi?$AA?$AA@ 0045ebe8     libucrt:lcidtoname_downlevel.obj
 0002:0000ebf4       ??_C@_1M@MDGOPGDD@?$AAe?$AAs?$AA?9?$AAp?$AAa?$AA?$AA@ 0045ebf4     libucrt:lcidtoname_downlevel.obj
 0002:0000ec00       ??_C@_1M@EMAMGBGE@?$AAe?$AAs?$AA?9?$AAp?$AAe?$AA?$AA@ 0045ec00     libucrt:lcidtoname_downlevel.obj
 0002:0000ec0c       ??_C@_1M@IBMCAOEC@?$AAe?$AAs?$AA?9?$AAp?$AAr?$AA?$AA@ 0045ec0c     libucrt:lcidtoname_downlevel.obj
 0002:0000ec18       ??_C@_1M@FGMDIJED@?$AAe?$AAs?$AA?9?$AAp?$AAy?$AA?$AA@ 0045ec18     libucrt:lcidtoname_downlevel.obj
 0002:0000ec24       ??_C@_1M@IIDEOLLL@?$AAe?$AAs?$AA?9?$AAs?$AAv?$AA?$AA@ 0045ec24     libucrt:lcidtoname_downlevel.obj
 0002:0000ec30       ??_C@_1M@GAOBIPA@?$AAe?$AAs?$AA?9?$AAu?$AAy?$AA?$AA@ 0045ec30     libucrt:lcidtoname_downlevel.obj
 0002:0000ec3c       ??_C@_1M@JKFFICHJ@?$AAe?$AAs?$AA?9?$AAv?$AAe?$AA?$AA@ 0045ec3c     libucrt:lcidtoname_downlevel.obj
 0002:0000ec48       ??_C@_1M@PNMLOJDF@?$AAe?$AAt?$AA?9?$AAe?$AAe?$AA?$AA@ 0045ec48     libucrt:lcidtoname_downlevel.obj
 0002:0000ec54       ??_C@_1M@GHHLIKEI@?$AAe?$AAu?$AA?9?$AAe?$AAs?$AA?$AA@ 0045ec54     libucrt:lcidtoname_downlevel.obj
 0002:0000ec60       ??_C@_1M@PBNONODE@?$AAf?$AAa?$AA?9?$AAi?$AAr?$AA?$AA@ 0045ec60     libucrt:lcidtoname_downlevel.obj
 0002:0000ec6c       ??_C@_1M@JEEHPMIL@?$AAf?$AAi?$AA?9?$AAf?$AAi?$AA?$AA@ 0045ec6c     libucrt:lcidtoname_downlevel.obj
 0002:0000ec78       ??_C@_1M@LMDCNDBA@?$AAf?$AAo?$AA?9?$AAf?$AAo?$AA?$AA@ 0045ec78     libucrt:lcidtoname_downlevel.obj
 0002:0000ec84       ??_C@_1M@JKEOHLDK@?$AAf?$AAr?$AA?9?$AAb?$AAe?$AA?$AA@ 0045ec84     libucrt:lcidtoname_downlevel.obj
 0002:0000ec90       ??_C@_1M@NOHADPMI@?$AAf?$AAr?$AA?9?$AAc?$AAa?$AA?$AA@ 0045ec90     libucrt:lcidtoname_downlevel.obj
 0002:0000ec9c       ??_C@_1M@KDHIHAEC@?$AAf?$AAr?$AA?9?$AAc?$AAh?$AA?$AA@ 0045ec9c     libucrt:lcidtoname_downlevel.obj
 0002:0000eca8       ??_C@_1M@MMBBFGAK@?$AAf?$AAr?$AA?9?$AAf?$AAr?$AA?$AA@ 0045eca8     libucrt:lcidtoname_downlevel.obj
 0002:0000ecb4       ??_C@_1M@PAFNENNF@?$AAf?$AAr?$AA?9?$AAl?$AAu?$AA?$AA@ 0045ecb4     libucrt:lcidtoname_downlevel.obj
 0002:0000ecc0       ??_C@_1M@EOHDJGDD@?$AAf?$AAr?$AA?9?$AAm?$AAc?$AA?$AA@ 0045ecc0     libucrt:lcidtoname_downlevel.obj
 0002:0000eccc       ??_C@_1M@FAPLLOPF@?$AAg?$AAl?$AA?9?$AAe?$AAs?$AA?$AA@ 0045eccc     libucrt:lcidtoname_downlevel.obj
 0002:0000ecd8       ??_C@_1M@FOPBFLOO@?$AAg?$AAu?$AA?9?$AAi?$AAn?$AA?$AA@ 0045ecd8     libucrt:lcidtoname_downlevel.obj
 0002:0000ece4       ??_C@_1M@KBMCINPM@?$AAh?$AAe?$AA?9?$AAi?$AAl?$AA?$AA@ 0045ece4     libucrt:lcidtoname_downlevel.obj
 0002:0000ecf0       ??_C@_1M@BBPHKFPJ@?$AAh?$AAi?$AA?9?$AAi?$AAn?$AA?$AA@ 0045ecf0     libucrt:lcidtoname_downlevel.obj
 0002:0000ecfc       ??_C@_1M@PMBNDPHD@?$AAh?$AAr?$AA?9?$AAb?$AAa?$AA?$AA@ 0045ecfc     libucrt:lcidtoname_downlevel.obj
 0002:0000ed08       ??_C@_1M@BPCKOEGE@?$AAh?$AAr?$AA?9?$AAh?$AAr?$AA?$AA@ 0045ed08     libucrt:lcidtoname_downlevel.obj
 0002:0000ed14       ??_C@_1M@GACBMHKE@?$AAh?$AAu?$AA?9?$AAh?$AAu?$AA?$AA@ 0045ed14     libucrt:lcidtoname_downlevel.obj
 0002:0000ed20       ??_C@_1M@MILPAJJC@?$AAh?$AAy?$AA?9?$AAa?$AAm?$AA?$AA@ 0045ed20     libucrt:lcidtoname_downlevel.obj
 0002:0000ed2c       ??_C@_1M@BABBICEC@?$AAi?$AAd?$AA?9?$AAi?$AAd?$AA?$AA@ 0045ed2c     libucrt:lcidtoname_downlevel.obj
 0002:0000ed38       ??_C@_1M@BIKNHHPF@?$AAi?$AAs?$AA?9?$AAi?$AAs?$AA?$AA@ 0045ed38     libucrt:lcidtoname_downlevel.obj
 0002:0000ed44       ??_C@_1M@NMPCJPHE@?$AAi?$AAt?$AA?9?$AAc?$AAh?$AA?$AA@ 0045ed44     libucrt:lcidtoname_downlevel.obj
 0002:0000ed50       ??_C@_1M@GHKGFEDF@?$AAi?$AAt?$AA?9?$AAi?$AAt?$AA?$AA@ 0045ed50     libucrt:lcidtoname_downlevel.obj
 0002:0000ed5c       ??_C@_1M@NIEJCJJA@?$AAj?$AAa?$AA?9?$AAj?$AAp?$AA?$AA@ 0045ed5c     libucrt:lcidtoname_downlevel.obj
 0002:0000ed68       ??_C@_1M@JILFNBIM@?$AAk?$AAa?$AA?9?$AAg?$AAe?$AA?$AA@ 0045ed68     libucrt:lcidtoname_downlevel.obj
 0002:0000ed74       ??_C@_1M@PACPMGPH@?$AAk?$AAk?$AA?9?$AAk?$AAz?$AA?$AA@ 0045ed74     libucrt:lcidtoname_downlevel.obj
 0002:0000ed80       ??_C@_1M@IELFGMHA@?$AAk?$AAn?$AA?9?$AAi?$AAn?$AA?$AA@ 0045ed80     libucrt:lcidtoname_downlevel.obj
 0002:0000ed8c       ??_C@_1O@IBBJHCH@?$AAk?$AAo?$AAk?$AA?9?$AAi?$AAn?$AA?$AA@ 0045ed8c     libucrt:lcidtoname_downlevel.obj
 0002:0000ed9c       ??_C@_1M@DMHAEOGC@?$AAk?$AAo?$AA?9?$AAk?$AAr?$AA?$AA@ 0045ed9c     libucrt:lcidtoname_downlevel.obj
 0002:0000eda8       ??_C@_1M@HBAHBIGA@?$AAk?$AAy?$AA?9?$AAk?$AAg?$AA?$AA@ 0045eda8     libucrt:lcidtoname_downlevel.obj
 0002:0000edb4       ??_C@_1M@KPMILCJG@?$AAl?$AAt?$AA?9?$AAl?$AAt?$AA?$AA@ 0045edb4     libucrt:lcidtoname_downlevel.obj
 0002:0000edc0       ??_C@_1M@BDEKKCA@?$AAl?$AAv?$AA?9?$AAl?$AAv?$AA?$AA@ 0045edc0     libucrt:lcidtoname_downlevel.obj
 0002:0000edcc       ??_C@_1M@ELCKCCJJ@?$AAm?$AAi?$AA?9?$AAn?$AAz?$AA?$AA@ 0045edcc     libucrt:lcidtoname_downlevel.obj
 0002:0000edd8       ??_C@_1M@CBOOLAPA@?$AAm?$AAk?$AA?9?$AAm?$AAk?$AA?$AA@ 0045edd8     libucrt:lcidtoname_downlevel.obj
 0002:0000ede4       ??_C@_1M@GPHNBJKN@?$AAm?$AAl?$AA?9?$AAi?$AAn?$AA?$AA@ 0045ede4     libucrt:lcidtoname_downlevel.obj
 0002:0000edf0       ??_C@_1M@PABJILIG@?$AAm?$AAn?$AA?9?$AAm?$AAn?$AA?$AA@ 0045edf0     libucrt:lcidtoname_downlevel.obj
 0002:0000edfc       ??_C@_1M@FGBKKIPG@?$AAm?$AAr?$AA?9?$AAi?$AAn?$AA?$AA@ 0045edfc     libucrt:lcidtoname_downlevel.obj
 0002:0000ee08       ??_C@_1M@NDBPDDAL@?$AAm?$AAs?$AA?9?$AAb?$AAn?$AA?$AA@ 0045ee08     libucrt:lcidtoname_downlevel.obj
 0002:0000ee14       ??_C@_1M@OPIHOOPI@?$AAm?$AAs?$AA?9?$AAm?$AAy?$AA?$AA@ 0045ee14     libucrt:lcidtoname_downlevel.obj
 0002:0000ee20       ??_C@_1M@PPDBCNFM@?$AAm?$AAt?$AA?9?$AAm?$AAt?$AA?$AA@ 0045ee20     libucrt:lcidtoname_downlevel.obj
 0002:0000ee2c       ??_C@_1M@KDJDKMDD@?$AAn?$AAb?$AA?9?$AAn?$AAo?$AA?$AA@ 0045ee2c     libucrt:lcidtoname_downlevel.obj
 0002:0000ee38       ??_C@_1M@KFCFLMJP@?$AAn?$AAl?$AA?9?$AAb?$AAe?$AA?$AA@ 0045ee38     libucrt:lcidtoname_downlevel.obj
 0002:0000ee44       ??_C@_1M@KPOPDDGO@?$AAn?$AAl?$AA?9?$AAn?$AAl?$AA?$AA@ 0045ee44     libucrt:lcidtoname_downlevel.obj
 0002:0000ee50       ??_C@_1M@LJKPEMLN@?$AAn?$AAn?$AA?9?$AAn?$AAo?$AA?$AA@ 0045ee50     libucrt:lcidtoname_downlevel.obj
 0002:0000ee5c       ??_C@_1M@BDGHHBFL@?$AAn?$AAs?$AA?9?$AAz?$AAa?$AA?$AA@ 0045ee5c     libucrt:lcidtoname_downlevel.obj
 0002:0000ee68       ??_C@_1M@IDEHOAP@?$AAp?$AAa?$AA?9?$AAi?$AAn?$AA?$AA@ 0045ee68     libucrt:lcidtoname_downlevel.obj
 0002:0000ee74       ??_C@_1M@HDBKGOGH@?$AAp?$AAl?$AA?9?$AAp?$AAl?$AA?$AA@ 0045ee74     libucrt:lcidtoname_downlevel.obj
 0002:0000ee80       ??_C@_1M@LJLLCMEH@?$AAp?$AAt?$AA?9?$AAb?$AAr?$AA?$AA@ 0045ee80     libucrt:lcidtoname_downlevel.obj
 0002:0000ee8c       ??_C@_1M@NCMONAAL@?$AAp?$AAt?$AA?9?$AAp?$AAt?$AA?$AA@ 0045ee8c     libucrt:lcidtoname_downlevel.obj
 0002:0000ee98       ??_C@_1O@EAKMAJDN@?$AAq?$AAu?$AAz?$AA?9?$AAb?$AAo?$AA?$AA@ 0045ee98     libucrt:lcidtoname_downlevel.obj
 0002:0000eea8       ??_C@_1O@BHHPIGDN@?$AAq?$AAu?$AAz?$AA?9?$AAe?$AAc?$AA?$AA@ 0045eea8     libucrt:lcidtoname_downlevel.obj
 0002:0000eeb8       ??_C@_1O@GBAPEKMJ@?$AAq?$AAu?$AAz?$AA?9?$AAp?$AAe?$AA?$AA@ 0045eeb8     libucrt:lcidtoname_downlevel.obj
 0002:0000eec8       ??_C@_1M@CLGLEFBO@?$AAr?$AAo?$AA?9?$AAr?$AAo?$AA?$AA@ 0045eec8     libucrt:lcidtoname_downlevel.obj
 0002:0000eed4       ??_C@_1M@CEEDODME@?$AAr?$AAu?$AA?9?$AAr?$AAu?$AA?$AA@ 0045eed4     libucrt:lcidtoname_downlevel.obj
 0002:0000eee0       ??_C@_1M@HPKKKMPP@?$AAs?$AAa?$AA?9?$AAi?$AAn?$AA?$AA@ 0045eee0     libucrt:lcidtoname_downlevel.obj
 0002:0000eeec       ??_C@_1M@BKMAIGOJ@?$AAs?$AAe?$AA?9?$AAf?$AAi?$AA?$AA@ 0045eeec     libucrt:lcidtoname_downlevel.obj
 0002:0000eef8       ??_C@_1M@NDPIFLFI@?$AAs?$AAe?$AA?9?$AAn?$AAo?$AA?$AA@ 0045eef8     libucrt:lcidtoname_downlevel.obj
 0002:0000ef04       ??_C@_1M@DANKKHJ@?$AAs?$AAe?$AA?9?$AAs?$AAe?$AA?$AA@ 0045ef04     libucrt:lcidtoname_downlevel.obj
 0002:0000ef10       ??_C@_1M@PNBLONPJ@?$AAs?$AAk?$AA?9?$AAs?$AAk?$AA?$AA@ 0045ef10     libucrt:lcidtoname_downlevel.obj
 0002:0000ef1c       ??_C@_1M@LFMODOAL@?$AAs?$AAl?$AA?9?$AAs?$AAi?$AA?$AA@ 0045ef1c     libucrt:lcidtoname_downlevel.obj
 0002:0000ef28       ??_C@_1O@DFKOMPG@?$AAs?$AAm?$AAa?$AA?9?$AAn?$AAo?$AA?$AA@ 0045ef28     libucrt:lcidtoname_downlevel.obj
 0002:0000ef38       ??_C@_1O@NDKPBNNH@?$AAs?$AAm?$AAa?$AA?9?$AAs?$AAe?$AA?$AA@ 0045ef38     libucrt:lcidtoname_downlevel.obj
 0002:0000ef48       ??_C@_1O@PLLKBHAB@?$AAs?$AAm?$AAj?$AA?9?$AAn?$AAo?$AA?$AA@ 0045ef48     libucrt:lcidtoname_downlevel.obj
 0002:0000ef58       ??_C@_1O@CLEPOGCA@?$AAs?$AAm?$AAj?$AA?9?$AAs?$AAe?$AA?$AA@ 0045ef58     libucrt:lcidtoname_downlevel.obj
 0002:0000ef68       ??_C@_1O@DLGJGKMK@?$AAs?$AAm?$AAn?$AA?9?$AAf?$AAi?$AA?$AA@ 0045ef68     libucrt:lcidtoname_downlevel.obj
 0002:0000ef78       ??_C@_1O@OJDJGAJC@?$AAs?$AAm?$AAs?$AA?9?$AAf?$AAi?$AA?$AA@ 0045ef78     libucrt:lcidtoname_downlevel.obj
 0002:0000ef88       ??_C@_1M@BOFOGHPB@?$AAs?$AAq?$AA?9?$AAa?$AAl?$AA?$AA@ 0045ef88     libucrt:lcidtoname_downlevel.obj
 0002:0000ef94       ??_C@_1BG@LJBBIPGB@?$AAs?$AAr?$AA?9?$AAb?$AAa?$AA?9?$AAc?$AAy?$AAr?$AAl?$AA?$AA@ 0045ef94     libucrt:lcidtoname_downlevel.obj
 0002:0000efac       ??_C@_1BG@JLBENFOE@?$AAs?$AAr?$AA?9?$AAb?$AAa?$AA?9?$AAl?$AAa?$AAt?$AAn?$AA?$AA@ 0045efac     libucrt:lcidtoname_downlevel.obj
 0002:0000efc4       ??_C@_1BG@KODPNHE@?$AAs?$AAr?$AA?9?$AAs?$AAp?$AA?9?$AAc?$AAy?$AAr?$AAl?$AA?$AA@ 0045efc4     libucrt:lcidtoname_downlevel.obj
 0002:0000efdc       ??_C@_1BG@CIOGKHPB@?$AAs?$AAr?$AA?9?$AAs?$AAp?$AA?9?$AAl?$AAa?$AAt?$AAn?$AA?$AA@ 0045efdc     libucrt:lcidtoname_downlevel.obj
 0002:0000eff4       ??_C@_1M@NGFJLMAC@?$AAs?$AAv?$AA?9?$AAf?$AAi?$AA?$AA@ 0045eff4     libucrt:lcidtoname_downlevel.obj
 0002:0000f000       ??_C@_1M@MPJEJAJC@?$AAs?$AAv?$AA?9?$AAs?$AAe?$AA?$AA@ 0045f000     libucrt:lcidtoname_downlevel.obj
 0002:0000f00c       ??_C@_1M@MPNDHLFK@?$AAs?$AAw?$AA?9?$AAk?$AAe?$AA?$AA@ 0045f00c     libucrt:lcidtoname_downlevel.obj
 0002:0000f018       ??_C@_1O@KOHBJJI@?$AAs?$AAy?$AAr?$AA?9?$AAs?$AAy?$AA?$AA@ 0045f018     libucrt:lcidtoname_downlevel.obj
 0002:0000f028       ??_C@_1M@LDCEFHA@?$AAt?$AAa?$AA?9?$AAi?$AAn?$AA?$AA@ 0045f028     libucrt:lcidtoname_downlevel.obj
 0002:0000f034       ??_C@_1M@CNJOFAK@?$AAt?$AAe?$AA?9?$AAi?$AAn?$AA?$AA@ 0045f034     libucrt:lcidtoname_downlevel.obj
 0002:0000f040       ??_C@_1M@GNAECACD@?$AAt?$AAh?$AA?9?$AAt?$AAh?$AA?$AA@ 0045f040     libucrt:lcidtoname_downlevel.obj
 0002:0000f04c       ??_C@_1M@CHBIHOJO@?$AAt?$AAn?$AA?9?$AAz?$AAa?$AA?$AA@ 0045f04c     libucrt:lcidtoname_downlevel.obj
 0002:0000f058       ??_C@_1M@GCCMIGPJ@?$AAt?$AAr?$AA?9?$AAt?$AAr?$AA?$AA@ 0045f058     libucrt:lcidtoname_downlevel.obj
 0002:0000f064       ??_C@_1M@CELMCNBK@?$AAt?$AAt?$AA?9?$AAr?$AAu?$AA?$AA@ 0045f064     libucrt:lcidtoname_downlevel.obj
 0002:0000f070       ??_C@_1M@KLMCELGA@?$AAu?$AAk?$AA?9?$AAu?$AAa?$AA?$AA@ 0045f070     libucrt:lcidtoname_downlevel.obj
 0002:0000f07c       ??_C@_1M@EPAJJAJF@?$AAu?$AAr?$AA?9?$AAp?$AAk?$AA?$AA@ 0045f07c     libucrt:lcidtoname_downlevel.obj
 0002:0000f088       ??_C@_1BG@GEGPMCDJ@?$AAu?$AAz?$AA?9?$AAu?$AAz?$AA?9?$AAc?$AAy?$AAr?$AAl?$AA?$AA@ 0045f088     libucrt:lcidtoname_downlevel.obj
 0002:0000f0a0       ??_C@_1BG@EGGKJILM@?$AAu?$AAz?$AA?9?$AAu?$AAz?$AA?9?$AAl?$AAa?$AAt?$AAn?$AA?$AA@ 0045f0a0     libucrt:lcidtoname_downlevel.obj
 0002:0000f0b8       ??_C@_1M@GFOCLFF@?$AAv?$AAi?$AA?9?$AAv?$AAn?$AA?$AA@ 0045f0b8     libucrt:lcidtoname_downlevel.obj
 0002:0000f0c4       ??_C@_1M@CPAMEDFI@?$AAx?$AAh?$AA?9?$AAz?$AAa?$AA?$AA@ 0045f0c4     libucrt:lcidtoname_downlevel.obj
 0002:0000f0d0       ??_C@_1O@EBKIFIGN@?$AAz?$AAh?$AA?9?$AAc?$AAh?$AAs?$AA?$AA@ 0045f0d0     libucrt:lcidtoname_downlevel.obj
 0002:0000f0e0       ??_C@_1O@NMHPGANE@?$AAz?$AAh?$AA?9?$AAc?$AAh?$AAt?$AA?$AA@ 0045f0e0     libucrt:lcidtoname_downlevel.obj
 0002:0000f0f0       ??_C@_1M@LPINJOMC@?$AAz?$AAh?$AA?9?$AAc?$AAn?$AA?$AA@ 0045f0f0     libucrt:lcidtoname_downlevel.obj
 0002:0000f0fc       ??_C@_1M@OCJEJODD@?$AAz?$AAh?$AA?9?$AAh?$AAk?$AA?$AA@ 0045f0fc     libucrt:lcidtoname_downlevel.obj
 0002:0000f108       ??_C@_1M@DNDLJINH@?$AAz?$AAh?$AA?9?$AAm?$AAo?$AA?$AA@ 0045f108     libucrt:lcidtoname_downlevel.obj
 0002:0000f114       ??_C@_1M@MBFDNDND@?$AAz?$AAh?$AA?9?$AAs?$AAg?$AA?$AA@ 0045f114     libucrt:lcidtoname_downlevel.obj
 0002:0000f120       ??_C@_1M@IMEPLEPE@?$AAz?$AAh?$AA?9?$AAt?$AAw?$AA?$AA@ 0045f120     libucrt:lcidtoname_downlevel.obj
 0002:0000f12c       ??_C@_1M@BBGHNHJP@?$AAz?$AAu?$AA?9?$AAz?$AAa?$AA?$AA@ 0045f12c     libucrt:lcidtoname_downlevel.obj
 0002:0000f138       ??_C@_01GBGANLPD@0?$AA@    0045f138     libucrt:cfout.obj
 0002:0000f13c       ??_C@_05DNEBIAHO@1?$CDINF?$AA@ 0045f13c     libucrt:cfout.obj
 0002:0000f144       ??_C@_06IMKFLFPG@1?$CDQNAN?$AA@ 0045f144     libucrt:cfout.obj
 0002:0000f14c       ??_C@_06PGGFOGJG@1?$CDSNAN?$AA@ 0045f14c     libucrt:cfout.obj
 0002:0000f154       ??_C@_05PHHOCPM@1?$CDIND?$AA@ 0045f154     libucrt:cfout.obj
 0002:0000f174       ??_C@_1BA@BALFACEM@?$AAC?$AAO?$AAN?$AAO?$AAU?$AAT?$AA$?$AA?$AA@ 0045f174     libucrt:initcon.obj
 0002:0000f2f0       __infinity                 0045f2f0     libucrt:87tran.obj
 0002:0000f2fa       __minfinity                0045f2fa     libucrt:87tran.obj
 0002:0000f304       __logemax                  0045f304     libucrt:87tran.obj
 0002:0000f32a       __OP_EXPjmptab             0045f32a     libucrt:87tran.obj
 0002:0000f350       __indefinite               0045f350     libucrt:87disp.obj
 0002:0000f35a       __piby2                    0045f35a     libucrt:87disp.obj
 0002:0000f364       __piby4                    0045f364     libucrt:87disp.obj
 0002:0000f398       __DEFAULT_CW_in_mem        0045f398     libucrt:common.obj
 0002:0000f39a       __pi_by_2_to_61            0045f39a     libucrt:common.obj
 0002:0000f3d4       ??_C@_03MGHMBJCF@log?$AA@  0045f3d4     libucrt:libm_error.obj
 0002:0000f3d8       ??_C@_05HGHHAHAP@log10?$AA@ 0045f3d8     libucrt:libm_error.obj
 0002:0000f3e0       ??_C@_03KHJOGHMM@exp?$AA@  0045f3e0     libucrt:libm_error.obj
 0002:0000f3e4       ??_C@_03JGHBODFD@pow?$AA@  0045f3e4     libucrt:libm_error.obj
 0002:0000f3e8       ??_C@_04FIHNOPOL@asin?$AA@ 0045f3e8     libucrt:libm_error.obj
 0002:0000f3f0       ??_C@_04PDIFKINK@acos?$AA@ 0045f3f0     libucrt:libm_error.obj
 0002:0000f3f8       ??_C@_04EIAKFFMI@sqrt?$AA@ 0045f3f8     libucrt:libm_error.obj
 0002:0000f400       __real@3ff0000000000000    0045f400     libucrt:libm_error.obj
 0002:0000f410       ___acrt_log10_table_t      0045f410     libucrt:log10_tables.obj
 0002:0000f820       ___acrt_log10_table_cb     0045f820     libucrt:log10_tables.obj
 0002:0000fc30       __real@3fe0000000000000    0045fc30     libucrt:powhlp.obj
 0002:0000fd20       ??_C@_04COOMCNPB@sinh?$AA@ 0045fd20     libucrt:fpexcept.obj
 0002:0000fd28       ??_C@_04HPJJNFIM@cosh?$AA@ 0045fd28     libucrt:fpexcept.obj
 0002:0000fd30       ??_C@_04FJHINJAO@tanh?$AA@ 0045fd30     libucrt:fpexcept.obj
 0002:0000fd38       ??_C@_04MLLJIGOK@atan?$AA@ 0045fd38     libucrt:fpexcept.obj
 0002:0000fd40       ??_C@_05KNGEOGJB@atan2?$AA@ 0045fd40     libucrt:fpexcept.obj
 0002:0000fd48       ??_C@_03BLEJJJBH@sin?$AA@  0045fd48     libucrt:fpexcept.obj
 0002:0000fd4c       ??_C@_03LALBNOCG@cos?$AA@  0045fd4c     libucrt:fpexcept.obj
 0002:0000fd50       ??_C@_03IIINPABG@tan?$AA@  0045fd50     libucrt:fpexcept.obj
 0002:0000fd54       ??_C@_04GFPJNGEK@ceil?$AA@ 0045fd54     libucrt:fpexcept.obj
 0002:0000fd5c       ??_C@_05PBJFFIGL@floor?$AA@ 0045fd5c     libucrt:fpexcept.obj
 0002:0000fd64       ??_C@_04ODHECPBC@fabs?$AA@ 0045fd64     libucrt:fpexcept.obj
 0002:0000fd6c       ??_C@_04EHEDPDJG@modf?$AA@ 0045fd6c     libucrt:fpexcept.obj
 0002:0000fd74       ??_C@_05CEJMAHNP@ldexp?$AA@ 0045fd74     libucrt:fpexcept.obj
 0002:0000fd7c       ??_C@_05KBKMEMPO@_cabs?$AA@ 0045fd7c     libucrt:fpexcept.obj
 0002:0000fd84       ??_C@_06MEIMCGCF@_hypot?$AA@ 0045fd84     libucrt:fpexcept.obj
 0002:0000fd8c       ??_C@_04KEPJIHGP@fmod?$AA@ 0045fd8c     libucrt:fpexcept.obj
 0002:0000fd94       ??_C@_05GKKHEGJL@frexp?$AA@ 0045fd94     libucrt:fpexcept.obj
 0002:0000fd9c       ??_C@_03MJLDFKDL@_y0?$AA@  0045fd9c     libucrt:fpexcept.obj
 0002:0000fda0       ??_C@_03NAKIGLHK@_y1?$AA@  0045fda0     libucrt:fpexcept.obj
 0002:0000fda4       ??_C@_03ONILCKOB@_yn?$AA@  0045fda4     libucrt:fpexcept.obj
 0002:0000fda8       ??_C@_05JGDBENOH@_logb?$AA@ 0045fda8     libucrt:fpexcept.obj
 0002:0000fdb0       ??_C@_0L@KDOEJCKC@_nextafter?$AA@ 0045fdb0     libucrt:fpexcept.obj
 0002:0000fdc0       __d_inf                    0045fdc0     libucrt:util.obj
 0002:0000fdc8       __d_max                    0045fdc8     libucrt:util.obj
 0002:0000fdd0       __d_mzero                  0045fdd0     libucrt:util.obj
 0002:0000fe38       __load_config_used         0045fe38     LIBCMT:loadcfg.obj
 0002:0000fe94       __tls_used                 0045fe94     LIBCMT:tlssup.obj
 0002:0000feac       ??_R4exception@std@@6B@    0045feac     libvcruntime:frame.obj
 0002:0000fec0       ??_R3exception@std@@8      0045fec0     libvcruntime:frame.obj
 0002:0000fed0       ??_R2exception@std@@8      0045fed0     libvcruntime:frame.obj
 0002:0000fed8       ??_R1A@?0A@EA@exception@std@@8 0045fed8     libvcruntime:frame.obj
 0002:0000fef4       ??_R4bad_exception@std@@6B@ 0045fef4     libvcruntime:frame.obj
 0002:0000ff08       ??_R3bad_exception@std@@8  0045ff08     libvcruntime:frame.obj
 0002:0000ff18       ??_R2bad_exception@std@@8  0045ff18     libvcruntime:frame.obj
 0002:0000ff24       ??_R1A@?0A@EA@bad_exception@std@@8 0045ff24     libvcruntime:frame.obj
 0002:0000ff40       ??_R4type_info@@6B@        0045ff40     LIBCMT:std_type_info_static.obj
 0002:0000ff54       ??_R3type_info@@8          0045ff54     LIBCMT:std_type_info_static.obj
 0002:0000ff64       ??_R2type_info@@8          0045ff64     LIBCMT:std_type_info_static.obj
 0002:0000ff6c       ??_R1A@?0A@EA@type_info@@8 0045ff6c     LIBCMT:std_type_info_static.obj
 0002:0000ff90       ___safe_se_handler_table   0045ff90     <linker-defined>
 0002:00010588       ___rtc_iaa                 00460588     LIBCMT:_initsect_.obj
 0002:0001058c       ___rtc_izz                 0046058c     LIBCMT:_initsect_.obj
 0002:00010590       ___rtc_taa                 00460590     LIBCMT:_initsect_.obj
 0002:00010594       ___rtc_tzz                 00460594     LIBCMT:_initsect_.obj
 0002:00012674       __TI2?AVbad_exception@std@@ 00462674     libvcruntime:frame.obj
 0002:00012684       __CTA2?AVbad_exception@std@@ 00462684     libvcruntime:frame.obj
 0002:00012690       __CT??_R0?AVbad_exception@std@@@8??0bad_exception@std@@QAE@ABV01@@Z12 00462690     libvcruntime:frame.obj
 0002:000126ac       __CT??_R0?AVexception@std@@@8??0exception@std@@QAE@ABV01@@Z12 004626ac     libvcruntime:frame.obj
 0002:00012bcc       __IMPORT_DESCRIPTOR_PatcherLib 00462bcc     PatcherLib:PatcherLib.dll
 0002:00012be0       __IMPORT_DESCRIPTOR_KERNEL32 00462be0     kernel32:KERNEL32.dll
 0002:00012bf4       __IMPORT_DESCRIPTOR_SHELL32 00462bf4     shell32:SHELL32.dll
 0002:00012c08       __IMPORT_DESCRIPTOR_ADVAPI32 00462c08     advapi32:ADVAPI32.dll
 0002:00012c1c       __IMPORT_DESCRIPTOR_WS2_32 00462c1c     ws2_32:WS2_32.dll
 0002:00012c30       __NULL_IMPORT_DESCRIPTOR   00462c30     PatcherLib:PatcherLib.dll
 0003:00000000       __D12TypeInfo_xAa6__initZ  00464000     PatcherLibTestD.obj
 0003:0000000c       __D11TypeInfo_xk6__initZ   0046400c     PatcherLibTestD.obj
 0003:00000018       __D11TypeInfo_xb6__initZ   00464018     PatcherLibTestD.obj
 0003:00000030       __D75TypeInfo_S3std11concurrency36__T4ListTS3std11concurrency7MessageZ4List4Node6__initZ 00464030     PatcherLibTestD.obj
 0003:0000006c       __D77TypeInfo_xPS3std11concurrency36__T4ListTS3std11concurrency7MessageZ4List4Node6__initZ 0046406c     PatcherLibTestD.obj
 0003:00000078       __D77TypeInfo_PxS3std11concurrency36__T4ListTS3std11concurrency7MessageZ4List4Node6__initZ 00464078     PatcherLibTestD.obj
 0003:00000084       __D76TypeInfo_xS3std11concurrency36__T4ListTS3std11concurrency7MessageZ4List4Node6__initZ 00464084     PatcherLibTestD.obj
 0003:00000090       __D36TypeInfo_xS3std11concurrency7Message6__initZ 00464090     PatcherLibTestD.obj
 0003:000000a0       __D35TypeInfo_S3std11concurrency7Message6__initZ 004640a0     PatcherLibTestD.obj
 0003:000000dc       __D11TypeInfo_xa6__initZ   004640dc     phobos2-ldc:stdio.obj
 0003:000000f0       __D3std5stdio14StdioException7__ClassZ 004640f0     phobos2-ldc:stdio.obj
 0003:0000013c       __D3std5stdio21std_stdio_static_thisUZ9stdinImplS3std5stdio4File4Impl 0046413c     phobos2-ldc:stdio.obj
 0003:0000014c       __D3std5stdio21std_stdio_static_thisUZ10stdoutImplS3std5stdio4File4Impl 0046414c     phobos2-ldc:stdio.obj
 0003:0000015c       __D3std5stdio21std_stdio_static_thisUZ10stderrImplS3std5stdio4File4Impl 0046415c     phobos2-ldc:stdio.obj
 0003:0000016c       __D11TypeInfo_ya6__initZ   0046416c     phobos2-ldc:stdio.obj
 0003:0000019c       __D12TypeInfo_Axu6__initZ  0046419c     phobos2-ldc:stdio.obj
 0003:000001a8       __D11TypeInfo_xu6__initZ   004641a8     phobos2-ldc:stdio.obj
 0003:000001c0       __D53TypeInfo_S3std5array17__T8AppenderTAyaZ8Appender4Data6__initZ 004641c0     phobos2-ldc:stdio.obj
 0003:00000200       __D3std5stdio12__ModuleInfoZ 00464200     phobos2-ldc:stdio.obj
 0003:00000230       __D3std9exception14ErrnoException7__ClassZ 00464230     phobos2-ldc:exception.obj
 0003:00000280       __D3std9exception12__ModuleInfoZ 00464280     phobos2-ldc:exception.obj
 0003:000002b0       __D3std3utf12UTFException7__ClassZ 004642b0     phobos2-ldc:utf.obj
 0003:000002fc       __D11TypeInfo_yu6__initZ   004642fc     phobos2-ldc:utf.obj
 0003:00000310       __D3std3utf12__ModuleInfoZ 00464310     phobos2-ldc:utf.obj
 0003:00000330       __D13TypeInfo_AAya6__initZ 00464330     phobos2-ldc:uni.obj
 0003:0000033c       __D12TypeInfo_xAu6__initZ  0046433c     phobos2-ldc:uni.obj
 0003:00000350       __D3std3uni12__ModuleInfoZ 00464350     phobos2-ldc:uni.obj
 0003:00000410       __D3std7variant16VariantException7__ClassZ 00464410     phobos2-ldc:variant.obj
 0003:00000480       __D3std7variant12__ModuleInfoZ 00464480     phobos2-ldc:variant.obj
 0003:000004a4       __D36TypeInfo_xE3std11concurrency7MsgType6__initZ 004644a4     phobos2-ldc:concurrency.obj
 0003:000004b0       __D35TypeInfo_E3std11concurrency7MsgType6__initZ 004644b0     phobos2-ldc:concurrency.obj
 0003:000004cc       __D52TypeInfo_xS3std7variant18__T8VariantNVki16Z8VariantN6__initZ 004644cc     phobos2-ldc:concurrency.obj
 0003:000004e0       __D51TypeInfo_S3std7variant18__T8VariantNVki16Z8VariantN6__initZ 004644e0     phobos2-ldc:concurrency.obj
 0003:00000520       __D3std11concurrency15MessageMismatch7__ClassZ 00464520     phobos2-ldc:concurrency.obj
 0003:00000570       __D3std11concurrency15OwnerTerminated7__ClassZ 00464570     phobos2-ldc:concurrency.obj
 0003:000005c0       __D3std11concurrency14LinkTerminated7__ClassZ 004645c0     phobos2-ldc:concurrency.obj
 0003:00000610       __D3std11concurrency24PriorityMessageException7__ClassZ 00464610     phobos2-ldc:concurrency.obj
 0003:00000660       __D3std11concurrency11MailboxFull7__ClassZ 00464660     phobos2-ldc:concurrency.obj
 0003:000006b0       __D3std11concurrency19TidMissingException7__ClassZ 004646b0     phobos2-ldc:concurrency.obj
 0003:00000700       __D31TypeInfo_S3std11concurrency3Tid6__initZ 00464700     phobos2-ldc:concurrency.obj
 0003:0000073c       __D40TypeInfo_xC3std11concurrency10MessageBox6__initZ 0046473c     phobos2-ldc:concurrency.obj
 0003:00000750       __D3std11concurrency10MessageBox7__ClassZ 00464750     phobos2-ldc:concurrency.obj
 0003:0000079c       __D32TypeInfo_xS3std11concurrency3Tid6__initZ 0046479c     phobos2-ldc:concurrency.obj
 0003:000007b0       __D3std11concurrency9Scheduler11__InterfaceZ 004647b0     phobos2-ldc:concurrency.obj
 0003:00000800       __D3std11concurrency15ThreadScheduler7__ClassZ 00464800     phobos2-ldc:concurrency.obj
 0003:00000850       __D3std11concurrency14FiberScheduler9InfoFiber7__ClassZ 00464850     phobos2-ldc:concurrency.obj
 0003:000008a0       __D3std11concurrency14FiberScheduler14FiberCondition7__ClassZ 004648a0     phobos2-ldc:concurrency.obj
 0003:000008ec       __D29TypeInfo_AC4core6thread5Fiber6__initZ 004648ec     phobos2-ldc:concurrency.obj
 0003:00000900       __D3std11concurrency14FiberScheduler7__ClassZ 00464900     phobos2-ldc:concurrency.obj
 0003:0000094c       __D32TypeInfo_AS3std11concurrency3Tid6__initZ 0046494c     phobos2-ldc:concurrency.obj
 0003:00000960       __D3std11concurrency12__ModuleInfoZ 00464960     phobos2-ldc:concurrency.obj
 0003:000009c0       __D3std8datetime5Clock7__ClassZ 004649c0     phobos2-ldc:datetime.obj
 0003:00000a30       __D3std8datetime8TimeZone7__ClassZ 00464a30     phobos2-ldc:datetime.obj
 0003:00000a80       __D3std8datetime9LocalTime7__ClassZ 00464a80     phobos2-ldc:datetime.obj
 0003:00000af0       __D3std8datetime3UTC7__ClassZ 00464af0     phobos2-ldc:datetime.obj
 0003:00000b40       __D3std8datetime14SimpleTimeZone7__ClassZ 00464b40     phobos2-ldc:datetime.obj
 0003:00000b90       __D3std8datetime13PosixTimeZone7__ClassZ 00464b90     phobos2-ldc:datetime.obj
 0003:00000be0       __D3std8datetime15WindowsTimeZone7__ClassZ 00464be0     phobos2-ldc:datetime.obj
 0003:00000c30       __D3std8datetime12__ModuleInfoZ 00464c30     phobos2-ldc:datetime.obj
 0003:00000ca0       __D3std4file13FileException7__ClassZ 00464ca0     phobos2-ldc:file.obj
 0003:00000cf0       __D3std4file12__ModuleInfoZ 00464cf0     phobos2-ldc:file.obj
 0003:00000d50       __D3std8internal7cstring12__ModuleInfoZ 00464d50     phobos2-ldc:cstring.obj
 0003:00000d80       __D3std7windows8syserror16WindowsException7__ClassZ 00464d80     phobos2-ldc:syserror.obj
 0003:00000dd0       __D3std7windows8syserror12__ModuleInfoZ 00464dd0     phobos2-ldc:syserror.obj
 0003:00000e00       __D3std6format15FormatException7__ClassZ 00464e00     phobos2-ldc:format.obj
 0003:00000e50       __D3std6format12__ModuleInfoZ 00464e50     phobos2-ldc:format.obj
 0003:00000e80       __D3std4conv13ConvException7__ClassZ 00464e80     phobos2-ldc:conv.obj
 0003:00000ed0       __D3std4conv21ConvOverflowException7__ClassZ 00464ed0     phobos2-ldc:conv.obj
 0003:00000f20       __D3std4conv12__ModuleInfoZ 00464f20     phobos2-ldc:conv.obj
 0003:00000f50       __D3std9stdiobase12__ModuleInfoZ 00464f50     phobos2-ldc:stdiobase.obj
 0003:00000f80       __D3std8internal14unicode_tables12__ModuleInfoZ 00464f80     phobos2-ldc:unicode_tables.obj
 0003:00000fb0       __D3std8internal12unicode_comp12__ModuleInfoZ 00464fb0     phobos2-ldc:unicode_comp.obj
 0003:00000fe0       __D3std5ascii12__ModuleInfoZ 00464fe0     phobos2-ldc:ascii.obj
 0003:00001000       __D3std5range12__ModuleInfoZ 00465000     phobos2-ldc:package.obj
 0003:00001020       __D3std5array12__ModuleInfoZ 00465020     phobos2-ldc:array.obj
 0003:00001040       __D3std10functional12__ModuleInfoZ 00465040     phobos2-ldc:functional.obj
 0003:00001070       __D3std15concurrencybase12__ModuleInfoZ 00465070     phobos2-ldc:concurrencybase.obj
 0003:000010a0       __D3std12experimental6logger10filelogger10FileLogger7__ClassZ 004650a0     phobos2-ldc:filelogger.obj
 0003:000010f0       __D3std12experimental6logger10filelogger12__ModuleInfoZ 004650f0     phobos2-ldc:filelogger.obj
 0003:00001140       __D3std6socket15SocketException7__ClassZ 00465140     phobos2-ldc:socket.obj
 0003:00001190       __D3std6socket17SocketOSException7__ClassZ 00465190     phobos2-ldc:socket.obj
 0003:000011e0       __D3std6socket24SocketParameterException7__ClassZ 004651e0     phobos2-ldc:socket.obj
 0003:00001230       __D3std6socket22SocketFeatureException7__ClassZ 00465230     phobos2-ldc:socket.obj
 0003:00001280       __D3std6socket8Protocol7__ClassZ 00465280     phobos2-ldc:socket.obj
 0003:000012d0       __D3std6socket7Service7__ClassZ 004652d0     phobos2-ldc:socket.obj
 0003:00001320       __D3std6socket13HostException7__ClassZ 00465320     phobos2-ldc:socket.obj
 0003:00001370       __D3std6socket12InternetHost7__ClassZ 00465370     phobos2-ldc:socket.obj
 0003:000013c0       __D3std6socket7Address7__ClassZ 004653c0     phobos2-ldc:socket.obj
 0003:00001410       __D3std6socket23UnknownAddressReference7__ClassZ 00465410     phobos2-ldc:socket.obj
 0003:00001460       __D3std6socket16AddressException7__ClassZ 00465460     phobos2-ldc:socket.obj
 0003:000014b0       __D3std6socket15InternetAddress7__ClassZ 004654b0     phobos2-ldc:socket.obj
 0003:00001530       __D3std6socket14UnknownAddress7__ClassZ 00465530     phobos2-ldc:socket.obj
 0003:00001580       __D3std6socket16Internet6Address7__ClassZ 00465580     phobos2-ldc:socket.obj
 0003:000015d0       __D3std6socket21SocketAcceptException7__ClassZ 004655d0     phobos2-ldc:socket.obj
 0003:00001620       __D3std6socket9SocketSet7__ClassZ 00465620     phobos2-ldc:socket.obj
 0003:00001670       __D3std6socket6Socket7__ClassZ 00465670     phobos2-ldc:socket.obj
 0003:000016e0       __D3std6socket9TcpSocket7__ClassZ 004656e0     phobos2-ldc:socket.obj
 0003:00001730       __D3std6socket9UdpSocket7__ClassZ 00465730     phobos2-ldc:socket.obj
 0003:00001780       __D3std6socket12__ModuleInfoZ 00465780     phobos2-ldc:socket.obj
 0003:00001800       __D3std7windows8registry17RegistryException7__ClassZ 00465800     phobos2-ldc:registry.obj
 0003:00001850       __D3std7windows8registry14Win32Exception7__ClassZ 00465850     phobos2-ldc:registry.obj
 0003:0000189c       __D12TypeInfo_Ayu6__initZ  0046589c     phobos2-ldc:registry.obj
 0003:000018b0       __D3std7windows8registry11KeySequence7__ClassZ 004658b0     phobos2-ldc:registry.obj
 0003:00001900       __D3std7windows8registry15KeyNameSequence7__ClassZ 00465900     phobos2-ldc:registry.obj
 0003:00001950       __D3std7windows8registry13ValueSequence7__ClassZ 00465950     phobos2-ldc:registry.obj
 0003:000019a0       __D3std7windows8registry17ValueNameSequence7__ClassZ 004659a0     phobos2-ldc:registry.obj
 0003:000019f0       __D3std7windows8registry3Key7__ClassZ 004659f0     phobos2-ldc:registry.obj
 0003:00001a40       __D3std7windows8registry5Value7__ClassZ 00465a40     phobos2-ldc:registry.obj
 0003:00001a8c       __D13TypeInfo_AAyu6__initZ 00465a8c     phobos2-ldc:registry.obj
 0003:00001aa0       __D3std7windows8registry8Registry7__ClassZ 00465aa0     phobos2-ldc:registry.obj
 0003:00001b20       __D12TypeInfo_AAu6__initZ  00465b20     phobos2-ldc:registry.obj
 0003:00001b30       __D53TypeInfo_S3std5array17__T8AppenderTAAuZ8Appender4Data6__initZ 00465b30     phobos2-ldc:registry.obj
 0003:00001b6c       __D13TypeInfo_AxAu6__initZ 00465b6c     phobos2-ldc:registry.obj
 0003:00001b78       __D13TypeInfo_xAAu6__initZ 00465b78     phobos2-ldc:registry.obj
 0003:00001b90       __D3std7windows8registry12__ModuleInfoZ 00465b90     phobos2-ldc:registry.obj
 0003:00001bf0       __D3std8bitmanip12__ModuleInfoZ 00465bf0     phobos2-ldc:bitmanip.obj
 0003:00001c10       __D3std4path12__ModuleInfoZ 00465c10     phobos2-ldc:path.obj
 0003:00001c40       __D3std7process3Pid7__ClassZ 00465c40     phobos2-ldc:process.obj
 0003:00001c90       __D3std7process16ProcessException7__ClassZ 00465c90     phobos2-ldc:process.obj
 0003:00001ce0       __D3std7process11environment7__ClassZ 00465ce0     phobos2-ldc:process.obj
 0003:00001d30       __D3std7process12__ModuleInfoZ 00465d30     phobos2-ldc:process.obj
 0003:00001d70       __D3std12experimental6logger4core6Logger7__ClassZ 00465d70     phobos2-ldc:core.obj
 0003:00001dbc       __D3std12experimental6logger4core23stdLoggerGlobalLogLevelOE3std12experimental6logger4core8LogLevel 00465dbc     phobos2-ldc:core.obj
 0003:00001dc0       __D3std12experimental6logger4core16StdForwardLogger7__ClassZ 00465dc0     phobos2-ldc:core.obj
 0003:00001e10       __D3std12experimental6logger4core10TestLogger7__ClassZ 00465e10     phobos2-ldc:core.obj
 0003:00001e60       __D3std12experimental6logger4core12__ModuleInfoZ 00465e60     phobos2-ldc:core.obj
 0003:00001ec0       __D3std6string15StringException7__ClassZ 00465ec0     phobos2-ldc:string.obj
 0003:00001f10       __D3std6string12__ModuleInfoZ 00465f10     phobos2-ldc:string.obj
 0003:00001f40       __D3std8internal7windows8advapi3212__ModuleInfoZ 00465f40     phobos2-ldc:advapi32.obj
 0003:00001f80       __D3std6random12__ModuleInfoZ 00465f80     phobos2-ldc:random.obj
 0003:00001fb0       __D2rt6aApply12__ModuleInfoZ 00465fb0     druntime-ldc:aApply.obj
 0003:00001fd0       __D2rt8lifetime20ArrayAllocLengthLock7__ClassZ 00465fd0     druntime-ldc:lifetime.obj
 0003:0000203c       __D12TypeInfo_OAa6__initZ  0046603c     druntime-ldc:lifetime.obj
 0003:00002048       __D12TypeInfo_AOa6__initZ  00466048     druntime-ldc:lifetime.obj
 0003:00002054       __D11TypeInfo_Oa6__initZ   00466054     druntime-ldc:lifetime.obj
 0003:00002060       __D2rt8lifetime12__ModuleInfoZ 00466060     druntime-ldc:lifetime.obj
 0003:00002090       __D37TypeInfo_S3ldc2eh4msvc13CatchableType6__initZ 00466090     druntime-ldc:msvc.obj
 0003:000020d0       __D34TypeInfo_S3ldc2eh4msvc10_ThrowInfo6__initZ 004660d0     druntime-ldc:msvc.obj
 0003:00002110       __D36TypeInfo_S3ldc2eh4msvc12FiberContext6__initZ 00466110     druntime-ldc:msvc.obj
 0003:00002150       __D108TypeInfo_S2rt4util9container7hashtab57__T7HashTabTC14TypeInfo_ClassTPS3ldc2eh4msvc10_ThrowInfoZ7HashTab4Node6__initZ 00466150     druntime-ldc:msvc.obj
 0003:0000218c       __D27TypeInfo_xC14TypeInfo_Class6__initZ 0046618c     druntime-ldc:msvc.obj
 0003:00002198       __D36TypeInfo_xPS3ldc2eh4msvc10_ThrowInfo6__initZ 00466198     druntime-ldc:msvc.obj
 0003:000021a4       __D36TypeInfo_PxS3ldc2eh4msvc10_ThrowInfo6__initZ 004661a4     druntime-ldc:msvc.obj
 0003:000021b0       __D35TypeInfo_xS3ldc2eh4msvc10_ThrowInfo6__initZ 004661b0     druntime-ldc:msvc.obj
 0003:000021bc       __D110TypeInfo_xPS2rt4util9container7hashtab57__T7HashTabTC14TypeInfo_ClassTPS3ldc2eh4msvc10_ThrowInfoZ7HashTab4Node6__initZ 004661bc     druntime-ldc:msvc.obj
 0003:000021c8       __D110TypeInfo_PxS2rt4util9container7hashtab57__T7HashTabTC14TypeInfo_ClassTPS3ldc2eh4msvc10_ThrowInfoZ7HashTab4Node6__initZ 004661c8     druntime-ldc:msvc.obj
 0003:000021d4       __D109TypeInfo_xS2rt4util9container7hashtab57__T7HashTabTC14TypeInfo_ClassTPS3ldc2eh4msvc10_ThrowInfoZ7HashTab4Node6__initZ 004661d4     druntime-ldc:msvc.obj
 0003:000021e0       __D111TypeInfo_S2rt4util9container7hashtab60__T7HashTabTC14TypeInfo_ClassTPS3ldc2eh4msvc13CatchableTypeZ7HashTab4Node6__initZ 004661e0     druntime-ldc:msvc.obj
 0003:0000221c       __D39TypeInfo_xPS3ldc2eh4msvc13CatchableType6__initZ 0046621c     druntime-ldc:msvc.obj
 0003:00002228       __D39TypeInfo_PxS3ldc2eh4msvc13CatchableType6__initZ 00466228     druntime-ldc:msvc.obj
 0003:00002234       __D38TypeInfo_xS3ldc2eh4msvc13CatchableType6__initZ 00466234     druntime-ldc:msvc.obj
 0003:00002240       __D113TypeInfo_xPS2rt4util9container7hashtab60__T7HashTabTC14TypeInfo_ClassTPS3ldc2eh4msvc13CatchableTypeZ7HashTab4Node6__initZ 00466240     druntime-ldc:msvc.obj
 0003:0000224c       __D113TypeInfo_PxS2rt4util9container7hashtab60__T7HashTabTC14TypeInfo_ClassTPS3ldc2eh4msvc13CatchableTypeZ7HashTab4Node6__initZ 0046624c     druntime-ldc:msvc.obj
 0003:00002258       __D112TypeInfo_xS2rt4util9container7hashtab60__T7HashTabTC14TypeInfo_ClassTPS3ldc2eh4msvc13CatchableTypeZ7HashTab4Node6__initZ 00466258     druntime-ldc:msvc.obj
 0003:00002270       __D3ldc2eh4msvc12__ModuleInfoZ 00466270     druntime-ldc:msvc.obj
 0003:000022a0       __D4core9exception10RangeError7__ClassZ 004662a0     druntime-ldc:exception.obj
 0003:000022f0       __D4core9exception11AssertError7__ClassZ 004662f0     druntime-ldc:exception.obj
 0003:00002340       __D4core9exception13FinalizeError7__ClassZ 00466340     druntime-ldc:exception.obj
 0003:00002390       __D4core9exception15HiddenFuncError7__ClassZ 00466390     druntime-ldc:exception.obj
 0003:000023e0       __D4core9exception16OutOfMemoryError7__ClassZ 004663e0     druntime-ldc:exception.obj
 0003:00002430       __D4core9exception27InvalidMemoryOperationError7__ClassZ 00466430     druntime-ldc:exception.obj
 0003:00002480       __D4core9exception11SwitchError7__ClassZ 00466480     druntime-ldc:exception.obj
 0003:000024d0       __D4core9exception16UnicodeException7__ClassZ 004664d0     druntime-ldc:exception.obj
 0003:00002530       __D4core9exception17SuppressTraceInfo7__ClassZ 00466530     druntime-ldc:exception.obj
 0003:00002580       __D4core9exception12__ModuleInfoZ 00466580     druntime-ldc:exception.obj
 0003:000025c8       __D2rt3adi12__ModuleInfoZ  004665c8     druntime-ldc:adi.obj
 0003:000025e0       __D11TypeInfo_Ag7__ClassZ  004665e0     druntime-ldc:ti_Ag.obj
 0003:00002630       __D11TypeInfo_Ah7__ClassZ  00466630     druntime-ldc:ti_Ag.obj
 0003:00002680       __D11TypeInfo_Av7__ClassZ  00466680     druntime-ldc:ti_Ag.obj
 0003:000026d0       __D11TypeInfo_Ab7__ClassZ  004666d0     druntime-ldc:ti_Ag.obj
 0003:00002720       __D11TypeInfo_Aa7__ClassZ  00466720     druntime-ldc:ti_Ag.obj
 0003:00002770       __D12TypeInfo_Aya7__ClassZ 00466770     druntime-ldc:ti_Ag.obj
 0003:000027c0       __D12TypeInfo_Axa7__ClassZ 004667c0     druntime-ldc:ti_Ag.obj
 0003:00002810       __D2rt8typeinfo5ti_Ag12__ModuleInfoZ 00466810     druntime-ldc:ti_Ag.obj
 0003:00002860       __D9Exception7__ClassZ     00466860     druntime-ldc:object.obj
 0003:000028b0       __D6object6Object7Monitor11__InterfaceZ 004668b0     druntime-ldc:object.obj
 0003:00002900       __D6Object7__ClassZ        00466900     druntime-ldc:object.obj
 0003:00002950       __D14TypeInfo_Class7__ClassZ 00466950     druntime-ldc:object.obj
 0003:000029a0       __D8TypeInfo7__ClassZ      004669a0     druntime-ldc:object.obj
 0003:000029f0       __D6object9Throwable7__ClassZ 004669f0     druntime-ldc:object.obj
 0003:00002a60       __D16TypeInfo_Typedef7__ClassZ 00466a60     druntime-ldc:object.obj
 0003:00002ab0       __D13TypeInfo_Enum7__ClassZ 00466ab0     druntime-ldc:object.obj
 0003:00002b00       __D16TypeInfo_Pointer7__ClassZ 00466b00     druntime-ldc:object.obj
 0003:00002b50       __D14TypeInfo_Array7__ClassZ 00466b50     druntime-ldc:object.obj
 0003:00002ba0       __D20TypeInfo_StaticArray7__ClassZ 00466ba0     druntime-ldc:object.obj
 0003:00002bf0       __D25TypeInfo_AssociativeArray7__ClassZ 00466bf0     druntime-ldc:object.obj
 0003:00002c40       __D15TypeInfo_Vector7__ClassZ 00466c40     druntime-ldc:object.obj
 0003:00002c90       __D17TypeInfo_Function7__ClassZ 00466c90     druntime-ldc:object.obj
 0003:00002ce0       __D17TypeInfo_Delegate7__ClassZ 00466ce0     druntime-ldc:object.obj
 0003:00002d30       __D18TypeInfo_Interface7__ClassZ 00466d30     druntime-ldc:object.obj
 0003:00002d80       __D15TypeInfo_Struct7__ClassZ 00466d80     druntime-ldc:object.obj
 0003:00002dd0       __D14TypeInfo_Tuple7__ClassZ 00466dd0     druntime-ldc:object.obj
 0003:00002e20       __D14TypeInfo_Const7__ClassZ 00466e20     druntime-ldc:object.obj
 0003:00002e70       __D18TypeInfo_Invariant7__ClassZ 00466e70     druntime-ldc:object.obj
 0003:00002ec0       __D15TypeInfo_Shared7__ClassZ 00466ec0     druntime-ldc:object.obj
 0003:00002f10       __D14TypeInfo_Inout7__ClassZ 00466f10     druntime-ldc:object.obj
 0003:00002f60       __D6object9Throwable9TraceInfo11__InterfaceZ 00466f60     druntime-ldc:object.obj
 0003:00002fb0       __D6object5Error7__ClassZ  00466fb0     druntime-ldc:object.obj
 0003:00003000       __D6object19__cpp_type_info_ptr7__ClassZ 00467000     druntime-ldc:object.obj
 0003:00003050       __D6object12__ModuleInfoZ  00467050     druntime-ldc:object.obj
 0003:000030c8       _rt_trapExceptions         004670c8     druntime-ldc:dmain2.obj
 0003:000030f0       __D2rt6dmain212__ModuleInfoZ 004670f0     druntime-ldc:dmain2.obj
 0003:00003110       __D10TypeInfo_k7__ClassZ   00467110     druntime-ldc:ti_uint.obj
 0003:00003160       __D2rt8typeinfo7ti_uint12__ModuleInfoZ 00467160     druntime-ldc:ti_uint.obj
 0003:00003190       __D10TypeInfo_h7__ClassZ   00467190     druntime-ldc:ti_ubyte.obj
 0003:000031e0       __D10TypeInfo_b7__ClassZ   004671e0     druntime-ldc:ti_ubyte.obj
 0003:00003230       __D2rt8typeinfo8ti_ubyte12__ModuleInfoZ 00467230     druntime-ldc:ti_ubyte.obj
 0003:00003270       __D4core4stdc6wchar_12__ModuleInfoZ 00467270     druntime-ldc:wchar_.obj
 0003:00003294       __D2rt8typeinfo7ti_char10TypeInfo_a11initializerMxFNaNbNeZ1cya 00467294     druntime-ldc:ti_char.obj
 0003:000032a0       __D10TypeInfo_a7__ClassZ   004672a0     druntime-ldc:ti_char.obj
 0003:000032f0       __D2rt8typeinfo7ti_char12__ModuleInfoZ 004672f0     druntime-ldc:ti_char.obj
 0003:00003320       __D4core4stdc5errno12__ModuleInfoZ 00467320     druntime-ldc:errno.obj
 0003:00003340       __D4core4stdc5stdio12__ModuleInfoZ 00467340     druntime-ldc:stdio.obj
 0003:00003360       __D4core5bitop12__ModuleInfoZ 00467360     druntime-ldc:bitop.obj
 0003:00003390       __D3ldc9arrayinit12__ModuleInfoZ 00467390     druntime-ldc:arrayinit.obj
 0003:000033b0       __D4core6memory12__ModuleInfoZ 004673b0     druntime-ldc:memory.obj
 0003:000033d0       __D2rt12sections_ldc12__ModuleInfoZ 004673d0     druntime-ldc:sections_ldc.obj
 0003:000033f0       __D2rt8typeinfo8ti_dchar10TypeInfo_w11initializerMxFNaNbNeZ1cyw 004673f0     druntime-ldc:ti_dchar.obj
 0003:00003400       __D10TypeInfo_w7__ClassZ   00467400     druntime-ldc:ti_dchar.obj
 0003:00003450       __D2rt8typeinfo8ti_dchar12__ModuleInfoZ 00467450     druntime-ldc:ti_dchar.obj
 0003:00003480       __D2rt8typeinfo8ti_wchar10TypeInfo_u11initializerMxFNaNbNeZ1cyu 00467480     druntime-ldc:ti_wchar.obj
 0003:00003490       __D10TypeInfo_u7__ClassZ   00467490     druntime-ldc:ti_wchar.obj
 0003:000034e0       __D2rt8typeinfo8ti_wchar12__ModuleInfoZ 004674e0     druntime-ldc:ti_wchar.obj
 0003:00003510       __D10TypeInfo_t7__ClassZ   00467510     druntime-ldc:ti_ushort.obj
 0003:00003560       __D2rt8typeinfo9ti_ushort12__ModuleInfoZ 00467560     druntime-ldc:ti_ushort.obj
 0003:00003590       __D4core8internal6string12__ModuleInfoZ 00467590     druntime-ldc:string.obj
 0003:000035c0       __D11TypeInfo_As7__ClassZ  004675c0     druntime-ldc:ti_Ashort.obj
 0003:00003610       __D11TypeInfo_At7__ClassZ  00467610     druntime-ldc:ti_Ashort.obj
 0003:00003660       __D11TypeInfo_Au7__ClassZ  00467660     druntime-ldc:ti_Ashort.obj
 0003:000036b0       __D2rt8typeinfo9ti_Ashort12__ModuleInfoZ 004676b0     druntime-ldc:ti_Ashort.obj
 0003:000036f0       __D11TypeInfo_Ai7__ClassZ  004676f0     druntime-ldc:ti_Aint.obj
 0003:00003740       __D11TypeInfo_Ak7__ClassZ  00467740     druntime-ldc:ti_Aint.obj
 0003:00003790       __D11TypeInfo_Aw7__ClassZ  00467790     druntime-ldc:ti_Aint.obj
 0003:000037e0       __D2rt8typeinfo7ti_Aint12__ModuleInfoZ 004677e0     druntime-ldc:ti_Aint.obj
 0003:00003820       __D10TypeInfo_i7__ClassZ   00467820     druntime-ldc:ti_int.obj
 0003:00003870       __D2rt8typeinfo6ti_int12__ModuleInfoZ 00467870     druntime-ldc:ti_int.obj
 0003:000038a0       __D10TypeInfo_v7__ClassZ   004678a0     druntime-ldc:ti_void.obj
 0003:000038f0       __D2rt8typeinfo7ti_void12__ModuleInfoZ 004678f0     druntime-ldc:ti_void.obj
 0003:00003920       __D2rt3aaA12__ModuleInfoZ  00467920     druntime-ldc:aaA.obj
 0003:00003960       __D4core4sync5mutex5Mutex7__ClassZ 00467960     druntime-ldc:mutex.obj
 0003:000039b0       __D4core4sync5mutex12__ModuleInfoZ 004679b0     druntime-ldc:mutex.obj
 0003:00003a00       __D4core4sync9condition9Condition7__ClassZ 00467a00     druntime-ldc:condition.obj
 0003:00003a50       __D4core4sync9condition12__ModuleInfoZ 00467a50     druntime-ldc:condition.obj
 0003:00003a90       __D2rt8monitor_12__ModuleInfoZ 00467a90     druntime-ldc:monitor_.obj
 0003:00003ab0       __D4core6thread15ThreadException7__ClassZ 00467ab0     druntime-ldc:thread.obj
 0003:00003b00       __D4core6thread11ThreadError7__ClassZ 00467b00     druntime-ldc:thread.obj
 0003:00003b70       __D4core6thread6Thread7__ClassZ 00467b70     druntime-ldc:thread.obj
 0003:00003bc0       __D37TypeInfo_S4core6thread6Thread7Context6__initZ 00467bc0     druntime-ldc:thread.obj
 0003:00003bfc       __D4core6thread13onThreadErrorFNbAyaC6object9ThrowableZ5errorC4core6thread11ThreadError 00467bfc     druntime-ldc:thread.obj
 0003:00003c30       __D4core6thread11ThreadGroup7__ClassZ 00467c30     druntime-ldc:thread.obj
 0003:00003c80       __D4core6thread5Fiber7__ClassZ 00467c80     druntime-ldc:thread.obj
 0003:00003cd0       __D4core6thread12__ModuleInfoZ 00467cd0     druntime-ldc:thread.obj
 0003:00003d20       __D2rt5cast_12__ModuleInfoZ 00467d20     druntime-ldc:cast_.obj
 0003:00003d40       __D4core4time13TimeException7__ClassZ 00467d40     druntime-ldc:time.obj
 0003:00003d90       __D4core4time12__ModuleInfoZ 00467d90     druntime-ldc:time.obj
 0003:00003dc0       __D2rt7switch_12__ModuleInfoZ 00467dc0     druntime-ldc:switch_.obj
 0003:00003de0       __D4core3sys7windows7winbase12__ModuleInfoZ 00467de0     druntime-ldc:winbase.obj
 0003:00003e10       __D2rt7aApplyR12__ModuleInfoZ 00467e10     druntime-ldc:aApplyR.obj
 0003:00003e30       __D11TypeInfo_Al7__ClassZ  00467e30     druntime-ldc:ti_Along.obj
 0003:00003e80       __D11TypeInfo_Am7__ClassZ  00467e80     druntime-ldc:ti_Along.obj
 0003:00003ed0       __D2rt8typeinfo8ti_Along12__ModuleInfoZ 00467ed0     druntime-ldc:ti_Along.obj
 0003:00003f10       __D10TypeInfo_l7__ClassZ   00467f10     druntime-ldc:ti_long.obj
 0003:00003f60       __D2rt8typeinfo7ti_long12__ModuleInfoZ 00467f60     druntime-ldc:ti_long.obj
 0003:00003f90       __D10TypeInfo_m7__ClassZ   00467f90     druntime-ldc:ti_ulong.obj
 0003:00003fe0       __D2rt8typeinfo8ti_ulong12__ModuleInfoZ 00467fe0     druntime-ldc:ti_ulong.obj
 0003:00004010       __D4core3sys7windows5winnt12__ModuleInfoZ 00468010     druntime-ldc:winnt.obj
 0003:00004040       __D10TypeInfo_g7__ClassZ   00468040     druntime-ldc:ti_byte.obj
 0003:00004090       __D2rt8typeinfo7ti_byte12__ModuleInfoZ 00468090     druntime-ldc:ti_byte.obj
 0003:000040c0       __D10TypeInfo_s7__ClassZ   004680c0     druntime-ldc:ti_short.obj
 0003:00004110       __D2rt8typeinfo8ti_short12__ModuleInfoZ 00468110     druntime-ldc:ti_short.obj
 0003:00004140       __D2rt8typeinfo8ti_float10TypeInfo_f11initializerMxFNaNbNeZ1ryf 00468140     druntime-ldc:ti_float.obj
 0003:00004150       __D10TypeInfo_f7__ClassZ   00468150     druntime-ldc:ti_float.obj
 0003:000041a0       __D2rt8typeinfo8ti_float12__ModuleInfoZ 004681a0     druntime-ldc:ti_float.obj
 0003:000041d0       __D2rt8typeinfo9ti_double10TypeInfo_d11initializerMxFNaNbNeZ1ryd 004681d0     druntime-ldc:ti_double.obj
 0003:000041e0       __D10TypeInfo_d7__ClassZ   004681e0     druntime-ldc:ti_double.obj
 0003:00004230       __D2rt8typeinfo9ti_double12__ModuleInfoZ 00468230     druntime-ldc:ti_double.obj
 0003:00004260       __D2rt8typeinfo7ti_real10TypeInfo_e11initializerMxFNaNbNeZ1rye 00468260     druntime-ldc:ti_real.obj
 0003:00004270       __D10TypeInfo_e7__ClassZ   00468270     druntime-ldc:ti_real.obj
 0003:000042c0       __D2rt8typeinfo7ti_real12__ModuleInfoZ 004682c0     druntime-ldc:ti_real.obj
 0003:000042f0       __D10TypeInfo_o7__ClassZ   004682f0     druntime-ldc:ti_ifloat.obj
 0003:00004340       __D2rt8typeinfo9ti_ifloat12__ModuleInfoZ 00468340     druntime-ldc:ti_ifloat.obj
 0003:00004370       __D10TypeInfo_p7__ClassZ   00468370     druntime-ldc:ti_idouble.obj
 0003:000043c0       __D2rt8typeinfo10ti_idouble12__ModuleInfoZ 004683c0     druntime-ldc:ti_idouble.obj
 0003:000043f0       __D10TypeInfo_j7__ClassZ   004683f0     druntime-ldc:ti_ireal.obj
 0003:00004440       __D2rt8typeinfo8ti_ireal12__ModuleInfoZ 00468440     druntime-ldc:ti_ireal.obj
 0003:00004470       __D2rt8typeinfo9ti_cfloat10TypeInfo_q11initializerMxFNaNbNeZ1ryq 00468470     druntime-ldc:ti_cfloat.obj
 0003:00004480       __D10TypeInfo_q7__ClassZ   00468480     druntime-ldc:ti_cfloat.obj
 0003:000044d0       __D2rt8typeinfo9ti_cfloat12__ModuleInfoZ 004684d0     druntime-ldc:ti_cfloat.obj
 0003:00004500       __D2rt8typeinfo10ti_cdouble10TypeInfo_r11initializerMxFNaNbNeZ1ryr 00468500     druntime-ldc:ti_cdouble.obj
 0003:00004510       __D10TypeInfo_r7__ClassZ   00468510     druntime-ldc:ti_cdouble.obj
 0003:00004560       __D2rt8typeinfo10ti_cdouble12__ModuleInfoZ 00468560     druntime-ldc:ti_cdouble.obj
 0003:00004590       __D2rt8typeinfo8ti_creal10TypeInfo_c11initializerMxFNaNbNeZ1ryc 00468590     druntime-ldc:ti_creal.obj
 0003:000045a0       __D10TypeInfo_c7__ClassZ   004685a0     druntime-ldc:ti_creal.obj
 0003:000045f0       __D2rt8typeinfo8ti_creal12__ModuleInfoZ 004685f0     druntime-ldc:ti_creal.obj
 0003:00004620       __D4core3sys7windows8winsock212__ModuleInfoZ 00468620     druntime-ldc:winsock2.obj
 0003:00004650       __D2rt4util3utf12__ModuleInfoZ 00468650     druntime-ldc:utf.obj
 0003:0000466c       __rt_cmdline_enabled       0046866c     druntime-ldc:config.obj
 0003:00004670       __rt_options               00468670     druntime-ldc:config.obj
 0003:00004680       __D2rt6config12__ModuleInfoZ 00468680     druntime-ldc:config.obj
 0003:000046a0       __D2rt5tlsgc12__ModuleInfoZ 004686a0     druntime-ldc:tlsgc.obj
 0003:000046d0       __D3ldc2eh6common12__ModuleInfoZ 004686d0     druntime-ldc:common.obj
 0003:000046f0       __D2rt4util9container6common12__ModuleInfoZ 004686f0     druntime-ldc:common.obj
 0003:00004720       __D2rt4util4hash12__ModuleInfoZ 00468720     druntime-ldc:hash.obj
 0003:00004740       __D2rt5qsort12__ModuleInfoZ 00468740     druntime-ldc:qsort.obj
 0003:00004760       __D2rt5minfo12__ModuleInfoZ 00468760     druntime-ldc:minfo.obj
 0003:00004780       __D4core8internal4hash12__ModuleInfoZ 00468780     druntime-ldc:hash.obj
 0003:000047a4       __D2gc5proxy3_gcS2gc2gc2GC 004687a4     druntime-ldc:proxy.obj
 0003:000047b0       __D2gc5proxy12__ModuleInfoZ 004687b0     druntime-ldc:proxy.obj
 0003:000047e0       __D2rt9critical_12__ModuleInfoZ 004687e0     druntime-ldc:critical_.obj
 0003:00004800       __D2rt6memory12__ModuleInfoZ 00468800     druntime-ldc:memory.obj
 0003:00004840       __D4core7runtime12__ModuleInfoZ 00468840     druntime-ldc:runtime.obj
 0003:00004870       __D4core5cpuid14numCacheLevelsk 00468870     druntime-ldc:cpuid.obj
 0003:00004878       __D4core5cpuid11cpuFeaturesS4core5cpuid11CpuFeatures 00468878     druntime-ldc:cpuid.obj
 0003:00004900       __D4core5cpuid12__ModuleInfoZ 00468900     druntime-ldc:cpuid.obj
 0003:00004920       __D4core4sync9exception9SyncError7__ClassZ 00468920     druntime-ldc:exception.obj
 0003:00004970       __D4core4sync9exception12__ModuleInfoZ 00468970     druntime-ldc:exception.obj
 0003:000049a0       __D4core4sync9semaphore9Semaphore7__ClassZ 004689a0     druntime-ldc:semaphore.obj
 0003:000049f0       __D4core4sync9semaphore12__ModuleInfoZ 004689f0     druntime-ldc:semaphore.obj
 0003:00004a30       __D4core3sys7windows9threadaux12__ModuleInfoZ 00468a30     druntime-ldc:threadaux.obj
 0003:00004a70       __D4core8internal5abort12__ModuleInfoZ 00468a70     druntime-ldc:abort.obj
 0003:00004ac0       __D2gc2gc2GC6gcLockOS4core8internal8spinlock15AlignedSpinLock 00468ac0     druntime-ldc:gc.obj
 0003:00004b00       __D2gc2gc2GC6configS2gc6config6Config 00468b00     druntime-ldc:gc.obj
 0003:00004b40       __D2gc2gc12__ModuleInfoZ   00468b40     druntime-ldc:gc.obj
 0003:00004b70       __D2gc5stats12__ModuleInfoZ 00468b70     druntime-ldc:stats.obj
 0003:00004b90       __D4core3sys7windows10stacktrace10StackTrace7__ClassZ 00468b90     druntime-ldc:stacktrace.obj
 0003:00004bdc       __D12TypeInfo_AAa6__initZ  00468bdc     druntime-ldc:stacktrace.obj
 0003:00004be8       __D4core3sys7windows10stacktrace18generateSearchPathFZ15defaultPathListG3Aya 00468be8     druntime-ldc:stacktrace.obj
 0003:00004c00       __D4core3sys7windows10stacktrace12__ModuleInfoZ 00468c00     druntime-ldc:stacktrace.obj
 0003:00004c50       __D4core8internal8spinlock12__ModuleInfoZ 00468c50     druntime-ldc:spinlock.obj
 0003:00004c80       __D2gc6config12__ModuleInfoZ 00468c80     druntime-ldc:config.obj
 0003:00004ca0       __D2rt4util6random12__ModuleInfoZ 00468ca0     druntime-ldc:random.obj
 0003:00004cc0       __D2gc2os12__ModuleInfoZ   00468cc0     druntime-ldc:os.obj
 0003:00004cd8       __D2gc4bits12__ModuleInfoZ 00468cd8     druntime-ldc:bits.obj
 0003:00004cf0       __D4core3sys7windows7dbghelp12__ModuleInfoZ 00468cf0     druntime-ldc:dbghelp.obj
 0003:00004d20       __D4core8demangle8Demangle14ParseException7__ClassZ 00468d20     druntime-ldc:demangle.obj
 0003:00004d70       __D4core8demangle8Demangle17OverflowException7__ClassZ 00468d70     druntime-ldc:demangle.obj
 0003:00004e50       __D4core8demangle12__ModuleInfoZ 00468e50     druntime-ldc:demangle.obj
 0003:00004e70       __D4core10checkedint12__ModuleInfoZ 00468e70     druntime-ldc:checkedint.obj
 0003:00004ea0       __NLG_Destination          00468ea0     libvcruntime:_exsup_.obj
 0003:00004eb0       __fltused                  00468eb0     LIBCMT:fltused.obj
 0003:00004eb4       ___security_cookie_complement 00468eb4     LIBCMT:gs_cookie.obj
 0003:00004eb8       ___security_cookie         00468eb8     LIBCMT:gs_cookie.obj
 0003:00004ebc       ___isa_enabled             00468ebc     LIBCMT:_cpu_disp_.obj
 0003:00004ec0       ___scrt_native_dllmain_reason 00468ec0     LIBCMT:utility.obj
 0003:00004ec4       ___scrt_default_matherr    00468ec4     LIBCMT:matherr.obj
 0003:00004ec8       __iob                      00468ec8     libucrt:_file.obj
 0003:00004f70       ___abort_behavior          00468f70     libucrt:abort.obj
 0003:00004f98       ___badioinfo               00468f98     libucrt:ioinit.obj
 0003:00004fd8       ___acrt_initial_locale_data 00468fd8     libucrt:nlsdata.obj
 0003:00005090       ___acrt_initial_locale_pointers 00469090     libucrt:nlsdata.obj
 0003:00005098       ___acrt_wide_c_locale_string 00469098     libucrt:nlsdata.obj
 0003:000053a0       ___acrt_initial_multibyte_data 004693a0     libucrt:mbctype.obj
 0003:000055c0       ___acrt_lconv_static_decimal 004695c0     libucrt:localeconv.obj
 0003:000055c4       ___acrt_lconv_static_W_decimal 004695c4     libucrt:localeconv.obj
 0003:000055c8       ___acrt_lconv_c            004695c8     libucrt:localeconv.obj
 0003:00005618       ___globallocalestatus      00469618     libucrt:glstatus.obj
 0003:000056b4       ___dcrt_lowio_console_output_handle 004696b4     libucrt:initcon.obj
 0003:000056c0       ??_R0?AVbad_exception@std@@@8 004696c0     libvcruntime:frame.obj
 0003:000056e0       ??_R0?AVexception@std@@@8  004696e0     libvcruntime:frame.obj
 0003:000056fc       ??_R0?AVtype_info@@@8      004696fc     LIBCMT:std_type_info_static.obj
 0003:00005720       __D3std5stdio6stdoutS3std5stdio4File 00469720     phobos2-ldc:stdio.obj
 0003:0000572c       __D3std5stdio5stdinS3std5stdio4File 0046972c     phobos2-ldc:stdio.obj
 0003:00005738       __D3std5stdio6stderrS3std5stdio4File 00469738     phobos2-ldc:stdio.obj
 0003:00005744       __D3std11concurrency9schedulerC3std11concurrency9Scheduler 00469744     phobos2-ldc:concurrency.obj
 0003:00005748       __D3std11concurrency9tidByNameHAyaS3std11concurrency3Tid 00469748     phobos2-ldc:concurrency.obj
 0003:0000574c       __D3std11concurrency10namesByTidHS3std11concurrency3TidAAya 0046974c     phobos2-ldc:concurrency.obj
 0003:00005750       __D3std11concurrency12registryLockC4core4sync5mutex5Mutex 00469750     phobos2-ldc:concurrency.obj
 0003:00005754       __D3std11concurrency36__T4ListTS3std11concurrency7MessageZ4List7sm_lockOS3std11concurrency36__T4ListTS3std11concurrency7MessageZ4List8SpinLock 00469754     phobos2-ldc:concurrency.obj
 0003:00005758       __D3std11concurrency36__T4ListTS3std11concurrency7MessageZ4List7sm_headOPS3std11concurrency36__T4ListTS3std11concurrency7MessageZ4List4Node 00469758     phobos2-ldc:concurrency.obj
 0003:0000575c       __D3std6socket18getnameinfoPointeryPWNbNiPxS4core3sys7windows8winsock28sockaddriPakPakiZi 0046975c     phobos2-ldc:socket.obj
 0003:00005760       __D3std6socket18getaddrinfoPointeryPWNbNiPxaPxaPxS4core3sys7windows8winsock28addrinfoPPS4core3sys7windows8winsock28addrinfoZi 00469760     phobos2-ldc:socket.obj
 0003:00005764       __D3std6socket19freeaddrinfoPointeryPWNbNiPS4core3sys7windows8winsock28addrinfoZv 00469764     phobos2-ldc:socket.obj
 0003:00005768       __D3std12experimental6logger4core20stdSharedLoggerMutexC4core4sync5mutex5Mutex 00469768     phobos2-ldc:core.obj
 0003:0000576c       __D3std12experimental6logger4core22stdSharedDefaultLoggerC3std12experimental6logger4core6Logger 0046976c     phobos2-ldc:core.obj
 0003:00005770       __D3std12experimental6logger4core15stdSharedLoggerOC3std12experimental6logger4core6Logger 00469770     phobos2-ldc:core.obj
 0003:00005774       __D3std12experimental6logger4core23defaultSharedLoggerImplFNdNeZ7_bufferG132h 00469774     phobos2-ldc:core.obj
 0003:000057f8       __D3std8internal7windows8advapi327isWow64yb 004697f8     phobos2-ldc:advapi32.obj
 0003:000057fc       __D2rt8lifetime14collectHandlerPFC6ObjectZb 004697fc     druntime-ldc:lifetime.obj
 0003:00005800       __D2rt8lifetime23callStructDtorsDuringGCyb 00469800     druntime-ldc:lifetime.obj
 0003:00005804       __D3ldc2eh4msvc16throwInfoHashtabS2rt4util9container7hashtab57__T7HashTabTC14TypeInfo_ClassTPS3ldc2eh4msvc10_ThrowInfoZ7HashTab 00469804     druntime-ldc:msvc.obj
 0003:00005814       __D3ldc2eh4msvc16catchableHashtabS2rt4util9container7hashtab60__T7HashTabTC14TypeInfo_ClassTPS3ldc2eh4msvc13CatchableTypeZ7HashTab 00469814     druntime-ldc:msvc.obj
 0003:00005824       __D3ldc2eh4msvc14throwInfoMutexC4core4sync5mutex5Mutex 00469824     druntime-ldc:msvc.obj
 0003:00005828       __D4core9exception14_assertHandlerPFNbAyakAyaZv 00469828     druntime-ldc:exception.obj
 0003:0000582c       __D2rt6dmain27_d_argsAAya  0046982c     druntime-ldc:dmain2.obj
 0003:00005834       __D2rt6dmain210_initCountOk 00469834     druntime-ldc:dmain2.obj
 0003:00005838       __D2rt6dmain212traceHandlerPFPvZC6object9Throwable9TraceInfo 00469838     druntime-ldc:dmain2.obj
 0003:00005840       __D2rt6dmain26_cArgsS2rt6dmain25CArgs 00469840     druntime-ldc:dmain2.obj
 0003:00005848       _stdin                     00469848     druntime-ldc:stdio.obj
 0003:0000584c       _stdout                    0046984c     druntime-ldc:stdio.obj
 0003:00005850       _stderr                    00469850     druntime-ldc:stdio.obj
 0003:00005854       __D2rt12sections_ldc18globalSectionGroupS2rt12sections_ldc12SectionGroup 00469854     druntime-ldc:sections_ldc.obj
 0003:00005874       __Dmodule_ref              00469874     druntime-ldc:sections_ldc.obj
 0003:00005878       __D2rt8monitor_4gmtxS4core3sys7windows5winnt20RTL_CRITICAL_SECTION 00469878     druntime-ldc:monitor_.obj
 0003:00005890       __D4core6thread17multiThreadedFlagb 00469890     druntime-ldc:thread.obj
 0003:00005894       __D4core6thread6Thread13nAboutToStartk 00469894     druntime-ldc:thread.obj
 0003:00005898       __D4core6thread6Thread13pAboutToStartPC4core6thread6Thread 00469898     druntime-ldc:thread.obj
 0003:0000589c       __D4core6thread6Thread12PRIORITY_MINxi 0046989c     druntime-ldc:thread.obj
 0003:000058a0       __D4core6thread6Thread12PRIORITY_MAXxi 004698a0     druntime-ldc:thread.obj
 0003:000058a4       __D4core6thread6Thread16PRIORITY_DEFAULTxi 004698a4     druntime-ldc:thread.obj
 0003:000058a8       __D4core6thread6Thread7sm_mainC4core6thread6Thread 004698a8     druntime-ldc:thread.obj
 0003:000058ac       __D4core6thread6Thread6_locksG2G40v 004698ac     druntime-ldc:thread.obj
 0003:000058fc       __D4core6thread6Thread7sm_cbegPS4core6thread6Thread7Context 004698fc     druntime-ldc:thread.obj
 0003:00005900       __D4core6thread6Thread7sm_tbegC4core6thread6Thread 00469900     druntime-ldc:thread.obj
 0003:00005904       __D4core6thread6Thread7sm_tlenk 00469904     druntime-ldc:thread.obj
 0003:00005908       __D4core6thread12suspendDepthk 00469908     druntime-ldc:thread.obj
 0003:0000590c       __D4core6thread8PAGESIZEyk 0046990c     druntime-ldc:thread.obj
 0003:00005910       __D4core6thread5Fiber9initStackMFNbZ12finalHandlerPFZv 00469910     druntime-ldc:thread.obj
 0003:00005918       __D4core4time15_ticksPerSecondyG4l 00469918     druntime-ldc:time.obj
 0003:00005938       __D4core4time12TickDuration11ticksPerSecyl 00469938     druntime-ldc:time.obj
 0003:00005940       __D4core4time12TickDuration9appOriginyS4core4time12TickDuration 00469940     druntime-ldc:time.obj
 0003:00005948       __rt_envvars_enabled       00469948     druntime-ldc:config.obj
 0003:00005950       __D2gc5proxy5pthisS2gc5proxy5Proxy 00469950     druntime-ldc:proxy.obj
 0003:000059ac       __D2gc5proxy5proxyPS2gc5proxy5Proxy 004699ac     druntime-ldc:proxy.obj
 0003:000059b0       ___iob_func                004699b0     druntime-ldc:msvc.c.obj
 0003:000059b0       __flsbuf                   004699b0     druntime-ldc:msvc.c.obj
 0003:000059b0       __filbuf                   004699b0     druntime-ldc:msvc.c.obj
 0003:000059b0       __set_output_format        004699b0     druntime-ldc:msvc.c.obj
 0003:000059b0       __nullfunc                 004699b0     druntime-ldc:msvc.c.obj
 0003:000059b4       __D2rt9critical_3gcsOS2rt9critical_18D_CRITICAL_SECTION 004699b4     druntime-ldc:critical_.obj
 0003:000059d0       __D2rt9critical_4headOPS2rt9critical_18D_CRITICAL_SECTION 004699d0     druntime-ldc:critical_.obj
 0003:000059d4       __D4core7runtime7Runtime19sm_moduleUnitTesterPFZb 004699d4     druntime-ldc:runtime.obj
 0003:000059d8       __D4core5cpuid9datacacheG5S4core5cpuid9CacheInfo 004699d8     druntime-ldc:cpuid.obj
 0003:00005a14       __D4core5cpuid11_dataCachesyG5S4core5cpuid9CacheInfo 00469a14     druntime-ldc:cpuid.obj
 0003:00005a50       __D4core5cpuid7_vendoryAa  00469a50     druntime-ldc:cpuid.obj
 0003:00005a58       __D4core5cpuid10_processoryAa 00469a58     druntime-ldc:cpuid.obj
 0003:00005a60       __D4core5cpuid10_x87onChipyb 00469a60     druntime-ldc:cpuid.obj
 0003:00005a61       __D4core5cpuid4_mmxyb      00469a61     druntime-ldc:cpuid.obj
 0003:00005a62       __D4core5cpuid4_sseyb      00469a62     druntime-ldc:cpuid.obj
 0003:00005a63       __D4core5cpuid5_sse2yb     00469a63     druntime-ldc:cpuid.obj
 0003:00005a64       __D4core5cpuid5_sse3yb     00469a64     druntime-ldc:cpuid.obj
 0003:00005a65       __D4core5cpuid6_ssse3yb    00469a65     druntime-ldc:cpuid.obj
 0003:00005a66       __D4core5cpuid6_sse41yb    00469a66     druntime-ldc:cpuid.obj
 0003:00005a67       __D4core5cpuid6_sse42yb    00469a67     druntime-ldc:cpuid.obj
 0003:00005a68       __D4core5cpuid6_sse4ayb    00469a68     druntime-ldc:cpuid.obj
 0003:00005a69       __D4core5cpuid4_aesyb      00469a69     druntime-ldc:cpuid.obj
 0003:00005a6a       __D4core5cpuid13_hasPclmulqdqyb 00469a6a     druntime-ldc:cpuid.obj
 0003:00005a6b       __D4core5cpuid10_hasRdrandyb 00469a6b     druntime-ldc:cpuid.obj
 0003:00005a6c       __D4core5cpuid4_avxyb      00469a6c     druntime-ldc:cpuid.obj
 0003:00005a6d       __D4core5cpuid5_vaesyb     00469a6d     druntime-ldc:cpuid.obj
 0003:00005a6e       __D4core5cpuid14_hasVpclmulqdqyb 00469a6e     druntime-ldc:cpuid.obj
 0003:00005a6f       __D4core5cpuid4_fmayb      00469a6f     druntime-ldc:cpuid.obj
 0003:00005a70       __D4core5cpuid6_fp16cyb    00469a70     druntime-ldc:cpuid.obj
 0003:00005a71       __D4core5cpuid5_avx2yb     00469a71     druntime-ldc:cpuid.obj
 0003:00005a72       __D4core5cpuid4_hleyb      00469a72     druntime-ldc:cpuid.obj
 0003:00005a73       __D4core5cpuid4_rtmyb      00469a73     druntime-ldc:cpuid.obj
 0003:00005a74       __D4core5cpuid10_hasRdseedyb 00469a74     druntime-ldc:cpuid.obj
 0003:00005a75       __D4core5cpuid7_hasShayb   00469a75     druntime-ldc:cpuid.obj
 0003:00005a76       __D4core5cpuid9_amd3dnowyb 00469a76     druntime-ldc:cpuid.obj
 0003:00005a77       __D4core5cpuid12_amd3dnowExtyb 00469a77     druntime-ldc:cpuid.obj
 0003:00005a78       __D4core5cpuid7_amdMmxyb   00469a78     druntime-ldc:cpuid.obj
 0003:00005a79       __D4core5cpuid8_hasFxsryb  00469a79     druntime-ldc:cpuid.obj
 0003:00005a7a       __D4core5cpuid8_hasCmovyb  00469a7a     druntime-ldc:cpuid.obj
 0003:00005a7b       __D4core5cpuid9_hasRdtscyb 00469a7b     druntime-ldc:cpuid.obj
 0003:00005a7c       __D4core5cpuid13_hasCmpxchg8byb 00469a7c     druntime-ldc:cpuid.obj
 0003:00005a7d       __D4core5cpuid14_hasCmpxchg16byb 00469a7d     druntime-ldc:cpuid.obj
 0003:00005a7e       __D4core5cpuid19_hasSysEnterSysExityb 00469a7e     druntime-ldc:cpuid.obj
 0003:00005a7f       __D4core5cpuid17_has3dnowPrefetchyb 00469a7f     druntime-ldc:cpuid.obj
 0003:00005a80       __D4core5cpuid12_hasLahfSahfyb 00469a80     druntime-ldc:cpuid.obj
 0003:00005a81       __D4core5cpuid10_hasPopcntyb 00469a81     druntime-ldc:cpuid.obj
 0003:00005a82       __D4core5cpuid9_hasLzcntyb 00469a82     druntime-ldc:cpuid.obj
 0003:00005a83       __D4core5cpuid9_isX86_64yb 00469a83     druntime-ldc:cpuid.obj
 0003:00005a84       __D4core5cpuid10_isItaniumyb 00469a84     druntime-ldc:cpuid.obj
 0003:00005a85       __D4core5cpuid15_hyperThreadingyb 00469a85     druntime-ldc:cpuid.obj
 0003:00005a88       __D4core5cpuid14_threadsPerCPUyk 00469a88     druntime-ldc:cpuid.obj
 0003:00005a8c       __D4core5cpuid12_coresPerCPUyk 00469a8c     druntime-ldc:cpuid.obj
 0003:00005a90       __D4core5cpuid13_preferAthlonyb 00469a90     druntime-ldc:cpuid.obj
 0003:00005a91       __D4core5cpuid15_preferPentium4yb 00469a91     druntime-ldc:cpuid.obj
 0003:00005a92       __D4core5cpuid15_preferPentium1yb 00469a92     druntime-ldc:cpuid.obj
 0003:00005a94       __D4core5cpuid8steppingk   00469a94     druntime-ldc:cpuid.obj
 0003:00005a98       __D4core5cpuid5modelk      00469a98     druntime-ldc:cpuid.obj
 0003:00005a9c       __D4core5cpuid6familyk     00469a9c     druntime-ldc:cpuid.obj
 0003:00005aa0       __D4core5cpuid9max_cpuidk  00469aa0     druntime-ldc:cpuid.obj
 0003:00005aa4       __D4core5cpuid18max_extended_cpuidk 00469aa4     druntime-ldc:cpuid.obj
 0003:00005aa8       __D2gc2gc8prepTimeS4core4time8Duration 00469aa8     druntime-ldc:gc.obj
 0003:00005ab0       __D2gc2gc8markTimeS4core4time8Duration 00469ab0     druntime-ldc:gc.obj
 0003:00005ab8       __D2gc2gc9sweepTimeS4core4time8Duration 00469ab8     druntime-ldc:gc.obj
 0003:00005ac0       __D2gc2gc11recoverTimeS4core4time8Duration 00469ac0     druntime-ldc:gc.obj
 0003:00005ac8       __D2gc2gc12maxPauseTimeS4core4time8Duration 00469ac8     druntime-ldc:gc.obj
 0003:00005ad0       __D2gc2gc14numCollectionsk 00469ad0     druntime-ldc:gc.obj
 0003:00005ad4       __D2gc2gc13maxPoolMemoryk  00469ad4     druntime-ldc:gc.obj
 0003:00005ad8       __D4core3sys7windows10stacktrace24RtlCaptureStackBackTracePWkkPPvPkZt 00469ad8     druntime-ldc:stacktrace.obj
 0003:00005adc       __D4core3sys7windows10stacktrace11initializedyb 00469adc     druntime-ldc:stacktrace.obj
 0003:00005ae0       __D4core3sys7windows7dbghelp7DbgHelp7sm_hndlPv 00469ae0     druntime-ldc:dbghelp.obj
 0003:00005ae4       __D4core3sys7windows7dbghelp7DbgHelp7sm_instS4core3sys7windows7dbghelp7DbgHelp 00469ae4     druntime-ldc:dbghelp.obj
 0003:00005b28       ?_OptionsStorage@?1??__local_stdio_printf_options@@9@4_KA 00469b28     legacy_stdio_definitions:legacy_stdio_definitions.obj
 0003:00005b30       ?_OptionsStorage@?1??__local_stdio_scanf_options@@9@4_KA 00469b30     legacy_stdio_definitions:legacy_stdio_definitions.obj
 0003:00005b38       ?g_OutOfMemoryExceptionCallback@@3P6GPAXXZA 00469b38     libvcruntime:frame.obj
 0003:00005b98       ?pArgList@UnDecorator@@0PAVReplicator@@A 00469b98     libvcruntime:undname.obj
 0003:00005b9c       ?pZNameList@UnDecorator@@0PAVReplicator@@A 00469b9c     libvcruntime:undname.obj
 0003:00005ba0       ?pTemplateArgList@UnDecorator@@0PAVReplicator@@A 00469ba0     libvcruntime:undname.obj
 0003:00005ba4       ?gName@UnDecorator@@0PBDB  00469ba4     libvcruntime:undname.obj
 0003:00005ba8       ?name@UnDecorator@@0PBDB   00469ba8     libvcruntime:undname.obj
 0003:00005bac       ?outputString@UnDecorator@@0PADA 00469bac     libvcruntime:undname.obj
 0003:00005bb0       ?maxStringLength@UnDecorator@@0HA 00469bb0     libvcruntime:undname.obj
 0003:00005bb4       ?disableFlags@UnDecorator@@0KA 00469bb4     libvcruntime:undname.obj
 0003:00005bb8       ?fExplicitTemplateParams@UnDecorator@@0_NA 00469bb8     libvcruntime:undname.obj
 0003:00005bb9       ?fGetTemplateArgumentList@UnDecorator@@0_NA 00469bb9     libvcruntime:undname.obj
 0003:00005bbc       ?m_pGetParameter@UnDecorator@@0P6APADJ@ZA 00469bbc     libvcruntime:undname.obj
 0003:00005bf0       ___pPurecall               00469bf0     libvcruntime:purevirt_data.obj
 0003:00005bf4       __tls_index                00469bf4     LIBCMT:tlssup.obj
 0003:00005bf8       ___isa_available           00469bf8     LIBCMT:_cpu_disp_.obj
 0003:00005bfc       ___favor                   00469bfc     LIBCMT:_cpu_disp_.obj
 0003:00005c00       ___scrt_current_native_startup_state 00469c00     LIBCMT:utility.obj
 0003:00005c04       ___scrt_native_startup_lock 00469c04     LIBCMT:utility.obj
 0003:00005c28       ?__type_info_root_node@@3U__type_info_node@@A 00469c28     LIBCMT:tncleanup.obj
 0003:00005c30       ___scrt_debugger_hook_flag 00469c30     LIBCMT:utility_desktop.obj
 0003:00005f6c       __nstream                  00469f6c     libucrt:_file.obj
 0003:00005f70       ___piob                    00469f70     libucrt:_file.obj
 0003:00005f74       __cflush                   00469f74     libucrt:_file.obj
 0003:00006088       __environ_table            0046a088     libucrt:environment_initialization.obj
 0003:0000608c       __wenviron_table           0046a08c     libucrt:environment_initialization.obj
 0003:00006090       ___dcrt_initial_wide_environment 0046a090     libucrt:environment_initialization.obj
 0003:00006094       ___dcrt_initial_narrow_environment 0046a094     libucrt:environment_initialization.obj
 0003:000060a0       ?c_exit_complete@?1???R<lambda_6e4b09c48022b2350581041d5f6b0c4c>@@QBE@XZ@4_NA 0046a0a0     libucrt:exit.obj
 0003:000060a4       ___argc                    0046a0a4     libucrt:argv_data.obj
 0003:000060a8       ___argv                    0046a0a8     libucrt:argv_data.obj
 0003:000060ac       ___wargv                   0046a0ac     libucrt:argv_data.obj
 0003:000060b0       __acmdln                   0046a0b0     libucrt:argv_data.obj
 0003:000060b4       __wcmdln                   0046a0b4     libucrt:argv_data.obj
 0003:000060b8       __pgmptr                   0046a0b8     libucrt:argv_data.obj
 0003:000060bc       ___acrt_locale_changed_data 0046a0bc     libucrt:wsetlocale.obj
 0003:000060c4       __commode                  0046a0c4     libucrt:ncommode.obj
 0003:000060c8       ___acrt_atexit_table       0046a0c8     libucrt:onexit.obj
 0003:000060d4       ___acrt_at_quick_exit_table 0046a0d4     libucrt:onexit.obj
 0003:000061a4       ___acrt_stdout_buffer      0046a1a4     libucrt:_sftbuf.obj
 0003:000061a8       ___acrt_stderr_buffer      0046a1a8     libucrt:_sftbuf.obj
 0003:000061b0       ___pioinfo                 0046a1b0     libucrt:ioinit.obj
 0003:000063b0       __nhandle                  0046a3b0     libucrt:ioinit.obj
 0003:000065e8       __fmode                    0046a5e8     libucrt:txtmode.obj
 0003:000065f0       ___acrt_current_locale_data 0046a5f0     libucrt:nlsdata.obj
 0003:0000660c       ___acrt_heap               0046a60c     libucrt:heap_handle.obj
 0003:00006610       __mbctype                  0046a610     libucrt:mbctype.obj
 0003:00006614       __mbcasemap                0046a614     libucrt:mbctype.obj
 0003:00006618       ___acrt_current_multibyte_data 0046a618     libucrt:mbctype.obj
 0003:00006621       ___acrt_lconv_static_null  0046a621     libucrt:localeconv.obj
 0003:00006624       ___acrt_lconv_static_W_null 0046a624     libucrt:localeconv.obj
 0003:00006628       ?_timezone@@3V?$dual_state_global@J@__crt_state_management@@A 0046a628     libucrt:timeset.obj
 0003:0000662c       ?_daylight@@3V?$dual_state_global@H@__crt_state_management@@A 0046a62c     libucrt:timeset.obj
 0003:00006630       ?_dstbias@@3V?$dual_state_global@J@__crt_state_management@@A 0046a630     libucrt:timeset.obj
 0003:00006638       ___fastflag                0046a638     libucrt:fp_flags.obj
 0003:00006640       __bss_end__                0046a640     <common>
 0003:00006644       __bss_start__              0046a644     <common>
 0003:00006648       __data_end__               0046a648     <common>
 0003:0000664c       __data_start__             0046a64c     <common>
 0003:00006650       ___scrt_ucrt_dll_is_in_use 0046a650     <common>
 0003:00006654       ___dyn_tls_dtor_callback   0046a654     <common>
 0003:00006658       ___dyn_tls_init_callback   0046a658     <common>
 0003:0000665c       __pmatherr                 0046a65c     <common>
 0003:00006660       ___use_sse2_mathfcns       0046a660     <common>
 0004:00000000       __tls_start                0046b000     LIBCMT:tlssup.obj
 0004:00000004       __D3std11concurrency10ThreadInfo8thisInfoFNbNcNdZ3valS3std11concurrency10ThreadInfo 0046b004     phobos2-ldc:concurrency.obj
 0004:00000010       __D3std8internal7windows8advapi329hAdvapi32Pv 0046b010     phobos2-ldc:advapi32.obj
 0004:00000014       _pRegDeleteKeyExW          0046b014     phobos2-ldc:advapi32.obj
 0004:00000018       __D2rt8lifetime18__blkcache_storagePS4core6memory8BlkInfo_ 0046b018     druntime-ldc:lifetime.obj
 0004:0000001c       __D2rt8lifetime12__nextBlkIdxi 0046b01c     druntime-ldc:lifetime.obj
 0004:00000020       __D3ldc2eh4msvc14exceptionStackS3ldc2eh4msvc14ExceptionStack 0046b020     druntime-ldc:msvc.obj
 0004:0000002c       __D3ldc2eh4msvc21old_terminate_handlerPFZv 0046b02c     druntime-ldc:msvc.obj
 0004:00000030       __D3ldc2eh4msvc12fiberContextPS3ldc2eh4msvc12FiberContext 0046b030     druntime-ldc:msvc.obj
 0004:00000034       __D4core9exception6_storeG128v 0046b034     druntime-ldc:exception.obj
 0004:000000b4       __D4core6thread6Thread7sm_thisC4core6thread6Thread 0046b0b4     druntime-ldc:thread.obj
 0004:000000b8       __D4core6thread5Fiber7sm_thisC4core6thread5Fiber 0046b0b8     druntime-ldc:thread.obj
 0004:000000bc       _originalTLS               0046b0bc     druntime-ldc:msvc.c.obj
 0004:000000c0       __D2gc2gc2GC11inFinalizerb 0046b0c0     druntime-ldc:gc.obj
 0004:000000c1       __tls_end                  0046b0c1     LIBCMT:tlssup.obj

 entry point at        0001:00038483

 Static symbols

 0000:fff8c000       .debug$S                   00400000     kernel32:KERNEL32.dll
 0000:fff8c000       .debug$S                   00400000     kernel32:KERNEL32.dll
 0000:fff8c000       .debug$S                   00400000     kernel32:KERNEL32.dll
 0000:fff8c000       .debug$S                   00400000     kernel32:KERNEL32.dll
 0000:fff8c000       .debug$S                   00400000     kernel32:KERNEL32.dll
 0000:fff8c000       .debug$S                   00400000     kernel32:KERNEL32.dll
 0000:fff8c000       .debug$S                   00400000     kernel32:KERNEL32.dll
 0000:fff8c000       .debug$S                   00400000     kernel32:KERNEL32.dll
 0000:fff8c000       .debug$S                   00400000     kernel32:KERNEL32.dll
 0000:fff8c000       .debug$S                   00400000     ws2_32:WS2_32.dll
 0000:fff8c000       .debug$S                   00400000     ws2_32:WS2_32.dll
 0000:fff8c000       .debug$S                   00400000     kernel32:KERNEL32.dll
 0000:fff8c000       .debug$S                   00400000     PatcherLib:PatcherLib.dll
 0000:fff8c000       .debug$S                   00400000     kernel32:KERNEL32.dll
 0000:fff8c000       .debug$S                   00400000     kernel32:KERNEL32.dll
 0000:fff8c000       .debug$S                   00400000     kernel32:KERNEL32.dll
 0000:fff8c000       .debug$S                   00400000     kernel32:KERNEL32.dll
 0000:fff8c000       .debug$S                   00400000     kernel32:KERNEL32.dll
 0000:fff8c000       .debug$S                   00400000     kernel32:KERNEL32.dll
 0000:fff8c000       .debug$S                   00400000     kernel32:KERNEL32.dll
 0000:fff8c000       .debug$S                   00400000     kernel32:KERNEL32.dll
 0000:fff8c000       .debug$S                   00400000     kernel32:KERNEL32.dll
 0000:fff8c000       .debug$S                   00400000     kernel32:KERNEL32.dll
 0000:fff8c000       .debug$S                   00400000     kernel32:KERNEL32.dll
 0000:fff8c000       .debug$S                   00400000     kernel32:KERNEL32.dll
 0000:fff8c000       .debug$S                   00400000     kernel32:KERNEL32.dll
 0000:fff8c000       .debug$S                   00400000     kernel32:KERNEL32.dll
 0000:fff8c000       .debug$S                   00400000     kernel32:KERNEL32.dll
 0000:fff8c000       .debug$S                   00400000     kernel32:KERNEL32.dll
 0000:fff8c000       .debug$S                   00400000     kernel32:KERNEL32.dll
 0000:fff8c000       .debug$S                   00400000     kernel32:KERNEL32.dll
 0000:fff8c000       .debug$S                   00400000     kernel32:KERNEL32.dll
 0000:fff8c000       .debug$S                   00400000     kernel32:KERNEL32.dll
 0000:fff8c000       .debug$S                   00400000     kernel32:KERNEL32.dll
 0000:fff8c000       .debug$S                   00400000     kernel32:KERNEL32.dll
 0000:fff8c000       .debug$S                   00400000     kernel32:KERNEL32.dll
 0000:fff8c000       .debug$S                   00400000     kernel32:KERNEL32.dll
 0000:fff8c000       .debug$S                   00400000     kernel32:KERNEL32.dll
 0000:fff8c000       .debug$S                   00400000     kernel32:KERNEL32.dll
 0000:fff8c000       .debug$S                   00400000     kernel32:KERNEL32.dll
 0000:fff8c000       .debug$S                   00400000     kernel32:KERNEL32.dll
 0000:fff8c000       .debug$S                   00400000     kernel32:KERNEL32.dll
 0000:fff8c000       .debug$S                   00400000     kernel32:KERNEL32.dll
 0000:fff8c000       .debug$S                   00400000     kernel32:KERNEL32.dll
 0000:fff8c000       .debug$S                   00400000     kernel32:KERNEL32.dll
 0000:fff8c000       .debug$S                   00400000     kernel32:KERNEL32.dll
 0000:fff8c000       .debug$S                   00400000     kernel32:KERNEL32.dll
 0000:fff8c000       .debug$S                   00400000     kernel32:KERNEL32.dll
 0000:fff8c000       .debug$S                   00400000     kernel32:KERNEL32.dll
 0000:fff8c000       .debug$S                   00400000     kernel32:KERNEL32.dll
 0000:fff8c000       .debug$S                   00400000     kernel32:KERNEL32.dll
 0000:fff8c000       .debug$S                   00400000     kernel32:KERNEL32.dll
 0000:fff8c000       .debug$S                   00400000     kernel32:KERNEL32.dll
 0000:fff8c000       .debug$S                   00400000     kernel32:KERNEL32.dll
 0000:fff8c000       .debug$S                   00400000     kernel32:KERNEL32.dll
 0000:fff8c000       .debug$S                   00400000     kernel32:KERNEL32.dll
 0000:fff8c000       .debug$S                   00400000     ws2_32:WS2_32.dll
 0000:fff8c000       .debug$S                   00400000     kernel32:KERNEL32.dll
 0000:fff8c000       .debug$S                   00400000     kernel32:KERNEL32.dll
 0000:fff8c000       .debug$S                   00400000     kernel32:KERNEL32.dll
 0000:fff8c000       .debug$S                   00400000     kernel32:KERNEL32.dll
 0000:fff8c000       .debug$S                   00400000     kernel32:KERNEL32.dll
 0000:fff8c000       .debug$S                   00400000     kernel32:KERNEL32.dll
 0000:fff8c000       .debug$S                   00400000     kernel32:KERNEL32.dll
 0000:fff8c000       .debug$S                   00400000     kernel32:KERNEL32.dll
 0000:fff8c000       .debug$S                   00400000     kernel32:KERNEL32.dll
 0000:fff8c000       .debug$S                   00400000     kernel32:KERNEL32.dll
 0000:fff8c000       .debug$S                   00400000     kernel32:KERNEL32.dll
 0000:fff8c000       .debug$S                   00400000     kernel32:KERNEL32.dll
 0000:fff8c000       .debug$S                   00400000     kernel32:KERNEL32.dll
 0000:fff8c000       .debug$S                   00400000     kernel32:KERNEL32.dll
 0000:fff8c000       .debug$S                   00400000     kernel32:KERNEL32.dll
 0000:fff8c000       .debug$S                   00400000     kernel32:KERNEL32.dll
 0000:fff8c000       .debug$S                   00400000     kernel32:KERNEL32.dll
 0000:fff8c000       .debug$S                   00400000     kernel32:KERNEL32.dll
 0000:fff8c000       .debug$S                   00400000     kernel32:KERNEL32.dll
 0000:fff8c000       .debug$S                   00400000     kernel32:KERNEL32.dll
 0000:fff8c000       .debug$S                   00400000     kernel32:KERNEL32.dll
 0000:fff8c000       .debug$S                   00400000     kernel32:KERNEL32.dll
 0000:fff8c000       .debug$S                   00400000     kernel32:KERNEL32.dll
 0000:fff8c000       .debug$S                   00400000     kernel32:KERNEL32.dll
 0000:fff8c000       .debug$S                   00400000     kernel32:KERNEL32.dll
 0000:fff8c000       .debug$S                   00400000     kernel32:KERNEL32.dll
 0000:fff8c000       .debug$S                   00400000     kernel32:KERNEL32.dll
 0000:fff8c000       .debug$S                   00400000     kernel32:KERNEL32.dll
 0000:fff8c000       .debug$S                   00400000     kernel32:KERNEL32.dll
 0000:fff8c000       .debug$S                   00400000     kernel32:KERNEL32.dll
 0000:fff8c000       .debug$S                   00400000     kernel32:KERNEL32.dll
 0000:fff8c000       .debug$S                   00400000     kernel32:KERNEL32.dll
 0000:fff8c000       .debug$S                   00400000     kernel32:KERNEL32.dll
 0000:fff8c000       .debug$S                   00400000     kernel32:KERNEL32.dll
 0000:fff8c000       .debug$S                   00400000     kernel32:KERNEL32.dll
 0000:fff8c000       .debug$S                   00400000     kernel32:KERNEL32.dll
 0000:fff8c000       .debug$S                   00400000     kernel32:KERNEL32.dll
 0000:fff8c000       .debug$S                   00400000     kernel32:KERNEL32.dll
 0000:fff8c000       .debug$S                   00400000     kernel32:KERNEL32.dll
 0000:fff8c000       .debug$S                   00400000     kernel32:KERNEL32.dll
 0000:fff8c000       .debug$S                   00400000     kernel32:KERNEL32.dll
 0000:fff8c000       .debug$S                   00400000     kernel32:KERNEL32.dll
 0000:fff8c000       .debug$S                   00400000     kernel32:KERNEL32.dll
 0000:fff8c000       .debug$S                   00400000     kernel32:KERNEL32.dll
 0000:fff8c000       .debug$S                   00400000     kernel32:KERNEL32.dll
 0000:fff8c000       .debug$S                   00400000     kernel32:KERNEL32.dll
 0000:fff8c000       .debug$S                   00400000     kernel32:KERNEL32.dll
 0000:fff8c000       .debug$S                   00400000     kernel32:KERNEL32.dll
 0000:fff8c000       .debug$S                   00400000     kernel32:KERNEL32.dll
 0000:fff8c000       .debug$S                   00400000     kernel32:KERNEL32.dll
 0000:fff8c000       .debug$S                   00400000     kernel32:KERNEL32.dll
 0000:fff8c000       .debug$S                   00400000     kernel32:KERNEL32.dll
 0000:fff8c000       .debug$S                   00400000     kernel32:KERNEL32.dll
 0000:fff8c000       .debug$S                   00400000     kernel32:KERNEL32.dll
 0000:fff8c000       .debug$S                   00400000     kernel32:KERNEL32.dll
 0000:fff8c000       .debug$S                   00400000     kernel32:KERNEL32.dll
 0000:fff8c000       .debug$S                   00400000     kernel32:KERNEL32.dll
 0000:fff8c000       .debug$S                   00400000     kernel32:KERNEL32.dll
 0000:fff8c000       .debug$S                   00400000     kernel32:KERNEL32.dll
 0000:fff8c000       .debug$S                   00400000     kernel32:KERNEL32.dll
 0000:fff8c000       .debug$S                   00400000     kernel32:KERNEL32.dll
 0000:fff8c000       .debug$S                   00400000     kernel32:KERNEL32.dll
 0000:fff8c000       .debug$S                   00400000     kernel32:KERNEL32.dll
 0000:fff8c000       .debug$S                   00400000     kernel32:KERNEL32.dll
 0000:fff8c000       .debug$S                   00400000     kernel32:KERNEL32.dll
 0000:fff8c000       .debug$S                   00400000     kernel32:KERNEL32.dll
 0000:fff8c000       .debug$S                   00400000     kernel32:KERNEL32.dll
 0000:fff8c000       .debug$S                   00400000     kernel32:KERNEL32.dll
 0000:fff8c000       .debug$S                   00400000     kernel32:KERNEL32.dll
 0000:fff8c000       .debug$S                   00400000     kernel32:KERNEL32.dll
 0000:fff8c000       .debug$S                   00400000     kernel32:KERNEL32.dll
 0000:fff8c000       .debug$S                   00400000     kernel32:KERNEL32.dll
 0000:fff8c000       .debug$S                   00400000     kernel32:KERNEL32.dll
 0000:fff8c000       .debug$S                   00400000     kernel32:KERNEL32.dll
 0000:fff8c000       .debug$S                   00400000     kernel32:KERNEL32.dll
 0000:fff8c000       .debug$S                   00400000     kernel32:KERNEL32.dll
 0000:fff8c000       .debug$S                   00400000     kernel32:KERNEL32.dll
 0000:fff8c000       .debug$S                   00400000     kernel32:KERNEL32.dll
 0000:fff8c000       .debug$S                   00400000     kernel32:KERNEL32.dll
 0000:fff8c000       .debug$S                   00400000     kernel32:KERNEL32.dll
 0000:fff8c000       .debug$S                   00400000     kernel32:KERNEL32.dll
 0000:fff8c000       .debug$S                   00400000     kernel32:KERNEL32.dll
 0000:fff8c000       .debug$S                   00400000     kernel32:KERNEL32.dll
 0000:fff8c000       .debug$S                   00400000     kernel32:KERNEL32.dll
 0000:fff8c000       .debug$S                   00400000     kernel32:KERNEL32.dll
 0000:fff8c000       .debug$S                   00400000     kernel32:KERNEL32.dll
 0000:fff8c000       .debug$S                   00400000     kernel32:KERNEL32.dll
 0000:fff8c000       .debug$S                   00400000     kernel32:KERNEL32.dll
 0000:fff8c000       .debug$S                   00400000     shell32:SHELL32.dll
 0000:fff8c000       .debug$S                   00400000     shell32:SHELL32.dll
 0000:fff8c000       .debug$S                   00400000     advapi32:ADVAPI32.dll
 0000:fff8c000       .debug$S                   00400000     advapi32:ADVAPI32.dll
 0000:fff8c000       .debug$S                   00400000     advapi32:ADVAPI32.dll
 0000:fff8c000       .debug$S                   00400000     advapi32:ADVAPI32.dll
 0000:fff8c000       .debug$S                   00400000     advapi32:ADVAPI32.dll
 0000:fff8c000       .debug$S                   00400000     advapi32:ADVAPI32.dll
 0000:fff8c000       .debug$S                   00400000     advapi32:ADVAPI32.dll
 0000:fff8c000       .debug$S                   00400000     advapi32:ADVAPI32.dll
 0000:fff8c000       .debug$S                   00400000     advapi32:ADVAPI32.dll
 0000:fff8c000       .debug$S                   00400000     advapi32:ADVAPI32.dll
 0000:fff8c000       .debug$S                   00400000     advapi32:ADVAPI32.dll
 0000:fff8c000       .debug$S                   00400000     advapi32:ADVAPI32.dll
 0000:fff8c000       .debug$S                   00400000     ws2_32:WS2_32.dll
 0000:fff8c000       .debug$S                   00400000     ws2_32:WS2_32.dll
 0000:fff8c000       .debug$S                   00400000     ws2_32:WS2_32.dll
 0000:fff8c000       .debug$S                   00400000     ws2_32:WS2_32.dll
 0000:fff8c000       .debug$S                   00400000     ws2_32:WS2_32.dll
 0000:fff8c000       .debug$S                   00400000     ws2_32:WS2_32.dll
 0000:fff8c000       .debug$S                   00400000     ws2_32:WS2_32.dll
 0000:fff8c000       .debug$S                   00400000     ws2_32:WS2_32.dll
 0000:fff8c000       .debug$S                   00400000     ws2_32:WS2_32.dll
 0000:fff8c000       .debug$S                   00400000     ws2_32:WS2_32.dll
 0000:fff8c000       .debug$S                   00400000     ws2_32:WS2_32.dll
 0000:fff8c000       .debug$S                   00400000     ws2_32:WS2_32.dll
 0000:fff8c000       .debug$S                   00400000     ws2_32:WS2_32.dll
 0000:fff8c000       .debug$S                   00400000     ws2_32:WS2_32.dll
 0000:fff8c000       .debug$S                   00400000     ws2_32:WS2_32.dll
 0000:fff8c000       .debug$S                   00400000     ws2_32:WS2_32.dll
 0000:fff8c000       .debug$S                   00400000     ws2_32:WS2_32.dll
 0000:fff8c000       .debug$S                   00400000     ws2_32:WS2_32.dll
 0000:fff8c000       .debug$S                   00400000     ws2_32:WS2_32.dll
 0000:fff8c000       .debug$S                   00400000     ws2_32:WS2_32.dll
 0000:fff8c000       .debug$S                   00400000     ws2_32:WS2_32.dll
 0000:fff8c000       .debug$S                   00400000     ws2_32:WS2_32.dll
 0000:fff8c000       .debug$S                   00400000     ws2_32:WS2_32.dll
 0000:fff8c000       .debug$S                   00400000     ws2_32:WS2_32.dll
 0000:fff8c000       .debug$S                   00400000     ws2_32:WS2_32.dll
 0000:fff8c000       .debug$S                   00400000     ws2_32:WS2_32.dll
 0000:fff8c000       .debug$S                   00400000     ws2_32:WS2_32.dll
 0001:00000180       ?dtor$11@?0?__D3std5stdio16__T7writelnTAyaZ7writelnFNfAyaZv@4HA 00401180 f i PatcherLibTestD.obj
 0001:000001b0       ?dtor$14@?0?__D3std5stdio16__T7writelnTAyaZ7writelnFNfAyaZv@4HA 004011b0 f i PatcherLibTestD.obj
 0001:00000520       ___ehhandler$__D3std5stdio16__T7writelnTAyaZ7writelnFNfAyaZv 00401520 f   PatcherLibTestD.obj
 0001:000006c0       ?catch$17@?0?__D3std8internal7cstring23__T11tempCStringTaTAxaZ11tempCStringFNbNiNfAxaZS3std8internal7cstring23__T11tempCStringTaTAxaZ11tempCStringFAxaZ3Res@4HA 004016c0 f i phobos2-ldc:stdio.obj
 0001:00000840       ?dtor$8@?0?__D3std5stdio4File5closeMFNeZv@4HA 00401840 f i phobos2-ldc:stdio.obj
 0001:00003370       __D3std5stdio16__moduleinfoCtorZ 00404370 f   phobos2-ldc:stdio.obj
 0001:00003390       ___ehhandler$__D3std8internal7cstring23__T11tempCStringTaTAxaZ11tempCStringFNbNiNfAxaZS3std8internal7cstring23__T11tempCStringTaTAxaZ11tempCStringFAxaZ3Res 00404390 f   phobos2-ldc:stdio.obj
 0001:000033a0       ___ehhandler$__D3std5stdio4File5closeMFNeZv 004043a0 f   phobos2-ldc:stdio.obj
 0001:000034c0       __D3std9exception16__moduleinfoCtorZ 004044c0 f   phobos2-ldc:exception.obj
 0001:00004180       __D3std3utf16__moduleinfoCtorZ 00405180 f   phobos2-ldc:utf.obj
 0001:00006660       __D3std3uni16__moduleinfoCtorZ 00407660 f   phobos2-ldc:uni.obj
 0001:00006890       ?catch$4@?0?__D3std7variant18__T8VariantNVki16Z8VariantN15__T7handlerHTvZ7handlerFE3std7variant18__T8VariantNVki16Z8VariantN4OpIDPG16hPvZi@4HA 00407890 f i phobos2-ldc:variant.obj
 0001:00006960       ?catch$2@?0?__D3std7variant18__T8VariantNVki16Z8VariantN4typeMxFNbNdNeZC8TypeInfo@4HA 00407960 f i phobos2-ldc:variant.obj
 0001:00006b60       ?catch$10@?0?__D3std7variant18__T8VariantNVki16Z8VariantN53__T5opCmpTS3std7variant18__T8VariantNVki16Z8VariantNZ5opCmpMFS3std7variant18__T8VariantNVki16Z8VariantNZi@4HA 00407b60 f i phobos2-ldc:variant.obj
 0001:00006b80       ?catch$12@?0?__D3std7variant18__T8VariantNVki16Z8VariantN53__T5opCmpTS3std7variant18__T8VariantNVki16Z8VariantNZ5opCmpMFS3std7variant18__T8VariantNVki16Z8VariantNZi@4HA 00407b80 f i phobos2-ldc:variant.obj
 0001:00006ba0       ?dtor$17@?0?__D3std7variant18__T8VariantNVki16Z8VariantN53__T5opCmpTS3std7variant18__T8VariantNVki16Z8VariantNZ5opCmpMFS3std7variant18__T8VariantNVki16Z8VariantNZi@4HA 00407ba0 f i phobos2-ldc:variant.obj
 0001:00006bf0       __D3std7variant16__moduleinfoCtorZ 00407bf0 f   phobos2-ldc:variant.obj
 0001:00006c10       ___ehhandler$__D3std7variant18__T8VariantNVki16Z8VariantN15__T7handlerHTvZ7handlerFE3std7variant18__T8VariantNVki16Z8VariantN4OpIDPG16hPvZi 00407c10 f   phobos2-ldc:variant.obj
 0001:00006c20       ___ehhandler$__D3std7variant18__T8VariantNVki16Z8VariantN4typeMxFNbNdNeZC8TypeInfo 00407c20 f   phobos2-ldc:variant.obj
 0001:00006c30       ___ehhandler$__D3std7variant18__T8VariantNVki16Z8VariantN53__T5opCmpTS3std7variant18__T8VariantNVki16Z8VariantNZ5opCmpMFS3std7variant18__T8VariantNVki16Z8VariantNZi 00407c30 f   phobos2-ldc:variant.obj
 0001:00007520       ?dtor$2@?0?__D3std11concurrency33__T5_sendTS3std11concurrency3TidZ5_sendFE3std11concurrency7MsgTypeS3std11concurrency3TidS3std11concurrency3TidZv@4HA 00408520 f i phobos2-ldc:concurrency.obj
 0001:00007be0       ?dtor$2@?0?__D3std11concurrency14FiberScheduler6createMFNbDFZvZ4wrapMFZv@4HA 00408be0 f i phobos2-ldc:concurrency.obj
 0001:000082d0       ?dtor$10@?0?__D3std11concurrency10MessageBox3putMFKS3std11concurrency7MessageZv@4HA 004092d0 f i phobos2-ldc:concurrency.obj
 0001:00008310       ?dtor$25@?0?__D3std11concurrency10MessageBox3putMFKS3std11concurrency7MessageZv@4HA 00409310 f i phobos2-ldc:concurrency.obj
 0001:00008350       ?dtor$46@?0?__D3std11concurrency10MessageBox3putMFKS3std11concurrency7MessageZv@4HA 00409350 f i phobos2-ldc:concurrency.obj
 0001:000087c0       ?dtor$9@?0?__D3std11concurrency36__T4ListTS3std11concurrency7MessageZ4List7newNodeMFS3std11concurrency7MessageZPS3std11concurrency36__T4ListTS3std11concurrency7MessageZ4List4Node@4HA 004097c0 f i phobos2-ldc:concurrency.obj
 0001:000087f0       ?dtor$12@?0?__D3std11concurrency36__T4ListTS3std11concurrency7MessageZ4List7newNodeMFS3std11concurrency7MessageZPS3std11concurrency36__T4ListTS3std11concurrency7MessageZ4List4Node@4HA 004097f0 f i phobos2-ldc:concurrency.obj
 0001:00008830       ?dtor$19@?0?__D3std11concurrency36__T4ListTS3std11concurrency7MessageZ4List7newNodeMFS3std11concurrency7MessageZPS3std11concurrency36__T4ListTS3std11concurrency7MessageZ4List4Node@4HA 00409830 f i phobos2-ldc:concurrency.obj
 0001:00009140       ?dtor$41@?0?__D3std7variant18__T8VariantNVki16Z8VariantN35__T7handlerTS3std11concurrency3TidZ7handlerFE3std7variant18__T8VariantNVki16Z8VariantN4OpIDPG16hPvZi@4HA 0040a140 f i phobos2-ldc:concurrency.obj
 0001:00009230       __D3std11concurrency16__moduleinfoCtorZ 0040a230 f   phobos2-ldc:concurrency.obj
 0001:00009250       ___ehhandler$__D3std11concurrency33__T5_sendTS3std11concurrency3TidZ5_sendFE3std11concurrency7MsgTypeS3std11concurrency3TidS3std11concurrency3TidZv 0040a250 f   phobos2-ldc:concurrency.obj
 0001:00009260       ___ehhandler$__D3std11concurrency14FiberScheduler6createMFNbDFZvZ4wrapMFZv 0040a260 f   phobos2-ldc:concurrency.obj
 0001:00009270       ___ehhandler$__D3std11concurrency10MessageBox3putMFKS3std11concurrency7MessageZv 0040a270 f   phobos2-ldc:concurrency.obj
 0001:00009280       ___ehhandler$__D3std11concurrency36__T4ListTS3std11concurrency7MessageZ4List7newNodeMFS3std11concurrency7MessageZPS3std11concurrency36__T4ListTS3std11concurrency7MessageZ4List4Node 0040a280 f   phobos2-ldc:concurrency.obj
 0001:00009290       ___ehhandler$__D3std7variant18__T8VariantNVki16Z8VariantN35__T7handlerTS3std11concurrency3TidZ7handlerFE3std7variant18__T8VariantNVki16Z8VariantN4OpIDPG16hPvZi 0040a290 f   phobos2-ldc:concurrency.obj
 0001:00009900       ?catch$9@?0?__D3std8datetime4Date6__ctorMFNaNbNcNfiZS3std8datetime4Date@4HA 0040a900 f i phobos2-ldc:datetime.obj
 0001:00009920       ?catch$15@?0?__D3std8datetime4Date6__ctorMFNaNbNcNfiZS3std8datetime4Date@4HA 0040a920 f i phobos2-ldc:datetime.obj
 0001:00009940       ?catch$31@?0?__D3std8datetime4Date6__ctorMFNaNbNcNfiZS3std8datetime4Date@4HA 0040a940 f i phobos2-ldc:datetime.obj
 0001:0000a020       ?catch$5@?0?__D3std8datetime7SysTime35__T6opCastTS3std8datetime8DateTimeZ6opCastMxFNbNfZS3std8datetime8DateTime@4HA 0040b020 f i phobos2-ldc:datetime.obj
 0001:0000a4c0       ?catch$2@?0?__D3std8datetime9LocalTime7stdNameMxFNbNdNeZAya@4HA 0040b4c0 f i phobos2-ldc:datetime.obj
 0001:0000a630       ?catch$2@?0?__D3std8datetime9LocalTime7dstNameMxFNbNdNeZAya@4HA 0040b630 f i phobos2-ldc:datetime.obj
 0001:0000ac80       ?catch$47@?0?__D3std8datetime15WindowsTimeZone12_dstInEffectFNbNexPS4core3sys7windows7winbase21TIME_ZONE_INFORMATIONlZb@4HA 0040bc80 f i phobos2-ldc:datetime.obj
 0001:0000afa0       ?catch$11@?0?__D3std8datetime15WindowsTimeZone8_tzToUTCFNbNexPS4core3sys7windows7winbase21TIME_ZONE_INFORMATIONlbZl@4HA 0040bfa0 f i phobos2-ldc:datetime.obj
 0001:0000cc70       __D3std8datetime16__moduleinfoCtorZ 0040dc70 f   phobos2-ldc:datetime.obj
 0001:0000cc90       ___ehhandler$__D3std8datetime4Date6__ctorMFNaNbNcNfiZS3std8datetime4Date 0040dc90 f   phobos2-ldc:datetime.obj
 0001:0000cca0       ___ehhandler$__D3std8datetime7SysTime35__T6opCastTS3std8datetime8DateTimeZ6opCastMxFNbNfZS3std8datetime8DateTime 0040dca0 f   phobos2-ldc:datetime.obj
 0001:0000ccb0       ___ehhandler$__D3std8datetime9LocalTime7stdNameMxFNbNdNeZAya 0040dcb0 f   phobos2-ldc:datetime.obj
 0001:0000ccc0       ___ehhandler$__D3std8datetime9LocalTime7dstNameMxFNbNdNeZAya 0040dcc0 f   phobos2-ldc:datetime.obj
 0001:0000ccd0       ___ehhandler$__D3std8datetime15WindowsTimeZone12_dstInEffectFNbNexPS4core3sys7windows7winbase21TIME_ZONE_INFORMATIONlZb 0040dcd0 f   phobos2-ldc:datetime.obj
 0001:0000cce0       ___ehhandler$__D3std8datetime15WindowsTimeZone8_tzToUTCFNbNexPS4core3sys7windows7winbase21TIME_ZONE_INFORMATIONlbZl 0040dce0 f   phobos2-ldc:datetime.obj
 0001:0000ccf0       __D3std4file16__moduleinfoCtorZ 0040dcf0 f   phobos2-ldc:file.obj
 0001:0000ceb0       ?catch$22@?0?__D3std8internal7cstring23__T11tempCStringTuTAxaZ11tempCStringFNbNiNfAxaZS3std8internal7cstring23__T11tempCStringTuTAxaZ11tempCStringFAxaZ3Res@4HA 0040deb0 f i phobos2-ldc:cstring.obj
 0001:0000cf80       __D3std8internal7cstring16__moduleinfoCtorZ 0040df80 f   phobos2-ldc:cstring.obj
 0001:0000cfa0       ___ehhandler$__D3std8internal7cstring23__T11tempCStringTuTAxaZ11tempCStringFNbNiNfAxaZS3std8internal7cstring23__T11tempCStringTuTAxaZ11tempCStringFAxaZ3Res 0040dfa0 f   phobos2-ldc:cstring.obj
 0001:0000d1e0       ?dtor$16@?0?__D3std7windows8syserror57__T11putSysErrorTS3std5array17__T8AppenderTAyaZ8AppenderZ11putSysErrorFkS3std5array17__T8AppenderTAyaZ8AppenderiZb@4HA 0040e1e0 f i phobos2-ldc:syserror.obj
 0001:0000d510       __D3std7windows8syserror16__moduleinfoCtorZ 0040e510 f   phobos2-ldc:syserror.obj
 0001:0000d530       ___ehhandler$__D3std7windows8syserror57__T11putSysErrorTS3std5array17__T8AppenderTAyaZ8AppenderZ11putSysErrorFkS3std5array17__T8AppenderTAyaZ8AppenderiZb 0040e530 f   phobos2-ldc:syserror.obj
 0001:0000d560       __D3std6format16__moduleinfoCtorZ 0040e560 f   phobos2-ldc:format.obj
 0001:0000d5c0       __D3std4conv16__moduleinfoCtorZ 0040e5c0 f   phobos2-ldc:conv.obj
 0001:0000d5f0       __D3std9stdiobase16__moduleinfoCtorZ 0040e5f0 f   phobos2-ldc:stdiobase.obj
 0001:0000d6a0       __D3std8internal14unicode_tables16__moduleinfoCtorZ 0040e6a0 f   phobos2-ldc:unicode_tables.obj
 0001:0000d6c0       __D3std8internal12unicode_comp16__moduleinfoCtorZ 0040e6c0 f   phobos2-ldc:unicode_comp.obj
 0001:0000d720       __D3std5ascii16__moduleinfoCtorZ 0040e720 f   phobos2-ldc:ascii.obj
 0001:0000d740       __D3std5range16__moduleinfoCtorZ 0040e740 f   phobos2-ldc:package.obj
 0001:0000d760       __D3std5array16__moduleinfoCtorZ 0040e760 f   phobos2-ldc:array.obj
 0001:0000d780       __D3std10functional16__moduleinfoCtorZ 0040e780 f   phobos2-ldc:functional.obj
 0001:0000d7b0       __D3std15concurrencybase16__moduleinfoCtorZ 0040e7b0 f   phobos2-ldc:concurrencybase.obj
 0001:0000d860       ?dtor$2@?0?__D3std12experimental6logger10filelogger10FileLogger6__ctorMFNfS3std5stdio4FilexE3std12experimental6logger4core8LogLevelZC3std12experimental6logger10filelogger10FileLogger@4HA 0040e860 f i phobos2-ldc:filelogger.obj
 0001:0000da50       ?dtor$17@?0?__D3std12experimental6logger10filelogger10FileLogger11beginLogMsgMFNfAyaiAyaAyaAyaE3std12experimental6logger4core8LogLevelS3std11concurrency3TidS3std8datetime7SysTimeC3std12experimental6logger4core6LoggerZv@4HA 0040ea50 f i phobos2-ldc:filelogger.obj
 0001:0000dbe0       ?dtor$3@?0?__D3std12experimental6logger4core60__T18systimeToISOStringTS3std5stdio4File17LockingTextWriterZ18systimeToISOStringFNfS3std5stdio4File17LockingTextWriterKxS3std8datetime7SysTimeZv@4HA 0040ebe0 f i phobos2-ldc:filelogger.obj
 0001:0000e050       ?dtor$8@?0?__D3std6format68__T14formattedWriteTS3std5stdio4File17LockingTextWriterTaTAyaTAyaTiZ14formattedWriteFNfS3std5stdio4File17LockingTextWriterxAaAyaAyaiZk@4HA 0040f050 f i phobos2-ldc:filelogger.obj
 0001:0000e620       ?dtor$8@?0?__D3std6format62__T14formattedWriteTS3std5stdio4File17LockingTextWriterTaTAxaZ14formattedWriteFNfS3std5stdio4File17LockingTextWriterxAaAxaZk@4HA 0040f620 f i phobos2-ldc:filelogger.obj
 0001:0000e650       ?dtor$52@?0?__D3std6format62__T14formattedWriteTS3std5stdio4File17LockingTextWriterTaTAxaZ14formattedWriteFNfS3std5stdio4File17LockingTextWriterxAaAxaZk@4HA 0040f650 f i phobos2-ldc:filelogger.obj
 0001:0000e680       ?dtor$55@?0?__D3std6format62__T14formattedWriteTS3std5stdio4File17LockingTextWriterTaTAxaZ14formattedWriteFNfS3std5stdio4File17LockingTextWriterxAaAxaZk@4HA 0040f680 f i phobos2-ldc:filelogger.obj
 0001:0000e6b0       ?dtor$64@?0?__D3std6format62__T14formattedWriteTS3std5stdio4File17LockingTextWriterTaTAxaZ14formattedWriteFNfS3std5stdio4File17LockingTextWriterxAaAxaZk@4HA 0040f6b0 f i phobos2-ldc:filelogger.obj
 0001:0000e6e0       ?dtor$67@?0?__D3std6format62__T14formattedWriteTS3std5stdio4File17LockingTextWriterTaTAxaZ14formattedWriteFNfS3std5stdio4File17LockingTextWriterxAaAxaZk@4HA 0040f6e0 f i phobos2-ldc:filelogger.obj
 0001:0000e830       ?dtor$9@?0?__D3std12experimental6logger10filelogger10FileLogger12finishLogMsgMFNfZv@4HA 0040f830 f i phobos2-ldc:filelogger.obj
 0001:0000efd0       ?dtor$85@?0?__D3std6format92__T14formattedWriteTS3std5stdio4File17LockingTextWriterTaTsTE3std8datetime5MonthThThThThTxlZ14formattedWriteFNfS3std5stdio4File17LockingTextWriterxAasE3std8datetime5MonthhhhhxlZk@4HA 0040ffd0 f i phobos2-ldc:filelogger.obj
 0001:0000f190       ?dtor$3@?0?__D3std6format59__T13formatGenericTS3std5stdio4File17LockingTextWriterTsTaZ13formatGenericFS3std5stdio4File17LockingTextWriterPxvKS3std6format18__T10FormatSpecTaZ10FormatSpecZv@4HA 00410190 f i phobos2-ldc:filelogger.obj
 0001:0000f3e0       ?dtor$29@?0?__D3std6format57__T11formatValueTS3std5stdio4File17LockingTextWriterTsTaZ11formatValueFNfS3std5stdio4File17LockingTextWritersKS3std6format18__T10FormatSpecTaZ10FormatSpecZv@4HA 004103e0 f i phobos2-ldc:filelogger.obj
 0001:0000f410       ?dtor$32@?0?__D3std6format57__T11formatValueTS3std5stdio4File17LockingTextWriterTsTaZ11formatValueFNfS3std5stdio4File17LockingTextWritersKS3std6format18__T10FormatSpecTaZ10FormatSpecZv@4HA 00410410 f i phobos2-ldc:filelogger.obj
 0001:0000f560       ?dtor$3@?0?__D3std6format78__T13formatGenericTS3std5stdio4File17LockingTextWriterTE3std8datetime5MonthTaZ13formatGenericFS3std5stdio4File17LockingTextWriterPxvKS3std6format18__T10FormatSpecTaZ10FormatSpecZv@4HA 00410560 f i phobos2-ldc:filelogger.obj
 0001:0000fd30       ?dtor$6@?0?__D3std6format76__T11formatValueTS3std5stdio4File17LockingTextWriterTE3std8datetime5MonthTaZ11formatValueFNfS3std5stdio4File17LockingTextWriterE3std8datetime5MonthKS3std6format18__T10FormatSpecTaZ10FormatSpecZv@4HA 00410d30 f i phobos2-ldc:filelogger.obj
 0001:0000fd60       ?dtor$9@?0?__D3std6format76__T11formatValueTS3std5stdio4File17LockingTextWriterTE3std8datetime5MonthTaZ11formatValueFNfS3std5stdio4File17LockingTextWriterE3std8datetime5MonthKS3std6format18__T10FormatSpecTaZ10FormatSpecZv@4HA 00410d60 f i phobos2-ldc:filelogger.obj
 0001:0000fd90       ?dtor$15@?0?__D3std6format76__T11formatValueTS3std5stdio4File17LockingTextWriterTE3std8datetime5MonthTaZ11formatValueFNfS3std5stdio4File17LockingTextWriterE3std8datetime5MonthKS3std6format18__T10FormatSpecTaZ10FormatSpecZv@4HA 00410d90 f i phobos2-ldc:filelogger.obj
 0001:0000fdc0       ?dtor$21@?0?__D3std6format76__T11formatValueTS3std5stdio4File17LockingTextWriterTE3std8datetime5MonthTaZ11formatValueFNfS3std5stdio4File17LockingTextWriterE3std8datetime5MonthKS3std6format18__T10FormatSpecTaZ10FormatSpecZv@4HA 00410dc0 f i phobos2-ldc:filelogger.obj
 0001:0000fdf0       ?dtor$27@?0?__D3std6format76__T11formatValueTS3std5stdio4File17LockingTextWriterTE3std8datetime5MonthTaZ11formatValueFNfS3std5stdio4File17LockingTextWriterE3std8datetime5MonthKS3std6format18__T10FormatSpecTaZ10FormatSpecZv@4HA 00410df0 f i phobos2-ldc:filelogger.obj
 0001:0000fe20       ?dtor$33@?0?__D3std6format76__T11formatValueTS3std5stdio4File17LockingTextWriterTE3std8datetime5MonthTaZ11formatValueFNfS3std5stdio4File17LockingTextWriterE3std8datetime5MonthKS3std6format18__T10FormatSpecTaZ10FormatSpecZv@4HA 00410e20 f i phobos2-ldc:filelogger.obj
 0001:0000fe50       ?dtor$39@?0?__D3std6format76__T11formatValueTS3std5stdio4File17LockingTextWriterTE3std8datetime5MonthTaZ11formatValueFNfS3std5stdio4File17LockingTextWriterE3std8datetime5MonthKS3std6format18__T10FormatSpecTaZ10FormatSpecZv@4HA 00410e50 f i phobos2-ldc:filelogger.obj
 0001:0000fe80       ?dtor$45@?0?__D3std6format76__T11formatValueTS3std5stdio4File17LockingTextWriterTE3std8datetime5MonthTaZ11formatValueFNfS3std5stdio4File17LockingTextWriterE3std8datetime5MonthKS3std6format18__T10FormatSpecTaZ10FormatSpecZv@4HA 00410e80 f i phobos2-ldc:filelogger.obj
 0001:0000feb0       ?dtor$51@?0?__D3std6format76__T11formatValueTS3std5stdio4File17LockingTextWriterTE3std8datetime5MonthTaZ11formatValueFNfS3std5stdio4File17LockingTextWriterE3std8datetime5MonthKS3std6format18__T10FormatSpecTaZ10FormatSpecZv@4HA 00410eb0 f i phobos2-ldc:filelogger.obj
 0001:0000fee0       ?dtor$57@?0?__D3std6format76__T11formatValueTS3std5stdio4File17LockingTextWriterTE3std8datetime5MonthTaZ11formatValueFNfS3std5stdio4File17LockingTextWriterE3std8datetime5MonthKS3std6format18__T10FormatSpecTaZ10FormatSpecZv@4HA 00410ee0 f i phobos2-ldc:filelogger.obj
 0001:0000ff10       ?dtor$63@?0?__D3std6format76__T11formatValueTS3std5stdio4File17LockingTextWriterTE3std8datetime5MonthTaZ11formatValueFNfS3std5stdio4File17LockingTextWriterE3std8datetime5MonthKS3std6format18__T10FormatSpecTaZ10FormatSpecZv@4HA 00410f10 f i phobos2-ldc:filelogger.obj
 0001:0000ff40       ?dtor$69@?0?__D3std6format76__T11formatValueTS3std5stdio4File17LockingTextWriterTE3std8datetime5MonthTaZ11formatValueFNfS3std5stdio4File17LockingTextWriterE3std8datetime5MonthKS3std6format18__T10FormatSpecTaZ10FormatSpecZv@4HA 00410f40 f i phobos2-ldc:filelogger.obj
 0001:0000ff70       ?dtor$75@?0?__D3std6format76__T11formatValueTS3std5stdio4File17LockingTextWriterTE3std8datetime5MonthTaZ11formatValueFNfS3std5stdio4File17LockingTextWriterE3std8datetime5MonthKS3std6format18__T10FormatSpecTaZ10FormatSpecZv@4HA 00410f70 f i phobos2-ldc:filelogger.obj
 0001:00010070       ?dtor$3@?0?__D3std6format59__T13formatGenericTS3std5stdio4File17LockingTextWriterThTaZ13formatGenericFS3std5stdio4File17LockingTextWriterPxvKS3std6format18__T10FormatSpecTaZ10FormatSpecZv@4HA 00411070 f i phobos2-ldc:filelogger.obj
 0001:00010230       ?dtor$17@?0?__D3std6format57__T11formatValueTS3std5stdio4File17LockingTextWriterThTaZ11formatValueFNfS3std5stdio4File17LockingTextWriterhKS3std6format18__T10FormatSpecTaZ10FormatSpecZv@4HA 00411230 f i phobos2-ldc:filelogger.obj
 0001:00010260       ?dtor$20@?0?__D3std6format57__T11formatValueTS3std5stdio4File17LockingTextWriterThTaZ11formatValueFNfS3std5stdio4File17LockingTextWriterhKS3std6format18__T10FormatSpecTaZ10FormatSpecZv@4HA 00411260 f i phobos2-ldc:filelogger.obj
 0001:000103b0       ?dtor$3@?0?__D3std6format60__T13formatGenericTS3std5stdio4File17LockingTextWriterTxlTaZ13formatGenericFS3std5stdio4File17LockingTextWriterPxvKS3std6format18__T10FormatSpecTaZ10FormatSpecZv@4HA 004113b0 f i phobos2-ldc:filelogger.obj
 0001:000107c0       ?dtor$66@?0?__D3std6format58__T11formatValueTS3std5stdio4File17LockingTextWriterTxlTaZ11formatValueFNfS3std5stdio4File17LockingTextWriterxlKS3std6format18__T10FormatSpecTaZ10FormatSpecZv@4HA 004117c0 f i phobos2-ldc:filelogger.obj
 0001:000107f0       ?dtor$69@?0?__D3std6format58__T11formatValueTS3std5stdio4File17LockingTextWriterTxlTaZ11formatValueFNfS3std5stdio4File17LockingTextWriterxlKS3std6format18__T10FormatSpecTaZ10FormatSpecZv@4HA 004117f0 f i phobos2-ldc:filelogger.obj
 0001:00010a10       ?dtor$18@?0?__D3std6format18__T10FormatSpecTaZ10FormatSpec59__T17writeUpToNextSpecTS3std5stdio4File17LockingTextWriterZ17writeUpToNextSpecMFNfS3std5stdio4File17LockingTextWriterZb@4HA 00411a10 f i phobos2-ldc:filelogger.obj
 0001:00010dd0       ?dtor$75@?0?__D3std6format60__T14formatUnsignedTS3std5stdio4File17LockingTextWriterTmTaZ14formatUnsignedFNfS3std5stdio4File17LockingTextWritermKxS3std6format18__T10FormatSpecTaZ10FormatSpeckbZv@4HA 00411dd0 f i phobos2-ldc:filelogger.obj
 0001:00011430       ?dtor$34@?0?__D3std6format59__T11formatRangeTS3std5stdio4File17LockingTextWriterTAyaTaZ11formatRangeFNfKS3std5stdio4File17LockingTextWriterKAyaKS3std6format18__T10FormatSpecTaZ10FormatSpecZv@4HA 00412430 f i phobos2-ldc:filelogger.obj
 0001:00011470       ?dtor$37@?0?__D3std6format59__T11formatRangeTS3std5stdio4File17LockingTextWriterTAyaTaZ11formatRangeFNfKS3std5stdio4File17LockingTextWriterKAyaKS3std6format18__T10FormatSpecTaZ10FormatSpecZv@4HA 00412470 f i phobos2-ldc:filelogger.obj
 0001:000114b0       ?dtor$48@?0?__D3std6format59__T11formatRangeTS3std5stdio4File17LockingTextWriterTAyaTaZ11formatRangeFNfKS3std5stdio4File17LockingTextWriterKAyaKS3std6format18__T10FormatSpecTaZ10FormatSpecZv@4HA 004124b0 f i phobos2-ldc:filelogger.obj
 0001:000115c0       ?dtor$5@?0?__D3std6format58__T11formatValueTS3std5stdio4File17LockingTextWriterTxaTaZ11formatValueFNfS3std5stdio4File17LockingTextWriterxaKS3std6format18__T10FormatSpecTaZ10FormatSpecZv@4HA 004125c0 f i phobos2-ldc:filelogger.obj
 0001:000115c0       ?dtor$5@?0?__D3std6format58__T11formatValueTS3std5stdio4File17LockingTextWriterTyaTaZ11formatValueFNfS3std5stdio4File17LockingTextWriteryaKS3std6format18__T10FormatSpecTaZ10FormatSpecZv@4HA 004125c0 f i phobos2-ldc:filelogger.obj
 0001:00011790       ?dtor$9@?0?__D3std6format59__T13formatElementTS3std5stdio4File17LockingTextWriterTwTaZ13formatElementFNfS3std5stdio4File17LockingTextWriterwKS3std6format18__T10FormatSpecTaZ10FormatSpecZv@4HA 00412790 f i phobos2-ldc:filelogger.obj
 0001:000117c0       ?dtor$20@?0?__D3std6format59__T13formatElementTS3std5stdio4File17LockingTextWriterTwTaZ13formatElementFNfS3std5stdio4File17LockingTextWriterwKS3std6format18__T10FormatSpecTaZ10FormatSpecZv@4HA 004127c0 f i phobos2-ldc:filelogger.obj
 0001:00011aa0       ?dtor$42@?0?__D3std6format57__T11formatValueTS3std5stdio4File17LockingTextWriterTkTaZ11formatValueFNfS3std5stdio4File17LockingTextWriterkKS3std6format18__T10FormatSpecTaZ10FormatSpecZv@4HA 00412aa0 f i phobos2-ldc:filelogger.obj
 0001:00011ad0       ?dtor$45@?0?__D3std6format57__T11formatValueTS3std5stdio4File17LockingTextWriterTkTaZ11formatValueFNfS3std5stdio4File17LockingTextWriterkKS3std6format18__T10FormatSpecTaZ10FormatSpecZv@4HA 00412ad0 f i phobos2-ldc:filelogger.obj
 0001:00011d40       ?dtor$16@?0?__D3std6format52__T10formatCharTS3std5stdio4File17LockingTextWriterZ10formatCharFNfS3std5stdio4File17LockingTextWriterxwxaZv@4HA 00412d40 f i phobos2-ldc:filelogger.obj
 0001:00012250       ?dtor$8@?0?__D3std6format60__T14formattedWriteTS3std5stdio4File17LockingTextWriterTaTkZ14formattedWriteFNfS3std5stdio4File17LockingTextWriterxAakZk@4HA 00413250 f i phobos2-ldc:filelogger.obj
 0001:00012280       ?dtor$51@?0?__D3std6format60__T14formattedWriteTS3std5stdio4File17LockingTextWriterTaTkZ14formattedWriteFNfS3std5stdio4File17LockingTextWriterxAakZk@4HA 00413280 f i phobos2-ldc:filelogger.obj
 0001:000122b0       ?dtor$59@?0?__D3std6format60__T14formattedWriteTS3std5stdio4File17LockingTextWriterTaTkZ14formattedWriteFNfS3std5stdio4File17LockingTextWriterxAakZk@4HA 004132b0 f i phobos2-ldc:filelogger.obj
 0001:00012550       ?dtor$4@?0?__D3std6format61__T13formatGenericTS3std5stdio4File17LockingTextWriterTAyaTaZ13formatGenericFS3std5stdio4File17LockingTextWriterPxvKS3std6format18__T10FormatSpecTaZ10FormatSpecZv@4HA 00413550 f i phobos2-ldc:filelogger.obj
 0001:00012580       ?dtor$7@?0?__D3std6format61__T13formatGenericTS3std5stdio4File17LockingTextWriterTAyaTaZ13formatGenericFS3std5stdio4File17LockingTextWriterPxvKS3std6format18__T10FormatSpecTaZ10FormatSpecZv@4HA 00413580 f i phobos2-ldc:filelogger.obj
 0001:00012650       ?dtor$3@?0?__D3std6format59__T13formatGenericTS3std5stdio4File17LockingTextWriterTiTaZ13formatGenericFS3std5stdio4File17LockingTextWriterPxvKS3std6format18__T10FormatSpecTaZ10FormatSpecZv@4HA 00413650 f i phobos2-ldc:filelogger.obj
 0001:00012930       ?dtor$42@?0?__D3std6format57__T11formatValueTS3std5stdio4File17LockingTextWriterTiTaZ11formatValueFNfS3std5stdio4File17LockingTextWriteriKS3std6format18__T10FormatSpecTaZ10FormatSpecZv@4HA 00413930 f i phobos2-ldc:filelogger.obj
 0001:00012960       ?dtor$45@?0?__D3std6format57__T11formatValueTS3std5stdio4File17LockingTextWriterTiTaZ11formatValueFNfS3std5stdio4File17LockingTextWriteriKS3std6format18__T10FormatSpecTaZ10FormatSpecZv@4HA 00413960 f i phobos2-ldc:filelogger.obj
 0001:00013040       ?dtor$32@?0?__D3std6format59__T11formatRangeTS3std5stdio4File17LockingTextWriterTAxaTaZ11formatRangeFNfKS3std5stdio4File17LockingTextWriterKAxaKS3std6format18__T10FormatSpecTaZ10FormatSpecZv@4HA 00414040 f i phobos2-ldc:filelogger.obj
 0001:00013080       ?dtor$35@?0?__D3std6format59__T11formatRangeTS3std5stdio4File17LockingTextWriterTAxaTaZ11formatRangeFNfKS3std5stdio4File17LockingTextWriterKAxaKS3std6format18__T10FormatSpecTaZ10FormatSpecZv@4HA 00414080 f i phobos2-ldc:filelogger.obj
 0001:000130c0       ?dtor$44@?0?__D3std6format59__T11formatRangeTS3std5stdio4File17LockingTextWriterTAxaTaZ11formatRangeFNfKS3std5stdio4File17LockingTextWriterKAxaKS3std6format18__T10FormatSpecTaZ10FormatSpecZv@4HA 004140c0 f i phobos2-ldc:filelogger.obj
 0001:00013100       __D3std12experimental6logger10filelogger16__moduleinfoCtorZ 00414100 f   phobos2-ldc:filelogger.obj
 0001:00013120       ___ehhandler$__D3std12experimental6logger10filelogger10FileLogger6__ctorMFNfS3std5stdio4FilexE3std12experimental6logger4core8LogLevelZC3std12experimental6logger10filelogger10FileLogger 00414120 f   phobos2-ldc:filelogger.obj
 0001:00013130       ___ehhandler$__D3std12experimental6logger10filelogger10FileLogger11beginLogMsgMFNfAyaiAyaAyaAyaE3std12experimental6logger4core8LogLevelS3std11concurrency3TidS3std8datetime7SysTimeC3std12experimental6logger4core6LoggerZv 00414130 f   phobos2-ldc:filelogger.obj
 0001:00013140       ___ehhandler$__D3std12experimental6logger4core60__T18systimeToISOStringTS3std5stdio4File17LockingTextWriterZ18systimeToISOStringFNfS3std5stdio4File17LockingTextWriterKxS3std8datetime7SysTimeZv 00414140 f   phobos2-ldc:filelogger.obj
 0001:00013150       ___ehhandler$__D3std6format68__T14formattedWriteTS3std5stdio4File17LockingTextWriterTaTAyaTAyaTiZ14formattedWriteFNfS3std5stdio4File17LockingTextWriterxAaAyaAyaiZk 00414150 f   phobos2-ldc:filelogger.obj
 0001:00013160       ___ehhandler$__D3std6format62__T14formattedWriteTS3std5stdio4File17LockingTextWriterTaTAxaZ14formattedWriteFNfS3std5stdio4File17LockingTextWriterxAaAxaZk 00414160 f   phobos2-ldc:filelogger.obj
 0001:00013170       ___ehhandler$__D3std12experimental6logger10filelogger10FileLogger12finishLogMsgMFNfZv 00414170 f   phobos2-ldc:filelogger.obj
 0001:00013180       ___ehhandler$__D3std6format92__T14formattedWriteTS3std5stdio4File17LockingTextWriterTaTsTE3std8datetime5MonthThThThThTxlZ14formattedWriteFNfS3std5stdio4File17LockingTextWriterxAasE3std8datetime5MonthhhhhxlZk 00414180 f   phobos2-ldc:filelogger.obj
 0001:00013190       ___ehhandler$__D3std6format59__T13formatGenericTS3std5stdio4File17LockingTextWriterTsTaZ13formatGenericFS3std5stdio4File17LockingTextWriterPxvKS3std6format18__T10FormatSpecTaZ10FormatSpecZv 00414190 f   phobos2-ldc:filelogger.obj
 0001:000131a0       ___ehhandler$__D3std6format57__T11formatValueTS3std5stdio4File17LockingTextWriterTsTaZ11formatValueFNfS3std5stdio4File17LockingTextWritersKS3std6format18__T10FormatSpecTaZ10FormatSpecZv 004141a0 f   phobos2-ldc:filelogger.obj
 0001:000131b0       ___ehhandler$__D3std6format78__T13formatGenericTS3std5stdio4File17LockingTextWriterTE3std8datetime5MonthTaZ13formatGenericFS3std5stdio4File17LockingTextWriterPxvKS3std6format18__T10FormatSpecTaZ10FormatSpecZv 004141b0 f   phobos2-ldc:filelogger.obj
 0001:000131c0       ___ehhandler$__D3std6format76__T11formatValueTS3std5stdio4File17LockingTextWriterTE3std8datetime5MonthTaZ11formatValueFNfS3std5stdio4File17LockingTextWriterE3std8datetime5MonthKS3std6format18__T10FormatSpecTaZ10FormatSpecZv 004141c0 f   phobos2-ldc:filelogger.obj
 0001:000131d0       ___ehhandler$__D3std6format59__T13formatGenericTS3std5stdio4File17LockingTextWriterThTaZ13formatGenericFS3std5stdio4File17LockingTextWriterPxvKS3std6format18__T10FormatSpecTaZ10FormatSpecZv 004141d0 f   phobos2-ldc:filelogger.obj
 0001:000131e0       ___ehhandler$__D3std6format57__T11formatValueTS3std5stdio4File17LockingTextWriterThTaZ11formatValueFNfS3std5stdio4File17LockingTextWriterhKS3std6format18__T10FormatSpecTaZ10FormatSpecZv 004141e0 f   phobos2-ldc:filelogger.obj
 0001:000131f0       ___ehhandler$__D3std6format60__T13formatGenericTS3std5stdio4File17LockingTextWriterTxlTaZ13formatGenericFS3std5stdio4File17LockingTextWriterPxvKS3std6format18__T10FormatSpecTaZ10FormatSpecZv 004141f0 f   phobos2-ldc:filelogger.obj
 0001:00013200       ___ehhandler$__D3std6format58__T11formatValueTS3std5stdio4File17LockingTextWriterTxlTaZ11formatValueFNfS3std5stdio4File17LockingTextWriterxlKS3std6format18__T10FormatSpecTaZ10FormatSpecZv 00414200 f   phobos2-ldc:filelogger.obj
 0001:00013210       ___ehhandler$__D3std6format18__T10FormatSpecTaZ10FormatSpec59__T17writeUpToNextSpecTS3std5stdio4File17LockingTextWriterZ17writeUpToNextSpecMFNfS3std5stdio4File17LockingTextWriterZb 00414210 f   phobos2-ldc:filelogger.obj
 0001:00013220       ___ehhandler$__D3std6format60__T14formatUnsignedTS3std5stdio4File17LockingTextWriterTmTaZ14formatUnsignedFNfS3std5stdio4File17LockingTextWritermKxS3std6format18__T10FormatSpecTaZ10FormatSpeckbZv 00414220 f   phobos2-ldc:filelogger.obj
 0001:00013230       ___ehhandler$__D3std6format59__T11formatRangeTS3std5stdio4File17LockingTextWriterTAyaTaZ11formatRangeFNfKS3std5stdio4File17LockingTextWriterKAyaKS3std6format18__T10FormatSpecTaZ10FormatSpecZv 00414230 f   phobos2-ldc:filelogger.obj
 0001:00013240       ___ehhandler$__D3std6format58__T11formatValueTS3std5stdio4File17LockingTextWriterTxaTaZ11formatValueFNfS3std5stdio4File17LockingTextWriterxaKS3std6format18__T10FormatSpecTaZ10FormatSpecZv 00414240 f   phobos2-ldc:filelogger.obj
 0001:00013240       ___ehhandler$__D3std6format58__T11formatValueTS3std5stdio4File17LockingTextWriterTyaTaZ11formatValueFNfS3std5stdio4File17LockingTextWriteryaKS3std6format18__T10FormatSpecTaZ10FormatSpecZv 00414240 f   phobos2-ldc:filelogger.obj
 0001:00013250       ___ehhandler$__D3std6format59__T13formatElementTS3std5stdio4File17LockingTextWriterTwTaZ13formatElementFNfS3std5stdio4File17LockingTextWriterwKS3std6format18__T10FormatSpecTaZ10FormatSpecZv 00414250 f   phobos2-ldc:filelogger.obj
 0001:00013260       ___ehhandler$__D3std6format57__T11formatValueTS3std5stdio4File17LockingTextWriterTkTaZ11formatValueFNfS3std5stdio4File17LockingTextWriterkKS3std6format18__T10FormatSpecTaZ10FormatSpecZv 00414260 f   phobos2-ldc:filelogger.obj
 0001:00013270       ___ehhandler$__D3std6format52__T10formatCharTS3std5stdio4File17LockingTextWriterZ10formatCharFNfS3std5stdio4File17LockingTextWriterxwxaZv 00414270 f   phobos2-ldc:filelogger.obj
 0001:00013280       ___ehhandler$__D3std6format60__T14formattedWriteTS3std5stdio4File17LockingTextWriterTaTkZ14formattedWriteFNfS3std5stdio4File17LockingTextWriterxAakZk 00414280 f   phobos2-ldc:filelogger.obj
 0001:00013290       ___ehhandler$__D3std6format61__T13formatGenericTS3std5stdio4File17LockingTextWriterTAyaTaZ13formatGenericFS3std5stdio4File17LockingTextWriterPxvKS3std6format18__T10FormatSpecTaZ10FormatSpecZv 00414290 f   phobos2-ldc:filelogger.obj
 0001:000132a0       ___ehhandler$__D3std6format59__T13formatGenericTS3std5stdio4File17LockingTextWriterTiTaZ13formatGenericFS3std5stdio4File17LockingTextWriterPxvKS3std6format18__T10FormatSpecTaZ10FormatSpecZv 004142a0 f   phobos2-ldc:filelogger.obj
 0001:000132b0       ___ehhandler$__D3std6format57__T11formatValueTS3std5stdio4File17LockingTextWriterTiTaZ11formatValueFNfS3std5stdio4File17LockingTextWriteriKS3std6format18__T10FormatSpecTaZ10FormatSpecZv 004142b0 f   phobos2-ldc:filelogger.obj
 0001:000132c0       ___ehhandler$__D3std6format59__T11formatRangeTS3std5stdio4File17LockingTextWriterTAxaTaZ11formatRangeFNfKS3std5stdio4File17LockingTextWriterKAxaKS3std6format18__T10FormatSpecTaZ10FormatSpecZv 004142c0 f   phobos2-ldc:filelogger.obj
 0001:00014670       ?catch$14@?0?__D3std6socket7Address8toStringMxFNfZAya@4HA 00415670 f i phobos2-ldc:socket.obj
 0001:00015010       ?catch$3@?0?__D3std6socket6Socket6acceptMFNeZC3std6socket6Socket@4HA 00416010 f i phobos2-ldc:socket.obj
 0001:000168a0       __D3std6socket16__moduleinfoCtorZ 004178a0 f   phobos2-ldc:socket.obj
 0001:000168c0       ___ehhandler$__D3std6socket7Address8toStringMxFNfZAya 004178c0 f   phobos2-ldc:socket.obj
 0001:000168d0       ___ehhandler$__D3std6socket6Socket6acceptMFNeZC3std6socket6Socket 004178d0 f   phobos2-ldc:socket.obj
 0001:00016ac0       ?dtor$6@?0?__D3std7windows8registry12regCreateKeyFxPvxAyaxkxE3std7windows8registry6REGSAMxPS4core3sys7windows5winnt19SECURITY_ATTRIBUTESJkZPv@4HA 00417ac0 f i phobos2-ldc:registry.obj
 0001:00016c50       ?dtor$4@?0?__D3std7windows8registry12regDeleteKeyFxPvxAyaxE3std7windows8registry6REGSAMZv@4HA 00417c50 f i phobos2-ldc:registry.obj
 0001:00016e10       ?dtor$6@?0?__D3std7windows8registry14regDeleteValueFxPvxAyaZv@4HA 00417e10 f i phobos2-ldc:registry.obj
 0001:00016f90       ?dtor$6@?0?__D3std7windows8registry15regGetValueTypeFxPvxAyaZE3std7windows8registry14REG_VALUE_TYPE@4HA 00417f90 f i phobos2-ldc:registry.obj
 0001:00017120       ?dtor$6@?0?__D3std7windows8registry10regOpenKeyFxPvxAyaxE3std7windows8registry6REGSAMZPv@4HA 00418120 f i phobos2-ldc:registry.obj
 0001:000174a0       ?dtor$7@?0?__D3std7windows8registry13regQueryValueFxPvAyaJAyaE3std7windows8registry14REG_VALUE_TYPEZv@4HA 004184a0 f i phobos2-ldc:registry.obj
 0001:000178b0       ?dtor$34@?0?__D3std7windows8registry13regQueryValueFxPvxAyaJAAyaE3std7windows8registry14REG_VALUE_TYPEZv@4HA 004188b0 f i phobos2-ldc:registry.obj
 0001:00017ab0       ?dtor$6@?0?__D3std7windows8registry13regQueryValueFxPvxAyaJkE3std7windows8registry14REG_VALUE_TYPEZv@4HA 00418ab0 f i phobos2-ldc:registry.obj
 0001:00017d20       ?dtor$6@?0?__D3std7windows8registry13regQueryValueFxPvxAyaJmE3std7windows8registry14REG_VALUE_TYPEZv@4HA 00418d20 f i phobos2-ldc:registry.obj
 0001:00018090       ?dtor$7@?0?__D3std7windows8registry13regQueryValueFxPvxAyaJAgE3std7windows8registry14REG_VALUE_TYPEZv@4HA 00419090 f i phobos2-ldc:registry.obj
 0001:00018200       ?dtor$6@?0?__D3std7windows8registry11regSetValueFxPvxAyaxE3std7windows8registry14REG_VALUE_TYPExPvxkZv@4HA 00419200 f i phobos2-ldc:registry.obj
 0001:000186e0       ?dtor$3@?0?__D3std7windows8registry3Key9createKeyMFAyaE3std7windows8registry6REGSAMZC3std7windows8registry3Key@4HA 004196e0 f i phobos2-ldc:registry.obj
 0001:000188c0       ?dtor$10@?0?__D3std7windows8registry3Key6getKeyMFAyaE3std7windows8registry6REGSAMZC3std7windows8registry3Key@4HA 004198c0 f i phobos2-ldc:registry.obj
 0001:00018b80       ?dtor$2@?0?__D3std7windows8registry3Key8setValueMFAyaAyabZv@4HA 00419b80 f i phobos2-ldc:registry.obj
 0001:00019010       ?dtor$6@?0?__D3std7windows8registry5Value15value_EXPAND_SZMxFNdZAya@4HA 0041a010 f i phobos2-ldc:registry.obj
 0001:000196d0       ?catch$8@?0?__D3std7windows8registry11KeySequence7opApplyMFMDFKC3std7windows8registry3KeyZiZ9__lambda2MFMDFkJAyaZiZv@4HA 0041a6d0 f i phobos2-ldc:registry.obj
 0001:0001a780       __D3std7windows8registry16__moduleinfoCtorZ 0041b780 f   phobos2-ldc:registry.obj
 0001:0001a7a0       ___ehhandler$__D3std7windows8registry12regCreateKeyFxPvxAyaxkxE3std7windows8registry6REGSAMxPS4core3sys7windows5winnt19SECURITY_ATTRIBUTESJkZPv 0041b7a0 f   phobos2-ldc:registry.obj
 0001:0001a7b0       ___ehhandler$__D3std7windows8registry12regDeleteKeyFxPvxAyaxE3std7windows8registry6REGSAMZv 0041b7b0 f   phobos2-ldc:registry.obj
 0001:0001a7c0       ___ehhandler$__D3std7windows8registry14regDeleteValueFxPvxAyaZv 0041b7c0 f   phobos2-ldc:registry.obj
 0001:0001a7d0       ___ehhandler$__D3std7windows8registry15regGetValueTypeFxPvxAyaZE3std7windows8registry14REG_VALUE_TYPE 0041b7d0 f   phobos2-ldc:registry.obj
 0001:0001a7e0       ___ehhandler$__D3std7windows8registry10regOpenKeyFxPvxAyaxE3std7windows8registry6REGSAMZPv 0041b7e0 f   phobos2-ldc:registry.obj
 0001:0001a7f0       ___ehhandler$__D3std7windows8registry13regQueryValueFxPvAyaJAyaE3std7windows8registry14REG_VALUE_TYPEZv 0041b7f0 f   phobos2-ldc:registry.obj
 0001:0001a800       ___ehhandler$__D3std7windows8registry13regQueryValueFxPvxAyaJAAyaE3std7windows8registry14REG_VALUE_TYPEZv 0041b800 f   phobos2-ldc:registry.obj
 0001:0001a810       ___ehhandler$__D3std7windows8registry13regQueryValueFxPvxAyaJkE3std7windows8registry14REG_VALUE_TYPEZv 0041b810 f   phobos2-ldc:registry.obj
 0001:0001a820       ___ehhandler$__D3std7windows8registry13regQueryValueFxPvxAyaJmE3std7windows8registry14REG_VALUE_TYPEZv 0041b820 f   phobos2-ldc:registry.obj
 0001:0001a830       ___ehhandler$__D3std7windows8registry13regQueryValueFxPvxAyaJAgE3std7windows8registry14REG_VALUE_TYPEZv 0041b830 f   phobos2-ldc:registry.obj
 0001:0001a840       ___ehhandler$__D3std7windows8registry11regSetValueFxPvxAyaxE3std7windows8registry14REG_VALUE_TYPExPvxkZv 0041b840 f   phobos2-ldc:registry.obj
 0001:0001a850       ___ehhandler$__D3std7windows8registry3Key9createKeyMFAyaE3std7windows8registry6REGSAMZC3std7windows8registry3Key 0041b850 f   phobos2-ldc:registry.obj
 0001:0001a860       ___ehhandler$__D3std7windows8registry3Key6getKeyMFAyaE3std7windows8registry6REGSAMZC3std7windows8registry3Key 0041b860 f   phobos2-ldc:registry.obj
 0001:0001a870       ___ehhandler$__D3std7windows8registry3Key8setValueMFAyaAyabZv 0041b870 f   phobos2-ldc:registry.obj
 0001:0001a880       ___ehhandler$__D3std7windows8registry5Value15value_EXPAND_SZMxFNdZAya 0041b880 f   phobos2-ldc:registry.obj
 0001:0001a890       ___ehhandler$__D3std7windows8registry11KeySequence7opApplyMFMDFKC3std7windows8registry3KeyZiZ9__lambda2MFMDFkJAyaZiZv 0041b890 f   phobos2-ldc:registry.obj
 0001:0001a8a0       __D3std8bitmanip16__moduleinfoCtorZ 0041b8a0 f   phobos2-ldc:bitmanip.obj
 0001:0001a8c0       __D3std4path16__moduleinfoCtorZ 0041b8c0 f   phobos2-ldc:path.obj
 0001:0001a900       __D3std7process16__moduleinfoCtorZ 0041b900 f   phobos2-ldc:process.obj
 0001:0001ace0       ?dtor$9@?0?__D3std12experimental6logger4core6Logger10forwardMsgMFNeKS3std12experimental6logger4core6Logger8LogEntryZv@4HA 0041bce0 f i phobos2-ldc:core.obj
 0001:0001ae20       ?dtor$7@?0?__D3std12experimental6logger4core23defaultSharedLoggerImplFNdNeZC3std12experimental6logger4core6Logger@4HA 0041be20 f i phobos2-ldc:core.obj
 0001:0001aed0       __D3std12experimental6logger4core16__moduleinfoCtorZ 0041bed0 f   phobos2-ldc:core.obj
 0001:0001aef0       ___ehhandler$__D3std12experimental6logger4core6Logger10forwardMsgMFNeKS3std12experimental6logger4core6Logger8LogEntryZv 0041bef0 f   phobos2-ldc:core.obj
 0001:0001af00       ___ehhandler$__D3std12experimental6logger4core23defaultSharedLoggerImplFNdNeZC3std12experimental6logger4core6Logger 0041bf00 f   phobos2-ldc:core.obj
 0001:0001af10       __D3std6string16__moduleinfoCtorZ 0041bf10 f   phobos2-ldc:string.obj
 0001:0001b160       __D3std8internal7windows8advapi3216__moduleinfoCtorZ 0041c160 f   phobos2-ldc:advapi32.obj
 0001:0001b180       __D3std6random16__moduleinfoCtorZ 0041c180 f   phobos2-ldc:random.obj
 0001:0001b290       __D2rt6aApply16__moduleinfoCtorZ 0041c290 f   druntime-ldc:aApply.obj
 0001:0001c740       ?catch$14@?0?rt_finalize2@4HA 0041d740 f i druntime-ldc:lifetime.obj
 0001:0001c8e0       ?catch$13@?0?rt_finalizeFromGC@4HA 0041d8e0 f i druntime-ldc:lifetime.obj
 0001:0001c900       ?catch$17@?0?rt_finalizeFromGC@4HA 0041d900 f i druntime-ldc:lifetime.obj
 0001:0001fa50       __D2rt8lifetime16__moduleinfoCtorZ 00420a50 f   druntime-ldc:lifetime.obj
 0001:0001fa70       ___ehhandler$rt_finalize2  00420a70 f   druntime-ldc:lifetime.obj
 0001:0001fa80       ___ehhandler$rt_finalizeFromGC 00420a80 f   druntime-ldc:lifetime.obj
 0001:00020710       __D3ldc2eh4msvc16__moduleinfoCtorZ 00421710 f   druntime-ldc:msvc.obj
 0001:00020d00       __D4core9exception16__moduleinfoCtorZ 00421d00 f   druntime-ldc:exception.obj
 0001:00020d70       __D2rt3adi16__moduleinfoCtorZ 00421d70 f   druntime-ldc:adi.obj
 0001:00020f70       __D2rt8typeinfo5ti_Ag16__moduleinfoCtorZ 00421f70 f   druntime-ldc:ti_Ag.obj
 0001:00021220       ?catch$4@?0?__D6object8TypeInfo6toHashMxFNbNeZk@4HA 00422220 f i druntime-ldc:object.obj
 0001:00022bc0       ?catch$5@?0?__D6object9Throwable8toStringMxFMDFxAaZvZv@4HA 00423bc0 f i druntime-ldc:object.obj
 0001:00022d80       __D6object16__moduleinfoCtorZ 00423d80 f   druntime-ldc:object.obj
 0001:00022da0       ___ehhandler$__D6object8TypeInfo6toHashMxFNbNeZk 00423da0 f   druntime-ldc:object.obj
 0001:00022db0       ___ehhandler$__D6object9Throwable8toStringMxFMDFxAaZvZv 00423db0 f   druntime-ldc:object.obj
 0001:00022eb0       ?catch$10@?0?rt_init@4HA   00423eb0 f i druntime-ldc:dmain2.obj
 0001:000233b0       ?dtor$10@?0?rt_term@4HA    004243b0 f i druntime-ldc:dmain2.obj
 0001:000233e0       ?catch$13@?0?rt_term@4HA   004243e0 f i druntime-ldc:dmain2.obj
 0001:00023760       ?catch$25@?0?_d_run_main@4HA 00424760 f i druntime-ldc:dmain2.obj
 0001:00023820       ?catch$2@?0?__D2rt6dmain211_d_run_mainUiPPaPUAAaZiZ7tryExecMFMDFZvZv@4HA 00424820 f i druntime-ldc:dmain2.obj
 0001:000238f0       __D2rt6dmain216__moduleinfoCtorZ 004248f0 f   druntime-ldc:dmain2.obj
 0001:00023910       ___ehhandler$rt_init       00424910 f   druntime-ldc:dmain2.obj
 0001:00023920       ___ehhandler$rt_term       00424920 f   druntime-ldc:dmain2.obj
 0001:00023930       ___ehhandler$_d_run_main   00424930 f   druntime-ldc:dmain2.obj
 0001:00023940       ___ehhandler$__D2rt6dmain211_d_run_mainUiPPaPUAAaZiZ7tryExecMFMDFZvZv 00424940 f   druntime-ldc:dmain2.obj
 0001:000239d0       __D2rt8typeinfo7ti_uint16__moduleinfoCtorZ 004249d0 f   druntime-ldc:ti_uint.obj
 0001:00023a60       __D2rt8typeinfo8ti_ubyte16__moduleinfoCtorZ 00424a60 f   druntime-ldc:ti_ubyte.obj
 0001:00023a90       __D4core4stdc6wchar_16__moduleinfoCtorZ 00424a90 f   druntime-ldc:wchar_.obj
 0001:00023af0       __D2rt8typeinfo7ti_char16__moduleinfoCtorZ 00424af0 f   druntime-ldc:ti_char.obj
 0001:00023b20       __D4core4stdc5errno16__moduleinfoCtorZ 00424b20 f   druntime-ldc:errno.obj
 0001:00023b40       __D4core4stdc5stdio16__moduleinfoCtorZ 00424b40 f   druntime-ldc:stdio.obj
 0001:00023b90       __D4core5bitop16__moduleinfoCtorZ 00424b90 f   druntime-ldc:bitop.obj
 0001:00023cc0       __D3ldc9arrayinit16__moduleinfoCtorZ 00424cc0 f   druntime-ldc:arrayinit.obj
 0001:00023de0       __D4core6memory16__moduleinfoCtorZ 00424de0 f   druntime-ldc:memory.obj
 0001:000240a0       __D2rt12sections_ldc16__moduleinfoCtorZ 004250a0 f   druntime-ldc:sections_ldc.obj
 0001:000240f0       __D2rt8typeinfo8ti_dchar16__moduleinfoCtorZ 004250f0 f   druntime-ldc:ti_dchar.obj
 0001:00024170       __D2rt8typeinfo8ti_wchar16__moduleinfoCtorZ 00425170 f   druntime-ldc:ti_wchar.obj
 0001:000241b0       __D2rt8typeinfo9ti_ushort16__moduleinfoCtorZ 004251b0 f   druntime-ldc:ti_ushort.obj
 0001:000242d0       __D4core8internal6string16__moduleinfoCtorZ 004252d0 f   druntime-ldc:string.obj
 0001:00024460       __D2rt8typeinfo9ti_Ashort16__moduleinfoCtorZ 00425460 f   druntime-ldc:ti_Ashort.obj
 0001:00024640       __D2rt8typeinfo7ti_Aint16__moduleinfoCtorZ 00425640 f   druntime-ldc:ti_Aint.obj
 0001:00024690       __D2rt8typeinfo6ti_int16__moduleinfoCtorZ 00425690 f   druntime-ldc:ti_int.obj
 0001:000246c0       __D2rt8typeinfo7ti_void16__moduleinfoCtorZ 004256c0 f   druntime-ldc:ti_void.obj
 0001:00024ba0       __D2rt3aaA16__moduleinfoCtorZ 00425ba0 f   druntime-ldc:aaA.obj
 0001:00024c50       __D4core4sync5mutex16__moduleinfoCtorZ 00425c50 f   druntime-ldc:mutex.obj
 0001:00024e50       ?catch$9@?0?__D4core4sync9condition9Condition6__ctorMFNbNfC4core4sync5mutex5MutexZC4core4sync9condition9Condition@4HA 00425e50 f i druntime-ldc:condition.obj
 0001:00024e70       ?catch$15@?0?__D4core4sync9condition9Condition6__ctorMFNbNfC4core4sync5mutex5MutexZC4core4sync9condition9Condition@4HA 00425e70 f i druntime-ldc:condition.obj
 0001:00025100       ?catch$30@?0?__D4core4sync9condition9Condition9timedWaitMFkZb@4HA 00426100 f i druntime-ldc:condition.obj
 0001:00025120       ?catch$36@?0?__D4core4sync9condition9Condition9timedWaitMFkZb@4HA 00426120 f i druntime-ldc:condition.obj
 0001:00025340       ?catch$18@?0?__D4core4sync9condition9Condition6notifyMFbZv@4HA 00426340 f i druntime-ldc:condition.obj
 0001:00025370       __D4core4sync9condition16__moduleinfoCtorZ 00426370 f   druntime-ldc:condition.obj
 0001:00025390       ___ehhandler$__D4core4sync9condition9Condition6__ctorMFNbNfC4core4sync5mutex5MutexZC4core4sync9condition9Condition 00426390 f   druntime-ldc:condition.obj
 0001:000253a0       ___ehhandler$__D4core4sync9condition9Condition9timedWaitMFkZb 004263a0 f   druntime-ldc:condition.obj
 0001:000253b0       ___ehhandler$__D4core4sync9condition9Condition6notifyMFbZv 004263b0 f   druntime-ldc:condition.obj
 0001:00025530       __D2rt8monitor_16__moduleinfoCtorZ 00426530 f   druntime-ldc:monitor_.obj
 0001:00025820       ?catch$14@?0?thread_entryPoint@4HA 00426820 f i druntime-ldc:thread.obj
 0001:00025840       ?dtor$22@?0?thread_entryPoint@4HA 00426840 f i druntime-ldc:thread.obj
 0001:00025870       ?catch$25@?0?thread_entryPoint@4HA 00426870 f i druntime-ldc:thread.obj
 0001:00025b40       ?dtor$11@?0?__D4core6thread6Thread5startMFNbZC4core6thread6Thread@4HA 00426b40 f i druntime-ldc:thread.obj
 0001:00025b70       ?catch$16@?0?__D4core6thread6Thread5startMFNbZC4core6thread6Thread@4HA 00426b70 f i druntime-ldc:thread.obj
 0001:00025fe0       ?dtor$13@?0?thread_attachThis@4HA 00426fe0 f i druntime-ldc:thread.obj
 0001:00026800       ?catch$4@?0?fiber_entryPoint@4HA 00427800 f i druntime-ldc:thread.obj
 0001:00026c20       __D4core6thread13__shared_ctorZ 00427c20 f   druntime-ldc:thread.obj
 0001:00026c80       __D4core6thread16__moduleinfoCtorZ 00427c80 f   druntime-ldc:thread.obj
 0001:00026ca0       ___ehhandler$thread_entryPoint 00427ca0 f   druntime-ldc:thread.obj
 0001:00026cb0       ___ehhandler$__D4core6thread6Thread5startMFNbZC4core6thread6Thread 00427cb0 f   druntime-ldc:thread.obj
 0001:00026cc0       ___ehhandler$thread_attachThis 00427cc0 f   druntime-ldc:thread.obj
 0001:00026cd0       ___ehhandler$fiber_entryPoint 00427cd0 f   druntime-ldc:thread.obj
 0001:00026e10       __D2rt5cast_16__moduleinfoCtorZ 00427e10 f   druntime-ldc:cast_.obj
 0001:000270f0       __D4core4time16__moduleinfoCtorZ 004280f0 f   druntime-ldc:time.obj
 0001:000271b0       __D2rt7switch_16__moduleinfoCtorZ 004281b0 f   druntime-ldc:switch_.obj
 0001:000271f0       __D4core3sys7windows7winbase16__moduleinfoCtorZ 004281f0 f   druntime-ldc:winbase.obj
 0001:000272d0       __D2rt7aApplyR16__moduleinfoCtorZ 004282d0 f   druntime-ldc:aApplyR.obj
 0001:000274c0       __D2rt8typeinfo8ti_Along16__moduleinfoCtorZ 004284c0 f   druntime-ldc:ti_Along.obj
 0001:00027550       __D2rt8typeinfo7ti_long16__moduleinfoCtorZ 00428550 f   druntime-ldc:ti_long.obj
 0001:000275f0       __D2rt8typeinfo8ti_ulong16__moduleinfoCtorZ 004285f0 f   druntime-ldc:ti_ulong.obj
 0001:00027620       __D4core3sys7windows5winnt16__moduleinfoCtorZ 00428620 f   druntime-ldc:winnt.obj
 0001:000276a0       __D2rt8typeinfo7ti_byte16__moduleinfoCtorZ 004286a0 f   druntime-ldc:ti_byte.obj
 0001:00027740       __D2rt8typeinfo8ti_short16__moduleinfoCtorZ 00428740 f   druntime-ldc:ti_short.obj
 0001:00027830       __D2rt8typeinfo8ti_float16__moduleinfoCtorZ 00428830 f   druntime-ldc:ti_float.obj
 0001:000278a0       __D2rt8typeinfo9ti_double16__moduleinfoCtorZ 004288a0 f   druntime-ldc:ti_double.obj
 0001:000279a0       __D2rt8typeinfo7ti_real16__moduleinfoCtorZ 004289a0 f   druntime-ldc:ti_real.obj
 0001:000279d0       __D2rt8typeinfo9ti_ifloat16__moduleinfoCtorZ 004289d0 f   druntime-ldc:ti_ifloat.obj
 0001:00027a00       __D2rt8typeinfo10ti_idouble16__moduleinfoCtorZ 00428a00 f   druntime-ldc:ti_idouble.obj
 0001:00027a30       __D2rt8typeinfo8ti_ireal16__moduleinfoCtorZ 00428a30 f   druntime-ldc:ti_ireal.obj
 0001:00027b40       __D2rt8typeinfo9ti_cfloat16__moduleinfoCtorZ 00428b40 f   druntime-ldc:ti_cfloat.obj
 0001:00027c00       __D2rt8typeinfo10ti_cdouble16__moduleinfoCtorZ 00428c00 f   druntime-ldc:ti_cdouble.obj
 0001:00027cd0       __D2rt8typeinfo8ti_creal16__moduleinfoCtorZ 00428cd0 f   druntime-ldc:ti_creal.obj
 0001:00027d10       __D4core3sys7windows8winsock216__moduleinfoCtorZ 00428d10 f   druntime-ldc:winsock2.obj
 0001:00027f40       __D2rt4util3utf16__moduleinfoCtorZ 00428f40 f   druntime-ldc:utf.obj
 0001:000282d0       __D2rt6config16__moduleinfoCtorZ 004292d0 f   druntime-ldc:config.obj
 0001:00028390       __D2rt5tlsgc16__moduleinfoCtorZ 00429390 f   druntime-ldc:tlsgc.obj
 0001:00028410       __D3ldc2eh6common16__moduleinfoCtorZ 00429410 f   druntime-ldc:common.obj
 0001:00028490       __D2rt4util9container6common16__moduleinfoCtorZ 00429490 f   druntime-ldc:common.obj
 0001:000285a0       __D2rt4util4hash16__moduleinfoCtorZ 004295a0 f   druntime-ldc:hash.obj
 0001:000285c0       __D2rt5qsort16__moduleinfoCtorZ 004295c0 f   druntime-ldc:qsort.obj
 0001:000286f0       ?dtor$8@?0?__D2rt5minfo11ModuleGroup9sortCtorsMFZv@4HA 004296f0 f i druntime-ldc:minfo.obj
 0001:00028f40       __D2rt5minfo16__moduleinfoCtorZ 00429f40 f   druntime-ldc:minfo.obj
 0001:00028f60       ___ehhandler$__D2rt5minfo11ModuleGroup9sortCtorsMFZv 00429f60 f   druntime-ldc:minfo.obj
 0001:00029040       __D4core8internal4hash16__moduleinfoCtorZ 0042a040 f   druntime-ldc:hash.obj
 0001:00029550       __D2gc5proxy16__moduleinfoCtorZ 0042a550 f   druntime-ldc:proxy.obj
 0001:000295c0       __D2rt9critical_16__moduleinfoCtorZ 0042a5c0 f   druntime-ldc:critical_.obj
 0001:00029630       __D2rt6memory16__moduleinfoCtorZ 0042a630 f   druntime-ldc:memory.obj
 0001:00029790       ?catch$3@?0?__D4core7runtime18runModuleUnitTestsUZ14__foreachbody1MFPS6object10ModuleInfoZi@4HA 0042a790 f i druntime-ldc:runtime.obj
 0001:000297b0       __D4core7runtime16__moduleinfoCtorZ 0042a7b0 f   druntime-ldc:runtime.obj
 0001:000297d0       ___ehhandler$__D4core7runtime18runModuleUnitTestsUZ14__foreachbody1MFPS6object10ModuleInfoZi 0042a7d0 f   druntime-ldc:runtime.obj
 0001:0002a730       __D4core5cpuid16__moduleinfoCtorZ 0042b730 f   druntime-ldc:cpuid.obj
 0001:0002a780       __D4core4sync9exception16__moduleinfoCtorZ 0042b780 f   druntime-ldc:exception.obj
 0001:0002aae0       __D4core4sync9semaphore16__moduleinfoCtorZ 0042bae0 f   druntime-ldc:semaphore.obj
 0001:0002ab30       __D4core3sys7windows9threadaux16__moduleinfoCtorZ 0042bb30 f   druntime-ldc:threadaux.obj
 0001:0002ac60       __D4core8internal5abort16__moduleinfoCtorZ 0042bc60 f   druntime-ldc:abort.obj
 0001:0002b170       ?catch$4@?0?__D2gc2gc2GC6enableMFZv@4HA 0042c170 f i druntime-ldc:gc.obj
 0001:0002b250       ?catch$4@?0?__D2gc2gc2GC7disableMFZv@4HA 0042c250 f i druntime-ldc:gc.obj
 0001:0002b490       ?catch$16@?0?__D2gc2gc2GC125__T9runLockedS48_D2gc2gc2GC7getAttrMFNbPvZ2goFNbPS2gc2gc3GcxPvZkS19_D2gc2gc9otherTimelS19_D2gc2gc9numOtherslTPS2gc2gc3GcxTPvZ9runLockedMFNbKPS2gc2gc3GcxKPvZk@4HA 0042c490 f i druntime-ldc:gc.obj
 0001:0002b710       ?catch$17@?0?__D2gc2gc2GC129__T9runLockedS50_D2gc2gc2GC7setAttrMFNbPvkZ2goFNbPS2gc2gc3GcxPvkZkS19_D2gc2gc9otherTimelS19_D2gc2gc9numOtherslTPS2gc2gc3GcxTPvTkZ9runLockedMFNbKPS2gc2gc3GcxKPvKkZk@4HA 0042c710 f i druntime-ldc:gc.obj
 0001:0002b940       ?catch$5@?0?__D2gc2gc2GC129__T9runLockedS50_D2gc2gc2GC7clrAttrMFNbPvkZ2goFNbPS2gc2gc3GcxPvkZkS19_D2gc2gc9otherTimelS19_D2gc2gc9numOtherslTPS2gc2gc3GcxTPvTkZ9runLockedMFNbKPS2gc2gc3GcxKPvKkZk@4HA 0042c940 f i druntime-ldc:gc.obj
 0001:0002bb00       ?catch$9@?0?__D2gc2gc2GC130__T9runLockedS47_D2gc2gc2GC12mallocNoSyncMFNbkkKkxC8TypeInfoZPvS21_D2gc2gc10mallocTimelS21_D2gc2gc10numMallocslTkTkTkTxC8TypeInfoZ9runLockedMFNbKkKkKkKxC8TypeInfoZPv@4HA 0042cb00 f i druntime-ldc:gc.obj
 0001:0002bd30       ?catch$5@?0?__D2gc2gc2GC137__T9runLockedS51_D2gc2gc2GC13reallocNoSyncMFNbPvkKkKkxC8TypeInfoZPvS21_D2gc2gc10mallocTimelS21_D2gc2gc10numMallocslTPvTkTkTkTxC8TypeInfoZ9runLockedMFNbKPvKkKkKkKxC8TypeInfoZPv@4HA 0042cd30 f i druntime-ldc:gc.obj
 0001:0002c3f0       ?catch$4@?0?__D2gc2gc2GC130__T9runLockedS46_D2gc2gc2GC12extendNoSyncMFNbPvkkxC8TypeInfoZkS21_D2gc2gc10extendTimelS21_D2gc2gc10numExtendslTPvTkTkTxC8TypeInfoZ9runLockedMFNbKPvKkKkKxC8TypeInfoZk@4HA 0042d3f0 f i druntime-ldc:gc.obj
 0001:0002c6c0       ?catch$7@?0?__D2gc2gc2GC96__T9runLockedS33_D2gc2gc2GC13reserveNoSyncMFNbkZkS19_D2gc2gc9otherTimelS19_D2gc2gc9numOtherslTkZ9runLockedMFNbKkZk@4HA 0042d6c0 f i druntime-ldc:gc.obj
 0001:0002c7e0       ?catch$4@?0?__D2gc2gc2GC93__T9runLockedS31_D2gc2gc2GC10freeNoSyncMFNbPvZvS18_D2gc2gc8freeTimelS18_D2gc2gc8numFreeslTPvZ9runLockedMFNbKPvZv@4HA 0042d7e0 f i druntime-ldc:gc.obj
 0001:0002c9b0       ?catch$25@?0?__D2gc2gc2GC98__T9runLockedS34_D2gc2gc2GC12addrOfNoSyncMFNbPvZPvS19_D2gc2gc9otherTimelS19_D2gc2gc9numOtherslTPvZ9runLockedMFNbKPvZPv@4HA 0042d9b0 f i druntime-ldc:gc.obj
 0001:0002cb80       ?catch$19@?0?__D2gc2gc2GC97__T9runLockedS33_D2gc2gc2GC12sizeOfNoSyncMFNbPvZkS19_D2gc2gc9otherTimelS19_D2gc2gc9numOtherslTPvZ9runLockedMFNbKPvZk@4HA 0042db80 f i druntime-ldc:gc.obj
 0001:0002cca0       ?catch$5@?0?__D2gc2gc2GC117__T9runLockedS53_D2gc2gc2GC11queryNoSyncMFNbPvZS4core6memory8BlkInfo_S19_D2gc2gc9otherTimelS19_D2gc2gc9numOtherslTPvZ9runLockedMFNbKPvZS4core6memory8BlkInfo_@4HA 0042dca0 f i druntime-ldc:gc.obj
 0001:0002cea0       ?catch$4@?0?__D2gc2gc2GC7addRootMFNbPvZv@4HA 0042dea0 f i druntime-ldc:gc.obj
 0001:0002d000       ?catch$17@?0?__D2gc2gc3Gcx10removeRootMFNbPvZv@4HA 0042e000 f i druntime-ldc:gc.obj
 0001:0002d100       ?catch$5@?0?__D2gc2gc2GC8addRangeMFNbNiPvkxC8TypeInfoZv@4HA 0042e100 f i druntime-ldc:gc.obj
 0001:0002d1e0       ?catch$3@?0?__D2gc2gc2GC11removeRangeMFNbNiPvZv@4HA 0042e1e0 f i druntime-ldc:gc.obj
 0001:0002d3c0       ?catch$11@?0?__D2gc2gc2GC135__T9runLockedS57_D2gc2gc2GC13runFinalizersMFNbxAvZ2goFNbPS2gc2gc3GcxxAvZvS19_D2gc2gc9otherTimelS19_D2gc2gc9numOtherslTPS2gc2gc3GcxTxAvZ9runLockedMFNbKPS2gc2gc3GcxKxAvZv@4HA 0042e3c0 f i druntime-ldc:gc.obj
 0001:0002d3e0       ?catch$16@?0?__D2gc2gc2GC135__T9runLockedS57_D2gc2gc2GC13runFinalizersMFNbxAvZ2goFNbPS2gc2gc3GcxxAvZvS19_D2gc2gc9otherTimelS19_D2gc2gc9numOtherslTPS2gc2gc3GcxTxAvZ9runLockedMFNbKPS2gc2gc3GcxKxAvZv@4HA 0042e3e0 f i druntime-ldc:gc.obj
 0001:0002d8d0       ?catch$17@?0?__D2gc2gc3Gcx11fullcollectMFNbbZk@4HA 0042e8d0 f i druntime-ldc:gc.obj
 0001:0002d9b0       ?catch$5@?0?__D2gc2gc2GC79__T9runLockedS49_D2gc2gc2GC11fullCollectMFNbZ2goFNbPS2gc2gc3GcxZkTPS2gc2gc3GcxZ9runLockedMFNbKPS2gc2gc3GcxZk@4HA 0042e9b0 f i druntime-ldc:gc.obj
 0001:0002daa0       ?catch$5@?0?__D2gc2gc2GC86__T9runLockedS56_D2gc2gc2GC18fullCollectNoStackMFNbZ2goFNbPS2gc2gc3GcxZkTPS2gc2gc3GcxZ9runLockedMFNbKPS2gc2gc3GcxZk@4HA 0042eaa0 f i druntime-ldc:gc.obj
 0001:0002dcb0       ?catch$5@?0?__D2gc2gc2GC119__T9runLockedS45_D2gc2gc2GC8minimizeMFNbZ2goFNbPS2gc2gc3GcxZvS19_D2gc2gc9otherTimelS19_D2gc2gc9numOtherslTPS2gc2gc3GcxZ9runLockedMFNbKPS2gc2gc3GcxZv@4HA 0042ecb0 f i druntime-ldc:gc.obj
 0001:0002fa20       __D2gc2gc16__moduleinfoCtorZ 00430a20 f   druntime-ldc:gc.obj
 0001:0002fa40       ___ehhandler$__D2gc2gc2GC6enableMFZv 00430a40 f   druntime-ldc:gc.obj
 0001:0002fa50       ___ehhandler$__D2gc2gc2GC7disableMFZv 00430a50 f   druntime-ldc:gc.obj
 0001:0002fa60       ___ehhandler$__D2gc2gc2GC125__T9runLockedS48_D2gc2gc2GC7getAttrMFNbPvZ2goFNbPS2gc2gc3GcxPvZkS19_D2gc2gc9otherTimelS19_D2gc2gc9numOtherslTPS2gc2gc3GcxTPvZ9runLockedMFNbKPS2gc2gc3GcxKPvZk 00430a60 f   druntime-ldc:gc.obj
 0001:0002fa70       ___ehhandler$__D2gc2gc2GC129__T9runLockedS50_D2gc2gc2GC7setAttrMFNbPvkZ2goFNbPS2gc2gc3GcxPvkZkS19_D2gc2gc9otherTimelS19_D2gc2gc9numOtherslTPS2gc2gc3GcxTPvTkZ9runLockedMFNbKPS2gc2gc3GcxKPvKkZk 00430a70 f   druntime-ldc:gc.obj
 0001:0002fa80       ___ehhandler$__D2gc2gc2GC129__T9runLockedS50_D2gc2gc2GC7clrAttrMFNbPvkZ2goFNbPS2gc2gc3GcxPvkZkS19_D2gc2gc9otherTimelS19_D2gc2gc9numOtherslTPS2gc2gc3GcxTPvTkZ9runLockedMFNbKPS2gc2gc3GcxKPvKkZk 00430a80 f   druntime-ldc:gc.obj
 0001:0002fa90       ___ehhandler$__D2gc2gc2GC130__T9runLockedS47_D2gc2gc2GC12mallocNoSyncMFNbkkKkxC8TypeInfoZPvS21_D2gc2gc10mallocTimelS21_D2gc2gc10numMallocslTkTkTkTxC8TypeInfoZ9runLockedMFNbKkKkKkKxC8TypeInfoZPv 00430a90 f   druntime-ldc:gc.obj
 0001:0002faa0       ___ehhandler$__D2gc2gc2GC137__T9runLockedS51_D2gc2gc2GC13reallocNoSyncMFNbPvkKkKkxC8TypeInfoZPvS21_D2gc2gc10mallocTimelS21_D2gc2gc10numMallocslTPvTkTkTkTxC8TypeInfoZ9runLockedMFNbKPvKkKkKkKxC8TypeInfoZPv 00430aa0 f   druntime-ldc:gc.obj
 0001:0002fab0       ___ehhandler$__D2gc2gc2GC130__T9runLockedS46_D2gc2gc2GC12extendNoSyncMFNbPvkkxC8TypeInfoZkS21_D2gc2gc10extendTimelS21_D2gc2gc10numExtendslTPvTkTkTxC8TypeInfoZ9runLockedMFNbKPvKkKkKxC8TypeInfoZk 00430ab0 f   druntime-ldc:gc.obj
 0001:0002fac0       ___ehhandler$__D2gc2gc2GC96__T9runLockedS33_D2gc2gc2GC13reserveNoSyncMFNbkZkS19_D2gc2gc9otherTimelS19_D2gc2gc9numOtherslTkZ9runLockedMFNbKkZk 00430ac0 f   druntime-ldc:gc.obj
 0001:0002fad0       ___ehhandler$__D2gc2gc2GC93__T9runLockedS31_D2gc2gc2GC10freeNoSyncMFNbPvZvS18_D2gc2gc8freeTimelS18_D2gc2gc8numFreeslTPvZ9runLockedMFNbKPvZv 00430ad0 f   druntime-ldc:gc.obj
 0001:0002fae0       ___ehhandler$__D2gc2gc2GC98__T9runLockedS34_D2gc2gc2GC12addrOfNoSyncMFNbPvZPvS19_D2gc2gc9otherTimelS19_D2gc2gc9numOtherslTPvZ9runLockedMFNbKPvZPv 00430ae0 f   druntime-ldc:gc.obj
 0001:0002faf0       ___ehhandler$__D2gc2gc2GC97__T9runLockedS33_D2gc2gc2GC12sizeOfNoSyncMFNbPvZkS19_D2gc2gc9otherTimelS19_D2gc2gc9numOtherslTPvZ9runLockedMFNbKPvZk 00430af0 f   druntime-ldc:gc.obj
 0001:0002fb00       ___ehhandler$__D2gc2gc2GC117__T9runLockedS53_D2gc2gc2GC11queryNoSyncMFNbPvZS4core6memory8BlkInfo_S19_D2gc2gc9otherTimelS19_D2gc2gc9numOtherslTPvZ9runLockedMFNbKPvZS4core6memory8BlkInfo_ 00430b00 f   druntime-ldc:gc.obj
 0001:0002fb10       ___ehhandler$__D2gc2gc2GC7addRootMFNbPvZv 00430b10 f   druntime-ldc:gc.obj
 0001:0002fb20       ___ehhandler$__D2gc2gc3Gcx10removeRootMFNbPvZv 00430b20 f   druntime-ldc:gc.obj
 0001:0002fb30       ___ehhandler$__D2gc2gc2GC8addRangeMFNbNiPvkxC8TypeInfoZv 00430b30 f   druntime-ldc:gc.obj
 0001:0002fb40       ___ehhandler$__D2gc2gc2GC11removeRangeMFNbNiPvZv 00430b40 f   druntime-ldc:gc.obj
 0001:0002fb50       ___ehhandler$__D2gc2gc2GC135__T9runLockedS57_D2gc2gc2GC13runFinalizersMFNbxAvZ2goFNbPS2gc2gc3GcxxAvZvS19_D2gc2gc9otherTimelS19_D2gc2gc9numOtherslTPS2gc2gc3GcxTxAvZ9runLockedMFNbKPS2gc2gc3GcxKxAvZv 00430b50 f   druntime-ldc:gc.obj
 0001:0002fb60       ___ehhandler$__D2gc2gc3Gcx11fullcollectMFNbbZk 00430b60 f   druntime-ldc:gc.obj
 0001:0002fb70       ___ehhandler$__D2gc2gc2GC79__T9runLockedS49_D2gc2gc2GC11fullCollectMFNbZ2goFNbPS2gc2gc3GcxZkTPS2gc2gc3GcxZ9runLockedMFNbKPS2gc2gc3GcxZk 00430b70 f   druntime-ldc:gc.obj
 0001:0002fb80       ___ehhandler$__D2gc2gc2GC86__T9runLockedS56_D2gc2gc2GC18fullCollectNoStackMFNbZ2goFNbPS2gc2gc3GcxZkTPS2gc2gc3GcxZ9runLockedMFNbKPS2gc2gc3GcxZk 00430b80 f   druntime-ldc:gc.obj
 0001:0002fb90       ___ehhandler$__D2gc2gc2GC119__T9runLockedS45_D2gc2gc2GC8minimizeMFNbZ2goFNbPS2gc2gc3GcxZvS19_D2gc2gc9otherTimelS19_D2gc2gc9numOtherslTPS2gc2gc3GcxZ9runLockedMFNbKPS2gc2gc3GcxZv 00430b90 f   druntime-ldc:gc.obj
 0001:0002fba0       __D2gc5stats16__moduleinfoCtorZ 00430ba0 f   druntime-ldc:stats.obj
 0001:0002fc60       ?dtor$4@?0?__D4core3sys7windows10stacktrace10StackTrace6__ctorMFkPS4core3sys7windows5winnt7CONTEXTZC4core3sys7windows10stacktrace10StackTrace@4HA 00430c60 f i druntime-ldc:stacktrace.obj
 0001:0002fd70       ?dtor$3@?0?__D4core3sys7windows10stacktrace10StackTrace7opApplyMxFMDFKkKxAaZiZi@4HA 00430d70 f i druntime-ldc:stacktrace.obj
 0001:00030740       __D4core3sys7windows10stacktrace16__moduleinfoCtorZ 00431740 f   druntime-ldc:stacktrace.obj
 0001:00030760       ___ehhandler$__D4core3sys7windows10stacktrace10StackTrace6__ctorMFkPS4core3sys7windows5winnt7CONTEXTZC4core3sys7windows10stacktrace10StackTrace 00431760 f   druntime-ldc:stacktrace.obj
 0001:00030770       ___ehhandler$__D4core3sys7windows10stacktrace10StackTrace7opApplyMxFMDFKkKxAaZiZi 00431770 f   druntime-ldc:stacktrace.obj
 0001:00030850       __D4core8internal8spinlock16__moduleinfoCtorZ 00431850 f   druntime-ldc:spinlock.obj
 0001:00030f80       __D2gc6config16__moduleinfoCtorZ 00431f80 f   druntime-ldc:config.obj
 0001:00031030       __D2rt4util6random16__moduleinfoCtorZ 00432030 f   druntime-ldc:random.obj
 0001:000310c0       __D2gc2os16__moduleinfoCtorZ 004320c0 f   druntime-ldc:os.obj
 0001:00031210       __D2gc4bits16__moduleinfoCtorZ 00432210 f   druntime-ldc:bits.obj
 0001:000313b0       __D4core3sys7windows7dbghelp16__moduleinfoCtorZ 004323b0 f   druntime-ldc:dbghelp.obj
 0001:00032460       ?dtor$6@?0?__D4core8demangle8Demangle17parseTypeFunctionMFAaE4core8demangle8Demangle10IsDelegateZAa@4HA 00433460 f i druntime-ldc:demangle.obj
 0001:00032600       ?catch$35@?0?__D4core8demangle8Demangle17parseTypeFunctionMFAaE4core8demangle8Demangle10IsDelegateZAa@4HA 00433600 f i druntime-ldc:demangle.obj
 0001:00033510       ?dtor$21@?0?__D4core8demangle8Demangle17parseTemplateArgsMFZv@4HA 00434510 f i druntime-ldc:demangle.obj
 0001:00033540       ?catch$24@?0?__D4core8demangle8Demangle17parseTemplateArgsMFZv@4HA 00434540 f i druntime-ldc:demangle.obj
 0001:00033810       ?catch$15@?0?__D4core8demangle8Demangle25parseTemplateInstanceNameMFZv@4HA 00434810 f i druntime-ldc:demangle.obj
 0001:00033950       ?dtor$10@?0?__D4core8demangle8Demangle15parseSymbolNameMFZv@4HA 00434950 f i druntime-ldc:demangle.obj
 0001:00033990       ?catch$16@?0?__D4core8demangle8Demangle15parseSymbolNameMFZv@4HA 00434990 f i druntime-ldc:demangle.obj
 0001:00033ad0       ?catch$4@?0?__D4core8demangle8Demangle67__T10doDemangleS48_D4core8demangle8Demangle16parseMangledNameMFkZvZ10doDemangleMFZAa@4HA 00434ad0 f i druntime-ldc:demangle.obj
 0001:00033af0       ?catch$7@?0?__D4core8demangle8Demangle67__T10doDemangleS48_D4core8demangle8Demangle16parseMangledNameMFkZvZ10doDemangleMFZAa@4HA 00434af0 f i druntime-ldc:demangle.obj
 0001:00033b80       __D4core8demangle16__moduleinfoCtorZ 00434b80 f   druntime-ldc:demangle.obj
 0001:00033ba0       ___ehhandler$__D4core8demangle8Demangle17parseTypeFunctionMFAaE4core8demangle8Demangle10IsDelegateZAa 00434ba0 f   druntime-ldc:demangle.obj
 0001:00033bb0       ___ehhandler$__D4core8demangle8Demangle17parseTemplateArgsMFZv 00434bb0 f   druntime-ldc:demangle.obj
 0001:00033bc0       ___ehhandler$__D4core8demangle8Demangle25parseTemplateInstanceNameMFZv 00434bc0 f   druntime-ldc:demangle.obj
 0001:00033bd0       ___ehhandler$__D4core8demangle8Demangle15parseSymbolNameMFZv 00434bd0 f   druntime-ldc:demangle.obj
 0001:00033be0       ___ehhandler$__D4core8demangle8Demangle67__T10doDemangleS48_D4core8demangle8Demangle16parseMangledNameMFkZvZ10doDemangleMFZAa 00434be0 f   druntime-ldc:demangle.obj
 0001:00033c30       __D4core10checkedint16__moduleinfoCtorZ 00434c30 f   druntime-ldc:checkedint.obj
 0001:00033ce0       _ctor                      00434ce0 f   druntime-ldc:msvc.c.obj
 0001:00033e00       _init_data_seg             00434e00 f   druntime-ldc:msvc.c.obj
 0001:00034580       $$000000                   00435580     libvcruntime:memcpy.obj
 0001:000347e4       TrailingUpVec              004357e4     libvcruntime:memcpy.obj
 0001:00034890       TrailingDownVec            00435890     libvcruntime:memcpy.obj
 0001:00034b00       $$000000                   00435b00     libvcruntime:memset.obj
 0001:00034c60       $$000000                   00435c60     libvcruntime:memchr.obj
 0001:0003640d       $LN1281                    0043740d     libvcruntime:_memcmp_.obj
 0001:000365be       ?CallCatchBlock@@YAPAXPAUEHExceptionRecord@@PAUEHRegistrationNode@@PAU_CONTEXT@@PBU_s_FuncInfo@@PAXHK@Z 004375be f   libvcruntime:frame.obj
 0001:0003677a       ?CallUnexpected@@YAXPBU_s_ESTypeList@@@Z 0043777a f   libvcruntime:frame.obj
 0001:0003679a       __catch$?CallUnexpected@@YAXPBU_s_ESTypeList@@@Z$0 0043779a f   libvcruntime:frame.obj
 0001:000367b4       ?CatchIt@@YAXPAUEHExceptionRecord@@PAUEHRegistrationNode@@PAU_CONTEXT@@PAXPBU_s_FuncInfo@@PBU_s_HandlerType@@PBU_s_CatchableType@@PBU_s_TryBlockMapEntry@@H1E@Z 004377b4 f   libvcruntime:frame.obj
 0001:0003682f       ?ExFilterRethrow@@YAHPAU_EXCEPTION_POINTERS@@@Z 0043782f f   libvcruntime:frame.obj
 0001:00036879       ?FindHandler@@YAXPAUEHExceptionRecord@@PAUEHRegistrationNode@@PAU_CONTEXT@@PAXPBU_s_FuncInfo@@EH1@Z 00437879 f   libvcruntime:frame.obj
 0001:00036be1       ?FindHandlerForForeignException@@YAXPAUEHExceptionRecord@@PAUEHRegistrationNode@@PAU_CONTEXT@@PAXPBU_s_FuncInfo@@HH1@Z 00437be1 f   libvcruntime:frame.obj
 0001:00036cfc       ?IsInExceptionSpec@@YAEPAUEHExceptionRecord@@PBU_s_ESTypeList@@@Z 00437cfc f   libvcruntime:frame.obj
 0001:00036d98       ?Is_bad_exception_allowed@@YAEPBU_s_ESTypeList@@@Z 00437d98 f   libvcruntime:frame.obj
 0001:00037280       $$000000                   00438280     libvcruntime:memmove.obj
 0001:000374e4       TrailingUpVec              004384e4     libvcruntime:memmove.obj
 0001:00037590       TrailingDownVec            00438590     libvcruntime:memmove.obj
 0001:00037900       $$000000                   00438900     libvcruntime:lowhelpr.obj
 0001:00037aa0       _ValidateLocalCookies      00438aa0 f   libvcruntime:_chandler4_.obj
 0001:00037c63       ?try_get_function@@YAPAXW4function_id@?A0x89697e75@@QBDQBW4module_id@2@2@Z 00438c63 f   libvcruntime:winapi_downlevel.obj
 0001:00037d03       ?try_get_module@@YAPAUHINSTANCE__@@W4module_id@?A0x89697e75@@@Z 00438d03 f   libvcruntime:winapi_downlevel.obj
 0001:00037f30       $$000000                   00438f30     libvcruntime:_exsup_.obj
 0001:00037f50       __unwind_handler           00438f50 f   libvcruntime:_exsup_.obj
 0001:00038070       $$000000                   00439070     libvcruntime:_exsup4_.obj
 0001:00038100       __unwind_handler4          00439100 f   libvcruntime:_exsup4_.obj
 0001:00038256       ?pre_c_initialization@@YAHXZ 00439256 f   LIBCMT:exe_main.obj
 0001:000382fa       ?post_pgo_initialization@@YAHXZ 004392fa f   LIBCMT:exe_main.obj
 0001:00038302       ?pre_cpp_initialization@@YAXXZ 00439302 f   LIBCMT:exe_main.obj
 0001:00038314       ?__scrt_common_main_seh@@YAHXZ 00439314 f   LIBCMT:exe_main.obj
 0001:00038490       $$000000                   00439490     LIBCMT:ulldiv.obj
 0001:00038500       $$000000                   00439500     LIBCMT:ullrem.obj
 0001:00038580       $$000000                   00439580     LIBCMT:lldiv.obj
 0001:00038630       $$000000                   00439630     LIBCMT:llrem.obj
 0001:000386f0       $$000000                   004396f0     LIBCMT:chkstk.obj
 0001:00038920       $$000000                   00439920     LIBCMT:_sehprolg4_.obj
 0001:00038af0       $$000000                   00439af0     LIBCMT:ulldvrm.obj
 0001:00038b85       ?find_pe_section@@YAPAU_IMAGE_SECTION_HEADER@@QAEI@Z 00439b85 f   LIBCMT:utility.obj
 0001:00038e90       _dtor                      00439e90 f   druntime-ldc:msvc.c.obj
 0001:00039017       ?is_managed_app@@YA_NXZ    0043a017 f   libucrt:exit.obj
 0001:0003923a       ?initialize_legacy_wide_specifiers@@YAHXZ 0043a23a f   legacy_stdio_wide_specifiers:legacy_stdio_wide_specifiers.obj
 0001:000392d2       ??R<lambda_54dcfcba6f8e0c549fa430f4d53fb7dd>@@QBEIXZ 0043a2d2 f   libucrt:fwrite.obj
 0001:000394e9       ?fputwc_binary_nolock@@YAG_WV__crt_stdio_stream@@@Z 0043a4e9 f   libucrt:fputwc.obj
 0001:00039cfa       ?common_flush_all@@YAH_N@Z 0043acfa f   libucrt:fflush.obj
 0001:00039d39       ?common_flush_all_should_try_to_flush_stream@@YA_NV__crt_stdio_stream@@QAH@Z 0043ad39 f   libucrt:fflush.obj
 0001:00039d6b       ?is_stream_flushable_or_commitable@@YA_NJ@Z 0043ad6b f   libucrt:fflush.obj
 0001:0003a071       ??$common_strerror@D@@YAPADH@Z 0043b071 f   libucrt:strerror.obj
 0001:0003a120       $$000000                   0043b120     libucrt:strlen.obj
 0001:0003a5cb       ??$common_getenv@D@@YAPADQBD@Z 0043b5cb f   libucrt:getenv.obj
 0001:0003a64b       ??$common_getenv_nolock@D@@YAPADQBD@Z 0043b64b f   libucrt:getenv.obj
 0001:0003a6bb       ??$common_getenv_s@D@@YAHQAIQADIQBD@Z 0043b6bb f   libucrt:getenv.obj
 0001:0003a710       ??$common_getenv_s_nolock@D@@YAHQAIQADIQBD@Z 0043b710 f   libucrt:getenv.obj
 0001:0003a835       ??$thread_start@P6GIPAX@Z@@YGKQAX@Z 0043b835 f   libucrt:thread.obj
 0001:0003a8b3       ?common_end_thread@@YAXI@Z 0043b8b3 f   libucrt:thread.obj
 0001:0003a90a       ?create_thread_parameter@@YAPAU__acrt_thread_parameter@@QAX0@Z 0043b90a f   libucrt:thread.obj
 0001:0003aa26       ??$common_tox_l@$1?internal_islower_l@@YA_NHQAU__crt_locale_pointers@@@Z$1?internal_map_upper@@YAHH0@Z@@YAHHKQAU__crt_locale_pointers@@@Z 0043ba26 f   libucrt:tolower_toupper.obj
 0001:0003ab70       ??$common_tox_l@$1?internal_isupper_l@@YA_NHQAU__crt_locale_pointers@@@Z$1?internal_map_lower@@YAHH0@Z@@YAHHKQAU__crt_locale_pointers@@@Z 0043bb70 f   libucrt:tolower_toupper.obj
 0001:0003ad3d       ?internal_islower_l@@YA_NHQAU__crt_locale_pointers@@@Z 0043bd3d f   libucrt:tolower_toupper.obj
 0001:0003ad5a       ?internal_isupper_l@@YA_NHQAU__crt_locale_pointers@@@Z 0043bd5a f   libucrt:tolower_toupper.obj
 0001:0003aeb0       ?shortsort@@YAXPAD0IP6AHPBX1@Z@Z 0043beb0 f   libucrt:qsort.obj
 0001:0003af50       ?swap@@YAXPAD0I@Z          0043bf50 f   libucrt:qsort.obj
 0001:0003b63f       ??$common_strtod_l@ND@@YANQBDQAPADQAU__crt_locale_pointers@@@Z 0043c63f f   libucrt:strtod.obj
 0001:0003bed9       $LN38                      0043ced9     libucrt:strtod.obj
 0001:0003bfe0       $LN21                      0043cfe0     libucrt:strtod.obj
 0001:0003c008       ??R<lambda_32aa245da1b5b882fa96db788295c8b2>@@QBE_NXZ 0043d008 f   libucrt:strtod.obj
 0001:0003e9cd       ??$common_vsprintf@Vstandard_base@__crt_stdio_output@@D@@YAH_KQADIQBDQAU__crt_locale_pointers@@1@Z 0043f9cd f   libucrt:output.obj
 0001:0003ee5b       ??R<lambda_df52180bf14694d51fdefd82613e8f07>@@QBEHXZ 0043fe5b f   libucrt:output.obj
 0001:0003f175       $LN54                      00440175     libucrt:output.obj
 0001:0003f291       $LN54                      00440291     libucrt:output.obj
 0001:0003fbf3       $LN19                      00440bf3     libucrt:output.obj
 0001:00040523       ??$common_vsscanf@D@@YAH_KQBDI1QAU__crt_locale_pointers@@QAD@Z 00441523 f   libucrt:input.obj
 0001:00041595       ??R<lambda_f1fa4c266c18b246f3ed9c36247dab4f>@@QBE_NXZ 00442595 f   libucrt:input.obj
 0001:00041595       ??R<lambda_644f8ab42ed3fd1d660977a2364b3a7d>@@QBE_NXZ 00442595 f   libucrt:input.obj
 0001:00041595       ??R<lambda_f765c90ab33e8386abf09c0f079d37e9>@@QBE_NXZ 00442595 f   libucrt:input.obj
 0001:000418bf       $LN22                      004428bf     libucrt:input.obj
 0001:0004203c       $LN18                      0044303c     libucrt:input.obj
 0001:00042ab2       ??$common_configure_argv@D@@YAHW4_crt_argv_mode@@@Z 00443ab2 f   libucrt:argv_parsing.obj
 0001:00042be8       ??$parse_command_line@D@@YAXPADPAPAD0PAI2@Z 00443be8 f   libucrt:argv_parsing.obj
 0001:00042dbd       ??$common_get_or_create_environment_nolock@D@@YAPAPADXZ 00443dbd f   libucrt:environment_initialization.obj
 0001:00042de9       ??$common_initialize_environment_nolock@D@@YAHXZ 00443de9 f   libucrt:environment_initialization.obj
 0001:00042e42       ??$create_environment@D@@YAQAPADQAD@Z 00443e42 f   libucrt:environment_initialization.obj
 0001:00042f13       ??$free_environment@D@@YAXQAPAD@Z 00443f13 f   libucrt:environment_initialization.obj
 0001:00042f13       ??$free_environment@_W@@YAXQAPA_W@Z 00443f13 f   libucrt:environment_initialization.obj
 0001:00042f42       ??$initialize_environment_by_cloning_nolock@D@@YAHXZ 00443f42 f   libucrt:environment_initialization.obj
 0001:00043001       ??$uninitialize_environment_internal@D@@YAXAAPAPAD@Z 00444001 f   libucrt:environment_initialization.obj
 0001:0004301c       ??$uninitialize_environment_internal@_W@@YAXAAPAPA_W@Z 0044401c f   libucrt:environment_initialization.obj
 0001:00043198       ??R<lambda_6e4b09c48022b2350581041d5f6b0c4c>@@QBE@XZ 00444198 f   libucrt:exit.obj
 0001:00043274       ?atexit_exception_filter@@YAHK@Z 00444274 f   libucrt:exit.obj
 0001:00043287       ?common_exit@@YAXHW4_crt_exit_cleanup_mode@@W4_crt_exit_return_mode@@@Z 00444287 f   libucrt:exit.obj
 0001:000432dd       ?exit_or_terminate_process@@YAXI@Z 004442dd f   libucrt:exit.obj
 0001:0004331f       ?try_cor_exit_process@@YAXI@Z 0044431f f   libucrt:exit.obj
 0001:0004359e       ??$common_localtime_s@J@@YAHQAUtm@@QBJ@Z 0044459e f   libucrt:localtime.obj
 0001:000437d1       ??$common_timespec_get@U_timespec32@@@@YAHQAU_timespec32@@H@Z 004447d1 f   libucrt:time.obj
 0001:00043991       ??R<lambda_22ebabd17bc4fa466a2aca6d8deb888d>@@QBEHXZ 00444991 f   libucrt:onexit.obj
 0001:00043ad2       ??R<lambda_f03950bc5685219e0bcd2087efbe011e>@@QBEHXZ 00444ad2 f   libucrt:onexit.obj
 0001:00043c84       _initialize_global_variables 00444c84 f   libucrt:initialization.obj
 0001:00043c96       _initialize_c              00444c96 f   libucrt:initialization.obj
 0001:00043cb0       _initialize_global_state_isolation 00444cb0 f   libucrt:initialization.obj
 0001:00043cb0       _initialize_environment    00444cb0 f   libucrt:initialization.obj
 0001:00043cb0       _uninitialize_global_state_isolation 00444cb0 f   libucrt:initialization.obj
 0001:00043cb0       _uninitialize_c            00444cb0 f   libucrt:initialization.obj
 0001:00043cb0       _report_memory_leaks       00444cb0 f   libucrt:initialization.obj
 0001:00043cb3       _uninitialize_environment  00444cb3 f   libucrt:initialization.obj
 0001:00043cbb       _initialize_pointers       00444cbb f   libucrt:initialization.obj
 0001:00043cf8       _uninitialize_vcruntime    00444cf8 f   libucrt:initialization.obj
 0001:00043d01       _uninitialize_allocated_memory 00444d01 f   libucrt:initialization.obj
 0001:00043d65       ??R<lambda_af42a3ee9806e9a7305d451646e05244>@@QBEXAAPAU__crt_multibyte_data@@@Z 00444d65 f   libucrt:initialization.obj
 0001:00043e91       ?_isindst_nolock@@YAHQAUtm@@@Z 00444e91 f   libucrt:tzset.obj
 0001:00044078       ?cvtdate@@YAXW4transition_type@?A0x7639d0b4@@W4date_type@2@HHHHHHHHH@Z 00445078 f   libucrt:tzset.obj
 0001:000441c8       ?tzset_from_environment_nolock@@YAXPAD@Z 004451c8 f   libucrt:tzset.obj
 0001:0004439d       ?tzset_from_system_nolock@@YAXXZ 0044539d f   libucrt:tzset.obj
 0001:000444f8       ?tzset_nolock@@YAXXZ       004454f8 f   libucrt:tzset.obj
 0001:0004487b       ?write_double_translated_ansi_nolock@@YA?AUwrite_result@?A0x17268360@@HQBDI@Z 0044587b f   libucrt:write.obj
 0001:00044a40       ?write_double_translated_unicode_nolock@@YA?AUwrite_result@?A0x17268360@@QBDI@Z 00445a40 f   libucrt:write.obj
 0001:00044aad       ?write_requires_double_translation_nolock@@YA_NH@Z 00445aad f   libucrt:write.obj
 0001:00044b23       ?write_text_ansi_nolock@@YA?AUwrite_result@?A0x17268360@@HQBDI@Z 00445b23 f   libucrt:write.obj
 0001:00044c02       ?write_text_utf16le_nolock@@YA?AUwrite_result@?A0x17268360@@HQBDI@Z 00445c02 f   libucrt:write.obj
 0001:00044cf0       ?write_text_utf8_nolock@@YA?AUwrite_result@?A0x17268360@@HQBDI@Z 00445cf0 f   libucrt:write.obj
 0001:00045121       ??$common_flush_and_write_nolock@D@@YAHHV__crt_stdio_stream@@@Z 00446121 f   libucrt:_flsbuf.obj
 0001:00045232       ??$common_flush_and_write_nolock@_W@@YAHHV__crt_stdio_stream@@@Z 00446232 f   libucrt:_flsbuf.obj
 0001:00045347       ??$write_buffer_nolock@D@@YA_NDV__crt_stdio_stream@@@Z 00446347 f   libucrt:_flsbuf.obj
 0001:00045413       ??$write_buffer_nolock@_W@@YA_N_WV__crt_stdio_stream@@@Z 00446413 f   libucrt:_flsbuf.obj
 0001:00045729       ?initialize_inherited_file_handles_nolock@@YAXXZ 00446729 f   libucrt:ioinit.obj
 0001:000457df       ?initialize_stdio_handles_nolock@@YAXXZ 004467df f   libucrt:ioinit.obj
 0001:00045950       ??$common_lseek@_J@@YA_JH_JH@Z 00446950 f   libucrt:lseek.obj
 0001:00045a55       ??$common_lseek_nolock@_J@@YA_JH_JH@Z 00446a55 f   libucrt:lseek.obj
 0001:00045b50       $$000000                   00446b50     libucrt:strncmp.obj
 0001:00045d8c       ?try_get_CompareStringEx@@YAP6GHPB_WK0H0HPAU_nlsversioninfo@@PAXJ@ZXZ 00446d8c f   libucrt:winapi_thunks.obj
 0001:00045da6       ?try_get_LCMapStringEx@@YAP6GHPB_WK0HPA_WHPAU_nlsversioninfo@@PAXJ@ZXZ 00446da6 f   libucrt:winapi_thunks.obj
 0001:00045dc0       ?try_get_LocaleNameToLCID@@YAP6GKPB_WK@ZXZ 00446dc0 f   libucrt:winapi_thunks.obj
 0001:00045dda       ?try_get_first_available_module@@YAPAUHINSTANCE__@@QBW4module_id@?A0x391cf84c@@0@Z 00446dda f   libucrt:winapi_thunks.obj
 0001:00045ea2       ?try_get_function@@YAPAXW4function_id@?A0x391cf84c@@QBDQBW4module_id@2@2@Z 00446ea2 f   libucrt:winapi_thunks.obj
 0001:0004697a       ?construct_ptd@@YAXQAU__acrt_ptd@@QAPAU__crt_locale_data@@@Z 0044797a f   libucrt:per_thread_data.obj
 0001:000469f3       ?destroy_fls@@YGXPAX@Z     004479f3 f   libucrt:per_thread_data.obj
 0001:00046a14       ?destroy_ptd@@YAXQAU__acrt_ptd@@@Z 00447a14 f   libucrt:per_thread_data.obj
 0001:00046abd       ?replace_current_thread_locale_nolock@@YAXQAU__acrt_ptd@@QAU__crt_locale_data@@@Z 00447abd f   libucrt:per_thread_data.obj
 0001:00046ef9       ??$common_tcsncpy_s@D@@YAHQADIQBDI@Z 00447ef9 f   libucrt:strncpy_s.obj
 0001:000473a8       ?__acrt_LCMapStringA_stat@@YAHPAU__crt_locale_pointers@@PB_WKPBDHPADHHH@Z 004483a8 f   libucrt:lcmapstringa.obj
 0001:0004770c       ?get_global_action_nolock@@YAPAP6AXH@ZH@Z 0044870c f   libucrt:signal.obj
 0001:0004774e       ?siglookup@@YAPAU__crt_signal_action_t@@HQAU1@@Z 0044874e f   libucrt:signal.obj
 0001:00047a6a       ?fp_format_a@@YAHQBNPADIQADIH_NIQAU__crt_locale_pointers@@@Z 00448a6a f   libucrt:cvt.obj
 0001:00047d7e       ?fp_format_e@@YAHQBNQADI1IH_NIQAU__crt_locale_pointers@@@Z 00448d7e f   libucrt:cvt.obj
 0001:00047e19       ?fp_format_e_internal@@YAHQADIH_NIQAU_strflt@@1QAU__crt_locale_pointers@@@Z 00448e19 f   libucrt:cvt.obj
 0001:00047f64       ?fp_format_f@@YAHQBNQADI1IHQAU__crt_locale_pointers@@@Z 00448f64 f   libucrt:cvt.obj
 0001:00047ff1       ?fp_format_f_internal@@YAHQADIHQAU_strflt@@_NQAU__crt_locale_pointers@@@Z 00448ff1 f   libucrt:cvt.obj
 0001:000480c8       ?fp_format_g@@YAHQBNQADI1IH_NIQAU__crt_locale_pointers@@@Z 004490c8 f   libucrt:cvt.obj
 0001:00048190       ?fp_format_nan_or_infinity@@YAHW4__acrt_fp_class@@_NPADI1@Z 00449190 f   libucrt:cvt.obj
 0001:00048288       ?shift_bytes@@YAXQADI0H@Z  00449288 f   libucrt:cvt.obj
 0001:00048511       ?<lambda_invoker_cdecl>@<lambda_86056e3c024bff449830248dc1621ed2>@@CAHPBX0@Z 00449511 f   libucrt:argv_wildcards.obj
 0001:00048529       ??$common_expand_argv_wildcards@D@@YAHQAPADQAPAPAD@Z 00449529 f   libucrt:argv_wildcards.obj
 0001:00048709       ??$copy_and_add_argument_to_buffer@D@@YAHQBD0IAAV?$argument_list@D@?A0x5f5c8891@@@Z 00449709 f   libucrt:argv_wildcards.obj
 0001:000487bd       ??$expand_argument_wildcards@D@@YAHQAD0AAV?$argument_list@D@?A0x5f5c8891@@@Z 004497bd f   libucrt:argv_wildcards.obj
 0001:00048941       ?expand_if_necessary@?$argument_list@D@?A0x5f5c8891@@AAEHXZ 00449941 f   libucrt:argv_wildcards.obj
 0001:00048a3e       ??R<lambda_ae742caa10f662c28703da3d2ea5e57e>@@QBEXXZ 00449a3e f   libucrt:mbctype.obj
 0001:00048ac1       ?CPtoLocaleName@@YAPB_WH@Z 00449ac1 f   libucrt:mbctype.obj
 0001:00048aff       ?getSystemCP@@YAHH@Z       00449aff f   libucrt:mbctype.obj
 0001:00048b72       ?setSBCS@@YAXPAU__crt_multibyte_data@@@Z 00449b72 f   libucrt:mbctype.obj
 0001:00048bd7       ?setSBUpLow@@YAXPAU__crt_multibyte_data@@@Z 00449bd7 f   libucrt:mbctype.obj
 0001:00048d6b       ?setmbcp_internal@@YAHH_NQAU__acrt_ptd@@QAPAU__crt_multibyte_data@@@Z 00449d6b f   libucrt:mbctype.obj
 0001:00048e78       ?update_thread_multibyte_data_internal@@YAPAU__crt_multibyte_data@@QAU__acrt_ptd@@QAU1@@Z 00449e78 f   libucrt:mbctype.obj
 0001:0004915d       ?x_ismbbtype_l@@YAHPAU__crt_locale_pointers@@IHH@Z 0044a15d f   libucrt:ismbbyte.obj
 0001:000491ce       ?find_end_of_double_null_terminated_sequence@@YAPB_WQB_W@Z 0044a1ce f   libucrt:get_environment_from_os.obj
 0001:00049288       ??$common_set_variable_in_environment_nolock@D@@YAHQADH@Z 0044a288 f   libucrt:setenv.obj
 0001:000494cf       ??$copy_environment@D@@YAPAPADQAPAD@Z 0044a4cf f   libucrt:setenv.obj
 0001:00049580       ??$ensure_current_environment_is_not_initial_environment_nolock@D@@YAXXZ 0044a580 f   libucrt:setenv.obj
 0001:0004959a       ??$find_in_environment_nolock@D@@YAHQBDI@Z 0044a59a f   libucrt:setenv.obj
 0001:00049787       ?free_crt_array_internal@@YAXQAPBXI@Z 0044a787 f   libucrt:inittime.obj
 0001:00049e28       ??$common_gmtime_s@J@@YAHQAUtm@@QBJ@Z 0044ae28 f   libucrt:gmtime.obj
 0001:00049f42       ?compute_year@@YAHAAJAA_N@Z 0044af42 f   libucrt:gmtime.obj
 0001:0004a12b       ___hw_cw_sse2              0044b12b f   libucrt:ieee87.obj
 0001:0004a5b6       __hw_cw                    0044b5b6 f   libucrt:ieee87.obj
 0001:0004a6f0       $$000000                   0044b6f0     libucrt:_strnicm.obj
 0001:0004a751       ?GetTableIndexFromLocaleName@@YAHPB_W@Z 0044b751 f   libucrt:lcidtoname_downlevel.obj
 0001:0004a839       ?InternalCompareStringA@@YAHPAU__crt_locale_pointers@@PB_WKPBDH2HH@Z 0044b839 f   libucrt:comparestringa.obj
 0001:0004ab45       ___get_abstract_control_sse2 0044bb45 f   libucrt:_fenvutils.obj
 0001:0004abc2       ___get_abstract_control_x87 0044bbc2 f   libucrt:_fenvutils.obj
 0001:0004ac35       ___get_machine_control     0044bc35 f   libucrt:_fenvutils.obj
 0001:0004aca6       ___get_machine_control_sse2 0044bca6 f   libucrt:_fenvutils.obj
 0001:0004ad26       ___get_machine_status_sse2 0044bd26 f   libucrt:_fenvutils.obj
 0001:0004ad87       ___get_machine_status_x87  0044bd87 f   libucrt:_fenvutils.obj
 0001:0004c483       _memcpy_s                  0044d483 f   libucrt:strtod.obj
 0001:0004c483       _memcpy_s                  0044d483 f   libucrt:cfout.obj
 0001:0004c483       _memcpy_s                  0044d483 f   libucrt:mbctype.obj
 0001:0004c510       $$000000                   0044d510     libucrt:strpbrk.obj
 0001:0004c5f4       ?initialize_multibyte@@YAHXZ 0044d5f4 f   libucrt:multibyte_initializer.obj
 0001:0004c850       $$000000                   0044d850     libucrt:log10.obj
 0001:0004c9a0       $$000000                   0044d9a0     libucrt:ceil_pentium4.obj
 0001:0004cad0       $$000000                   0044dad0     libucrt:log10_pentium4.obj
 0001:0004cd60       $$000000                   0044dd60     libucrt:87tran.obj
 0001:0004cf60       $$000000                   0044df60     libucrt:87disp.obj
 0001:0004d160       $$000000                   0044e160     libucrt:common.obj
 0001:0004d2f0       $$000000                   0044e2f0     libucrt:genexcep.obj
 0001:0004e1f0       $$000000                   0044f1f0     libvcruntime:strrchr.obj
 0001:0004e330       $$000000                   0044f330     libvcruntime:strchr.obj
 0001:0004e460       $$000000                   0044f460     LIBCMT:_sehprolg4gs_.obj
 0001:0004e4c0       $$000000                   0044f4c0     LIBCMT:llmul.obj
 0001:0004e500       $$000000                   0044f500     LIBCMT:llshl.obj
 0001:0004e520       $$000000                   0044f520     LIBCMT:ullshr.obj
 0001:0004e540       $$000000                   0044f540     LIBCMT:lldvrm.obj
 0001:0004e620       $$000000                   0044f620     LIBCMT:alloca16.obj
 0001:0004e650       $$000000                   0044f650     LIBCMT:_ftol2_.obj
 0001:0004e705       __ehhandler$?CallUnexpected@@YAXPBU_s_ESTypeList@@@Z 0044f705 f   libvcruntime:frame.obj
 0002:00000250       ?pre_cpp_initializer@@3P6AXXZA 00450250     LIBCMT:exe_main.obj
 0002:00000418       ?pre_c_initializer@@3P6AHXZA 00450418     LIBCMT:exe_main.obj
 0002:0000041c       ?post_pgo_initializer@@3P6AHXZA 0045041c     LIBCMT:exe_main.obj
 0002:00000434       __ctor                     00450434     druntime-ldc:msvc.c.obj
 0002:00000440       __pfix_tls                 00450440     druntime-ldc:msvc.c.obj
 0002:00000464       __dtor                     00450464     druntime-ldc:msvc.c.obj
 0002:00000480       _.str                      00450480     PatcherLibTestD.obj
 0002:00000490       _.str.1                    00450490     PatcherLibTestD.obj
 0002:000004d0       _.str.2                    004504d0     PatcherLibTestD.obj
 0002:000004e1       _.str.3                    004504e1     PatcherLibTestD.obj
 0002:000004f0       _.str.10                   004504f0     PatcherLibTestD.obj
 0002:00000530       _.str.18                   00450530     PatcherLibTestD.obj
 0002:00000550       _.str.20                   00450550     PatcherLibTestD.obj
 0002:00000580       _.str.37                   00450580     PatcherLibTestD.obj
 0002:000005d0       _.str.2                    004505d0     phobos2-ldc:stdio.obj
 0002:00000608       _.str.5                    00450608     phobos2-ldc:stdio.obj
 0002:00000610       _.str.9                    00450610     phobos2-ldc:stdio.obj
 0002:00000630       _.str.10                   00450630     phobos2-ldc:stdio.obj
 0002:00000660       _.str.32                   00450660     phobos2-ldc:stdio.obj
 0002:000006d0       _.str.40                   004506d0     phobos2-ldc:stdio.obj
 0002:000006f0       _.str.42                   004506f0     phobos2-ldc:stdio.obj
 0002:00000710       _.str.43                   00450710     phobos2-ldc:stdio.obj
 0002:00000730       _.str.44                   00450730     phobos2-ldc:stdio.obj
 0002:00000760       _.str.46                   00450760     phobos2-ldc:stdio.obj
 0002:000007a0       _.str.48                   004507a0     phobos2-ldc:stdio.obj
 0002:00000800       _.str.58                   00450800     phobos2-ldc:stdio.obj
 0002:00000830       _.str.61                   00450830     phobos2-ldc:stdio.obj
 0002:00000870       _.str.64                   00450870     phobos2-ldc:stdio.obj
 0002:000008b0       _.str.65                   004508b0     phobos2-ldc:stdio.obj
 0002:000008e0       _.str.66                   004508e0     phobos2-ldc:stdio.obj
 0002:00000908       _.str.67                   00450908     phobos2-ldc:stdio.obj
 0002:00000920       _.str.69                   00450920     phobos2-ldc:stdio.obj
 0002:00000950       _.str.70                   00450950     phobos2-ldc:stdio.obj
 0002:00000970       _.str.72                   00450970     phobos2-ldc:stdio.obj
 0002:00000980       _.str.73                   00450980     phobos2-ldc:stdio.obj
 0002:000009b5       _.str.74                   004509b5     phobos2-ldc:stdio.obj
 0002:000009d0       _.str.75                   004509d0     phobos2-ldc:stdio.obj
 0002:00000a10       _.str.76                   00450a10     phobos2-ldc:stdio.obj
 0002:00000a2d       _.str.77                   00450a2d     phobos2-ldc:stdio.obj
 0002:00000a40       _.str.81                   00450a40     phobos2-ldc:stdio.obj
 0002:00000a77       _.str                      00450a77     phobos2-ldc:exception.obj
 0002:00000a79       _.str.1                    00450a79     phobos2-ldc:exception.obj
 0002:00000ad0       _.str.2                    00450ad0     phobos2-ldc:exception.obj
 0002:00000aed       _.str.1                    00450aed     phobos2-ldc:utf.obj
 0002:00000aef       _.str.2                    00450aef     phobos2-ldc:utf.obj
 0002:00000b00       _.str.3                    00450b00     phobos2-ldc:utf.obj
 0002:00000b16       _.str.4                    00450b16     phobos2-ldc:utf.obj
 0002:00000b80       _.str.5                    00450b80     phobos2-ldc:utf.obj
 0002:00000ba0       _.str.6                    00450ba0     phobos2-ldc:utf.obj
 0002:00000bc0       _.str.7                    00450bc0     phobos2-ldc:utf.obj
 0002:00000c00       _.str.8                    00450c00     phobos2-ldc:utf.obj
 0002:00000c30       _.str.9                    00450c30     phobos2-ldc:utf.obj
 0002:00000c60       _.str.10                   00450c60     phobos2-ldc:utf.obj
 0002:00000c90       _.str.11                   00450c90     phobos2-ldc:utf.obj
 0002:00000cb0       _.str.12                   00450cb0     phobos2-ldc:utf.obj
 0002:00000ce0       _.str.13                   00450ce0     phobos2-ldc:utf.obj
 0002:00000d10       _.str.14                   00450d10     phobos2-ldc:utf.obj
 0002:00000d50       _.str.15                   00450d50     phobos2-ldc:utf.obj
 0002:00000d80       _.dynarrayStorage.31       00450d80     phobos2-ldc:uni.obj
 0002:00001f60       _.str.63                   00451f60     phobos2-ldc:uni.obj
 0002:00001f80       _.str.65                   00451f80     phobos2-ldc:uni.obj
 0002:00001fb9       _.str.66                   00451fb9     phobos2-ldc:uni.obj
 0002:00001fd0       _.str.67                   00451fd0     phobos2-ldc:uni.obj
 0002:00001ff0       _.str.68                   00451ff0     phobos2-ldc:uni.obj
 0002:00002040       _.str.89                   00452040     phobos2-ldc:uni.obj
 0002:00002080       _.str.95                   00452080     phobos2-ldc:uni.obj
 0002:000020a0       _.str.96                   004520a0     phobos2-ldc:uni.obj
 0002:000020d0       _.str.98                   004520d0     phobos2-ldc:uni.obj
 0002:00002110       _.str.103                  00452110     phobos2-ldc:uni.obj
 0002:00002140       _.str.104                  00452140     phobos2-ldc:uni.obj
 0002:00002170       _.str.147                  00452170     phobos2-ldc:uni.obj
 0002:000021a0       _.str.148                  004521a0     phobos2-ldc:uni.obj
 0002:000021d0       _.str.149                  004521d0     phobos2-ldc:uni.obj
 0002:000021f0       _.str.234                  004521f0     phobos2-ldc:uni.obj
 0002:00002210       _.str.235                  00452210     phobos2-ldc:uni.obj
 0002:00002240       _.str.237                  00452240     phobos2-ldc:uni.obj
 0002:00002260       _.str.238                  00452260     phobos2-ldc:uni.obj
 0002:000022a0       _.str.244                  004522a0     phobos2-ldc:uni.obj
 0002:000022bd       _.str.246                  004522bd     phobos2-ldc:uni.obj
 0002:000022c6       _.str.247                  004522c6     phobos2-ldc:uni.obj
 0002:000022cd       _.str.248                  004522cd     phobos2-ldc:uni.obj
 0002:000022d4       _.str.249                  004522d4     phobos2-ldc:uni.obj
 0002:000022e0       _.str                      004522e0     phobos2-ldc:variant.obj
 0002:0000231a       _.str.1                    0045231a     phobos2-ldc:variant.obj
 0002:00002320       _.str.2                    00452320     phobos2-ldc:variant.obj
 0002:000023a0       _.str.3                    004523a0     phobos2-ldc:variant.obj
 0002:000023e0       _.str.6                    004523e0     phobos2-ldc:variant.obj
 0002:00002400       _.str.7                    00452400     phobos2-ldc:variant.obj
 0002:00002450       _.str.1                    00452450     phobos2-ldc:concurrency.obj
 0002:00002470       _.str.2                    00452470     phobos2-ldc:concurrency.obj
 0002:000024a0       _.str.3                    004524a0     phobos2-ldc:concurrency.obj
 0002:00002530       _.str.4                    00452530     phobos2-ldc:concurrency.obj
 0002:000025a0       _.str.5                    004525a0     phobos2-ldc:concurrency.obj
 0002:00002610       _.str.6                    00452610     phobos2-ldc:concurrency.obj
 0002:00002690       _.str.8                    00452690     phobos2-ldc:concurrency.obj
 0002:00002710       _.str.9                    00452710     phobos2-ldc:concurrency.obj
 0002:00002770       _.str.10                   00452770     phobos2-ldc:concurrency.obj
 0002:00002794       _.str.11                   00452794     phobos2-ldc:concurrency.obj
 0002:000027a0       _.str.12                   004527a0     phobos2-ldc:concurrency.obj
 0002:00002830       _.str.16                   00452830     phobos2-ldc:concurrency.obj
 0002:000028c0       _.str.17                   004528c0     phobos2-ldc:concurrency.obj
 0002:000029c0       _.str.18                   004529c0     phobos2-ldc:concurrency.obj
 0002:000029f0       _.str.19                   004529f0     phobos2-ldc:concurrency.obj
 0002:00002a90       _.str.20                   00452a90     phobos2-ldc:concurrency.obj
 0002:00002ab0       _.str.22                   00452ab0     phobos2-ldc:concurrency.obj
 0002:00002ad0       _.str.23                   00452ad0     phobos2-ldc:concurrency.obj
 0002:00002b00       _.str.29                   00452b00     phobos2-ldc:concurrency.obj
 0002:00002b20       _.str.32                   00452b20     phobos2-ldc:concurrency.obj
 0002:00002b59       _.str.52                   00452b59     phobos2-ldc:concurrency.obj
 0002:00002b60       _.str.53                   00452b60     phobos2-ldc:concurrency.obj
 0002:00002b8f       _.str.54                   00452b8f     phobos2-ldc:concurrency.obj
 0002:00002ba0       _.str.55                   00452ba0     phobos2-ldc:concurrency.obj
 0002:00002bd0       _.str.60                   00452bd0     phobos2-ldc:concurrency.obj
 0002:00002c10       _.str.73                   00452c10     phobos2-ldc:concurrency.obj
 0002:00002c60       _.str.78                   00452c60     phobos2-ldc:concurrency.obj
 0002:00002cb0       _.str.97                   00452cb0     phobos2-ldc:concurrency.obj
 0002:00002cd7       _.str.98                   00452cd7     phobos2-ldc:concurrency.obj
 0002:00002cdb       _.str.99                   00452cdb     phobos2-ldc:concurrency.obj
 0002:00002ce0       _.str.100                  00452ce0     phobos2-ldc:concurrency.obj
 0002:00002d50       _.str.10                   00452d50     phobos2-ldc:datetime.obj
 0002:00002dd0       _.str.20                   00452dd0     phobos2-ldc:datetime.obj
 0002:00002e10       _.str.21                   00452e10     phobos2-ldc:datetime.obj
 0002:00002e90       _.str.49                   00452e90     phobos2-ldc:datetime.obj
 0002:00002ea6       _.str.50                   00452ea6     phobos2-ldc:datetime.obj
 0002:00002f10       _.str.51                   00452f10     phobos2-ldc:datetime.obj
 0002:00002f27       _.str.52                   00452f27     phobos2-ldc:datetime.obj
 0002:00002f90       _.str.54                   00452f90     phobos2-ldc:datetime.obj
 0002:00003010       _.str.60                   00453010     phobos2-ldc:datetime.obj
 0002:000030a0       _.str.80                   004530a0     phobos2-ldc:datetime.obj
 0002:000031c0       _.str.86                   004531c0     phobos2-ldc:datetime.obj
 0002:000031e0       _.str.668                  004531e0     phobos2-ldc:datetime.obj
 0002:00003230       _.str.671                  00453230     phobos2-ldc:datetime.obj
 0002:00003260       _.str.672                  00453260     phobos2-ldc:datetime.obj
 0002:0000327f       _.str.673                  0045327f     phobos2-ldc:datetime.obj
 0002:00003282       _.str.674                  00453282     phobos2-ldc:datetime.obj
 0002:00003290       _.str.678                  00453290     phobos2-ldc:datetime.obj
 0002:000032b0       _.str.679                  004532b0     phobos2-ldc:datetime.obj
 0002:000032e9       _.str.680                  004532e9     phobos2-ldc:datetime.obj
 0002:00003300       _.str.696                  00453300     phobos2-ldc:datetime.obj
 0002:00003330       _.str.697                  00453330     phobos2-ldc:datetime.obj
 0002:00003360       _.str.706                  00453360     phobos2-ldc:datetime.obj
 0002:00003390       _.str.707                  00453390     phobos2-ldc:datetime.obj
 0002:000033b2       _.str.708                  004533b2     phobos2-ldc:datetime.obj
 0002:000033b6       _.str.709                  004533b6     phobos2-ldc:datetime.obj
 0002:000033ba       _.str.710                  004533ba     phobos2-ldc:datetime.obj
 0002:000033be       _.str.711                  004533be     phobos2-ldc:datetime.obj
 0002:000033c2       _.str.712                  004533c2     phobos2-ldc:datetime.obj
 0002:000033c6       _.str.713                  004533c6     phobos2-ldc:datetime.obj
 0002:000033ca       _.str.714                  004533ca     phobos2-ldc:datetime.obj
 0002:000033ce       _.str.715                  004533ce     phobos2-ldc:datetime.obj
 0002:000033d2       _.str.716                  004533d2     phobos2-ldc:datetime.obj
 0002:000033d6       _.str.717                  004533d6     phobos2-ldc:datetime.obj
 0002:000033da       _.str.718                  004533da     phobos2-ldc:datetime.obj
 0002:000033de       _.str.719                  004533de     phobos2-ldc:datetime.obj
 0002:000033e2       _.str.720                  004533e2     phobos2-ldc:datetime.obj
 0002:000033f0       _.str.724                  004533f0     phobos2-ldc:datetime.obj
 0002:00003430       _switch.table.785          00453430     phobos2-ldc:datetime.obj
 0002:000034b0       _.str.2                    004534b0     phobos2-ldc:file.obj
 0002:000034d0       _.str.1                    004534d0     phobos2-ldc:cstring.obj
 0002:00003520       _.str                      00453520     phobos2-ldc:syserror.obj
 0002:00003560       _.str.1                    00453560     phobos2-ldc:syserror.obj
 0002:000035a3       _.str.2                    004535a3     phobos2-ldc:syserror.obj
 0002:000035a6       _.str.3                    004535a6     phobos2-ldc:syserror.obj
 0002:000035b2       _.str.4                    004535b2     phobos2-ldc:syserror.obj
 0002:00003610       _.str.5                    00453610     phobos2-ldc:syserror.obj
 0002:00003640       _.str.12                   00453640     phobos2-ldc:syserror.obj
 0002:00003680       _.str.13                   00453680     phobos2-ldc:syserror.obj
 0002:000036b8       _.str                      004536b8     phobos2-ldc:format.obj
 0002:000036d0       _.str.1                    004536d0     phobos2-ldc:format.obj
 0002:00003750       _.str.2                    00453750     phobos2-ldc:format.obj
 0002:000037b0       _.str                      004537b0     phobos2-ldc:conv.obj
 0002:00003810       _.str.2                    00453810     phobos2-ldc:conv.obj
 0002:0000382f       _.str.1                    0045382f     phobos2-ldc:filelogger.obj
 0002:00003840       _.str.2                    00453840     phobos2-ldc:filelogger.obj
 0002:00003891       _.str.3                    00453891     phobos2-ldc:filelogger.obj
 0002:00003894       _.str.4                    00453894     phobos2-ldc:filelogger.obj
 0002:00003950       _.str.5                    00453950     phobos2-ldc:filelogger.obj
 0002:00003980       _.str.11                   00453980     phobos2-ldc:filelogger.obj
 0002:000039c0       _.str.13                   004539c0     phobos2-ldc:filelogger.obj
 0002:000039f0       _.str.14                   004539f0     phobos2-ldc:filelogger.obj
 0002:00003a10       _.str.16                   00453a10     phobos2-ldc:filelogger.obj
 0002:00003a49       _.str.17                   00453a49     phobos2-ldc:filelogger.obj
 0002:00003a52       _.str.18                   00453a52     phobos2-ldc:filelogger.obj
 0002:00003a56       _.str.19                   00453a56     phobos2-ldc:filelogger.obj
 0002:00003a5a       _.str.20                   00453a5a     phobos2-ldc:filelogger.obj
 0002:00003a5e       _.str.21                   00453a5e     phobos2-ldc:filelogger.obj
 0002:00003a62       _.str.22                   00453a62     phobos2-ldc:filelogger.obj
 0002:00003a66       _.str.23                   00453a66     phobos2-ldc:filelogger.obj
 0002:00003a6a       _.str.24                   00453a6a     phobos2-ldc:filelogger.obj
 0002:00003a6e       _.str.25                   00453a6e     phobos2-ldc:filelogger.obj
 0002:00003a72       _.str.26                   00453a72     phobos2-ldc:filelogger.obj
 0002:00003a76       _.str.27                   00453a76     phobos2-ldc:filelogger.obj
 0002:00003a7a       _.str.28                   00453a7a     phobos2-ldc:filelogger.obj
 0002:00003a7e       _.str.29                   00453a7e     phobos2-ldc:filelogger.obj
 0002:00003a82       _.str.30                   00453a82     phobos2-ldc:filelogger.obj
 0002:00003a90       _.str.31                   00453a90     phobos2-ldc:filelogger.obj
 0002:00003ac0       _.str.32                   00453ac0     phobos2-ldc:filelogger.obj
 0002:00003ae3       _.str.38                   00453ae3     phobos2-ldc:filelogger.obj
 0002:00003aec       _.str.39                   00453aec     phobos2-ldc:filelogger.obj
 0002:00003af3       _.str.40                   00453af3     phobos2-ldc:filelogger.obj
 0002:00003afa       _.str.41                   00453afa     phobos2-ldc:filelogger.obj
 0002:00003b01       _.str.42                   00453b01     phobos2-ldc:filelogger.obj
 0002:00003b10       _.str.43                   00453b10     phobos2-ldc:filelogger.obj
 0002:00003b30       _.str.48                   00453b30     phobos2-ldc:filelogger.obj
 0002:00003b70       _.str.55                   00453b70     phobos2-ldc:filelogger.obj
 0002:00003be0       _.str                      00453be0     phobos2-ldc:socket.obj
 0002:00003bfb       _.str.1                    00453bfb     phobos2-ldc:socket.obj
 0002:00003c50       _.str.2                    00453c50     phobos2-ldc:socket.obj
 0002:00003cc0       _.str.3                    00453cc0     phobos2-ldc:socket.obj
 0002:00003d30       _.str.4                    00453d30     phobos2-ldc:socket.obj
 0002:00003d60       _.str.5                    00453d60     phobos2-ldc:socket.obj
 0002:00003d84       _.str.7                    00453d84     phobos2-ldc:socket.obj
 0002:00003d8f       _.str.8                    00453d8f     phobos2-ldc:socket.obj
 0002:00003d9b       _.str.9                    00453d9b     phobos2-ldc:socket.obj
 0002:00003da7       _.str.10                   00453da7     phobos2-ldc:socket.obj
 0002:00003df0       _.str.11                   00453df0     phobos2-ldc:socket.obj
 0002:00003e50       _.str.12                   00453e50     phobos2-ldc:socket.obj
 0002:00003eb0       _.str.13                   00453eb0     phobos2-ldc:socket.obj
 0002:00003ed0       _.str.14                   00453ed0     phobos2-ldc:socket.obj
 0002:00003f40       _.str.15                   00453f40     phobos2-ldc:socket.obj
 0002:00003fb0       _.str.23                   00453fb0     phobos2-ldc:socket.obj
 0002:00004090       _.str.27                   00454090     phobos2-ldc:socket.obj
 0002:000040ac       _.str.28                   004540ac     phobos2-ldc:socket.obj
 0002:000040bb       _.str.29                   004540bb     phobos2-ldc:socket.obj
 0002:000040c8       _.str.30                   004540c8     phobos2-ldc:socket.obj
 0002:000040d2       _.str.31                   004540d2     phobos2-ldc:socket.obj
 0002:000040df       _.str.32                   004540df     phobos2-ldc:socket.obj
 0002:000040f0       _.str.33                   004540f0     phobos2-ldc:socket.obj
 0002:00004131       _.str.34                   00454131     phobos2-ldc:socket.obj
 0002:0000413d       _.str.35                   0045413d     phobos2-ldc:socket.obj
 0002:0000414a       _.str.36                   0045414a     phobos2-ldc:socket.obj
 0002:00004156       _.str.37                   00454156     phobos2-ldc:socket.obj
 0002:00004163       _.str.38                   00454163     phobos2-ldc:socket.obj
 0002:0000416b       _.str.39                   0045416b     phobos2-ldc:socket.obj
 0002:0000416e       _.str.40                   0045416e     phobos2-ldc:socket.obj
 0002:00004170       _.str.41                   00454170     phobos2-ldc:socket.obj
 0002:000041c0       _.str.42                   004541c0     phobos2-ldc:socket.obj
 0002:00004230       _.str.43                   00454230     phobos2-ldc:socket.obj
 0002:00004250       _.str.44                   00454250     phobos2-ldc:socket.obj
 0002:00004280       _.str.45                   00454280     phobos2-ldc:socket.obj
 0002:00004300       _.str.47                   00454300     phobos2-ldc:socket.obj
 0002:00004370       _.str.48                   00454370     phobos2-ldc:socket.obj
 0002:000043f0       _.str.50                   004543f0     phobos2-ldc:socket.obj
 0002:00004410       _.str.52                   00454410     phobos2-ldc:socket.obj
 0002:00004430       _.str.54                   00454430     phobos2-ldc:socket.obj
 0002:00004450       _.str.55                   00454450     phobos2-ldc:socket.obj
 0002:00004470       _.str.56                   00454470     phobos2-ldc:socket.obj
 0002:00004490       _.str.57                   00454490     phobos2-ldc:socket.obj
 0002:00004570       _.str.58                   00454570     phobos2-ldc:socket.obj
 0002:000045a0       _.str.60                   004545a0     phobos2-ldc:socket.obj
 0002:000045d0       _.str.61                   004545d0     phobos2-ldc:socket.obj
 0002:00004600       _.str.62                   00454600     phobos2-ldc:socket.obj
 0002:00004630       _.str.63                   00454630     phobos2-ldc:socket.obj
 0002:00004650       _.str.64                   00454650     phobos2-ldc:socket.obj
 0002:00004670       _.str.65                   00454670     phobos2-ldc:socket.obj
 0002:00004690       _.str.66                   00454690     phobos2-ldc:socket.obj
 0002:000046c0       _.str.67                   004546c0     phobos2-ldc:socket.obj
 0002:000046e0       _.str.69                   004546e0     phobos2-ldc:socket.obj
 0002:000047c0       _.str.70                   004547c0     phobos2-ldc:socket.obj
 0002:000048a0       _.str.71                   004548a0     phobos2-ldc:socket.obj
 0002:000048c0       _.str.76                   004548c0     phobos2-ldc:socket.obj
 0002:000048e0       _.str.77                   004548e0     phobos2-ldc:socket.obj
 0002:00004930       _.str.83                   00454930     phobos2-ldc:socket.obj
 0002:00004970       _.str.97                   00454970     phobos2-ldc:socket.obj
 0002:000049b0       _.str.109                  004549b0     phobos2-ldc:socket.obj
 0002:000049cd       _.str.110                  004549cd     phobos2-ldc:socket.obj
 0002:000049d3       _.str.111                  004549d3     phobos2-ldc:socket.obj
 0002:000049e0       _.dynarrayStorage          004549e0     phobos2-ldc:socket.obj
 0002:000049e5       _.dynarrayStorage.154      004549e5     phobos2-ldc:socket.obj
 0002:000049ee       _.dynarrayStorage.155      004549ee     phobos2-ldc:socket.obj
 0002:000049f7       _.dynarrayStorage.156      004549f7     phobos2-ldc:socket.obj
 0002:000049fd       _.dynarrayStorage.157      004549fd     phobos2-ldc:socket.obj
 0002:00004a06       _.dynarrayStorage.158      00454a06     phobos2-ldc:socket.obj
 0002:00004a0c       _.dynarrayStorage.159      00454a0c     phobos2-ldc:socket.obj
 0002:00004a12       _.dynarrayStorage.160      00454a12     phobos2-ldc:socket.obj
 0002:00004a1b       _.dynarrayStorage.161      00454a1b     phobos2-ldc:socket.obj
 0002:00004a23       _.dynarrayStorage.162      00454a23     phobos2-ldc:socket.obj
 0002:00004a2b       _.dynarrayStorage.163      00454a2b     phobos2-ldc:socket.obj
 0002:00004a30       _.dynarrayStorage.164      00454a30     phobos2-ldc:socket.obj
 0002:00004a39       _.dynarrayStorage.165      00454a39     phobos2-ldc:socket.obj
 0002:00004a43       _.dynarrayStorage.166      00454a43     phobos2-ldc:socket.obj
 0002:00004a4b       _.dynarrayStorage.167      00454a4b     phobos2-ldc:socket.obj
 0002:00004a53       _.dynarrayStorage.168      00454a53     phobos2-ldc:socket.obj
 0002:00004a60       _.dynarrayStorage.169      00454a60     phobos2-ldc:socket.obj
 0002:00004a80       _.dynarrayStorage.170      00454a80     phobos2-ldc:socket.obj
 0002:00004aa0       _.dynarrayStorage.171      00454aa0     phobos2-ldc:socket.obj
 0002:00004ab3       _.dynarrayStorage.172      00454ab3     phobos2-ldc:socket.obj
 0002:00004ac2       _.dynarrayStorage.173      00454ac2     phobos2-ldc:socket.obj
 0002:00004ad2       _.dynarrayStorage.174      00454ad2     phobos2-ldc:socket.obj
 0002:00004ae0       _.str.175                  00454ae0     phobos2-ldc:socket.obj
 0002:00004bc0       _.str                      00454bc0     phobos2-ldc:registry.obj
 0002:00004bf0       _.str.1                    00454bf0     phobos2-ldc:registry.obj
 0002:00004c20       _.str.2                    00454c20     phobos2-ldc:registry.obj
 0002:00004c40       _.str.3                    00454c40     phobos2-ldc:registry.obj
 0002:00004c83       _.str.4                    00454c83     phobos2-ldc:registry.obj
 0002:00004c90       _.str.5                    00454c90     phobos2-ldc:registry.obj
 0002:00004cc0       _.str.6                    00454cc0     phobos2-ldc:registry.obj
 0002:00004ce0       _.str.7                    00454ce0     phobos2-ldc:registry.obj
 0002:00004d00       _.str.8                    00454d00     phobos2-ldc:registry.obj
 0002:00004d20       _.str.9                    00454d20     phobos2-ldc:registry.obj
 0002:00004d40       _.str.11                   00454d40     phobos2-ldc:registry.obj
 0002:00004d60       _.str.12                   00454d60     phobos2-ldc:registry.obj
 0002:00004da0       _.str.13                   00454da0     phobos2-ldc:registry.obj
 0002:00004dc8       _.str.14                   00454dc8     phobos2-ldc:registry.obj
 0002:00004dd0       _.str.15                   00454dd0     phobos2-ldc:registry.obj
 0002:00004e00       _.str.16                   00454e00     phobos2-ldc:registry.obj
 0002:00004e30       _.str.17                   00454e30     phobos2-ldc:registry.obj
 0002:00004e50       _.str.18                   00454e50     phobos2-ldc:registry.obj
 0002:00004ee0       _.str.19                   00454ee0     phobos2-ldc:registry.obj
 0002:00004f70       _.str.20                   00454f70     phobos2-ldc:registry.obj
 0002:0000505c       _.str.22                   0045505c     phobos2-ldc:registry.obj
 0002:00005060       _.str.23                   00455060     phobos2-ldc:registry.obj
 0002:00005080       _.str.24                   00455080     phobos2-ldc:registry.obj
 0002:000050b0       _.str.25                   004550b0     phobos2-ldc:registry.obj
 0002:00005100       _.str.33                   00455100     phobos2-ldc:registry.obj
 0002:0000511e       _.str.34                   0045511e     phobos2-ldc:registry.obj
 0002:00005130       _.str.35                   00455130     phobos2-ldc:registry.obj
 0002:00005150       _.str.36                   00455150     phobos2-ldc:registry.obj
 0002:00005180       _.str.37                   00455180     phobos2-ldc:registry.obj
 0002:000051a0       _.str.38                   004551a0     phobos2-ldc:registry.obj
 0002:000051c1       _.str.39                   004551c1     phobos2-ldc:registry.obj
 0002:000051d0       _.str.40                   004551d0     phobos2-ldc:registry.obj
 0002:00005200       _.str.41                   00455200     phobos2-ldc:registry.obj
 0002:00005230       _.str.42                   00455230     phobos2-ldc:registry.obj
 0002:00005250       _.str.43                   00455250     phobos2-ldc:registry.obj
 0002:00005280       _.str.45                   00455280     phobos2-ldc:registry.obj
 0002:000052c0       _.str.65                   004552c0     phobos2-ldc:registry.obj
 0002:00005320       _.str.71                   00455320     phobos2-ldc:registry.obj
 0002:00005350       _.str.73                   00455350     phobos2-ldc:registry.obj
 0002:00005390       _.str.77                   00455390     phobos2-ldc:registry.obj
 0002:000053d8       _.str.13                   004553d8     phobos2-ldc:process.obj
 0002:00005430       _.str.29                   00455430     phobos2-ldc:process.obj
 0002:00005480       _.str.40                   00455480     phobos2-ldc:process.obj
 0002:000054a0       _.str.5                    004554a0     phobos2-ldc:core.obj
 0002:00005560       _.str.6                    00455560     phobos2-ldc:core.obj
 0002:00005630       _.str.7                    00455630     phobos2-ldc:core.obj
 0002:00005730       _.str.8                    00455730     phobos2-ldc:core.obj
 0002:00005760       _.str.16                   00455760     phobos2-ldc:core.obj
 0002:00005798       _.str.17                   00455798     phobos2-ldc:core.obj
 0002:000057f0       _.str                      004557f0     phobos2-ldc:string.obj
 0002:0000580b       _.str                      0045580b     phobos2-ldc:advapi32.obj
 0002:00005814       _.str.1                    00455814     phobos2-ldc:advapi32.obj
 0002:00005823       _.str.2                    00455823     phobos2-ldc:advapi32.obj
 0002:00005830       _.str.3                    00455830     phobos2-ldc:advapi32.obj
 0002:00005850       _.str.4                    00455850     phobos2-ldc:advapi32.obj
 0002:0000589c       _.str.5                    0045589c     phobos2-ldc:advapi32.obj
 0002:000058b0       _.str.6                    004558b0     phobos2-ldc:advapi32.obj
 0002:000058e0       _.str.7                    004558e0     phobos2-ldc:advapi32.obj
 0002:00005900       _.str                      00455900     druntime-ldc:lifetime.obj
 0002:00005940       _.str.1                    00455940     druntime-ldc:lifetime.obj
 0002:00005970       _.str.3                    00455970     druntime-ldc:lifetime.obj
 0002:000059c0       _.str.2                    004559c0     druntime-ldc:msvc.obj
 0002:000059e0       _.str.4                    004559e0     druntime-ldc:msvc.obj
 0002:00005a00       _.str.6                    00455a00     druntime-ldc:msvc.obj
 0002:00005a20       _.str.7                    00455a20     druntime-ldc:msvc.obj
 0002:00005a60       _.str.9                    00455a60     druntime-ldc:msvc.obj
 0002:00005a80       _.str.10                   00455a80     druntime-ldc:msvc.obj
 0002:00005ad0       _.str.13                   00455ad0     druntime-ldc:msvc.obj
 0002:00005b20       _.str                      00455b20     druntime-ldc:exception.obj
 0002:00005b80       _.str.1                    00455b80     druntime-ldc:exception.obj
 0002:00005ba0       _.str.2                    00455ba0     druntime-ldc:exception.obj
 0002:00005c00       _.str.3                    00455c00     druntime-ldc:exception.obj
 0002:00005c20       _.str.4                    00455c20     druntime-ldc:exception.obj
 0002:00005c40       _.str.5                    00455c40     druntime-ldc:exception.obj
 0002:00005cd0       _.str.6                    00455cd0     druntime-ldc:exception.obj
 0002:00005d40       _.str.8                    00455d40     druntime-ldc:exception.obj
 0002:00005d60       _.str.9                    00455d60     druntime-ldc:exception.obj
 0002:00005dd0       _.str.10                   00455dd0     druntime-ldc:exception.obj
 0002:00005df0       _.str.11                   00455df0     druntime-ldc:exception.obj
 0002:00005e60       _.str.12                   00455e60     druntime-ldc:exception.obj
 0002:00005ee0       _.str.14                   00455ee0     druntime-ldc:exception.obj
 0002:00005f50       _.str.15                   00455f50     druntime-ldc:exception.obj
 0002:00005fc0       _.str.17                   00455fc0     druntime-ldc:exception.obj
 0002:00005ff0       _.str.18                   00455ff0     druntime-ldc:exception.obj
 0002:00006033       _.str                      00456033     druntime-ldc:ti_Ag.obj
 0002:00006098       _.str.1                    00456098     druntime-ldc:ti_Ag.obj
 0002:000060a4       _.str.2                    004560a4     druntime-ldc:ti_Ag.obj
 0002:00006108       _.str.3                    00456108     druntime-ldc:ti_Ag.obj
 0002:00006114       _.str.4                    00456114     druntime-ldc:ti_Ag.obj
 0002:00006178       _.str.5                    00456178     druntime-ldc:ti_Ag.obj
 0002:00006184       _.str.6                    00456184     druntime-ldc:ti_Ag.obj
 0002:000061e8       _.str.7                    004561e8     druntime-ldc:ti_Ag.obj
 0002:000061f4       _.str.8                    004561f4     druntime-ldc:ti_Ag.obj
 0002:00006258       _.str.9                    00456258     druntime-ldc:ti_Ag.obj
 0002:00006270       _.str.10                   00456270     druntime-ldc:ti_Ag.obj
 0002:000062d8       _.str.11                   004562d8     druntime-ldc:ti_Ag.obj
 0002:000062e5       _.str.12                   004562e5     druntime-ldc:ti_Ag.obj
 0002:00006348       _.str.13                   00456348     druntime-ldc:ti_Ag.obj
 0002:000063a0       _.str                      004563a0     druntime-ldc:object.obj
 0002:000063c0       _.str.1                    004563c0     druntime-ldc:object.obj
 0002:000064b0       _.str.2                    004564b0     druntime-ldc:object.obj
 0002:000064e4       _.str.3                    004564e4     druntime-ldc:object.obj
 0002:00006688       _.str.6                    00456688     druntime-ldc:object.obj
 0002:00006710       _.str.7                    00456710     druntime-ldc:object.obj
 0002:00006788       _.str.8                    00456788     druntime-ldc:object.obj
 0002:00006796       _.str.9                    00456796     druntime-ldc:object.obj
 0002:000067b0       _.str.10                   004567b0     druntime-ldc:object.obj
 0002:000067c1       _.str.11                   004567c1     druntime-ldc:object.obj
 0002:000067d0       _.str.12                   004567d0     druntime-ldc:object.obj
 0002:000067df       _.str.13                   004567df     druntime-ldc:object.obj
 0002:000067e1       _.str.14                   004567e1     druntime-ldc:object.obj
 0002:00006850       _.str.15                   00456850     druntime-ldc:object.obj
 0002:000068d0       _.str.16                   004568d0     druntime-ldc:object.obj
 0002:000068ea       _.str.17                   004568ea     druntime-ldc:object.obj
 0002:000068ec       _.str.18                   004568ec     druntime-ldc:object.obj
 0002:00006958       _.str.19                   00456958     druntime-ldc:object.obj
 0002:00006968       _.str.20                   00456968     druntime-ldc:object.obj
 0002:000069d0       _.str.21                   004569d0     druntime-ldc:object.obj
 0002:000069e2       _.str.22                   004569e2     druntime-ldc:object.obj
 0002:00006a60       _.str.23                   00456a60     druntime-ldc:object.obj
 0002:00006ac0       _.str.24                   00456ac0     druntime-ldc:object.obj
 0002:00006ae0       _.str.25                   00456ae0     druntime-ldc:object.obj
 0002:00006b30       _.str.26                   00456b30     druntime-ldc:object.obj
 0002:00006b40       _.str.27                   00456b40     druntime-ldc:object.obj
 0002:00006ba8       _.str.28                   00456ba8     druntime-ldc:object.obj
 0002:00006bb7       _.str.29                   00456bb7     druntime-ldc:object.obj
 0002:00006bcc       _.str.30                   00456bcc     druntime-ldc:object.obj
 0002:00006bdb       _.str.31                   00456bdb     druntime-ldc:object.obj
 0002:00006c50       _.str.32                   00456c50     druntime-ldc:object.obj
 0002:00006c63       _.str.33                   00456c63     druntime-ldc:object.obj
 0002:00006cc8       _.str.34                   00456cc8     druntime-ldc:object.obj
 0002:00006cd8       _.str.35                   00456cd8     druntime-ldc:object.obj
 0002:00006d38       _.str.36                   00456d38     druntime-ldc:object.obj
 0002:00006d50       _.str.38                   00456d50     druntime-ldc:object.obj
 0002:00006d6b       _.str.39                   00456d6b     druntime-ldc:object.obj
 0002:00006d6d       _.str.40                   00456d6d     druntime-ldc:object.obj
 0002:00006d70       _.str.41                   00456d70     druntime-ldc:object.obj
 0002:00006d82       _.str.42                   00456d82     druntime-ldc:object.obj
 0002:00006dd0       _.str.43                   00456dd0     druntime-ldc:object.obj
 0002:00006df0       _.str.44                   00456df0     druntime-ldc:object.obj
 0002:00006e48       _.str.45                   00456e48     druntime-ldc:object.obj
 0002:00006e90       _.str.46                   00456e90     druntime-ldc:object.obj
 0002:00006eb0       _.str.49                   00456eb0     druntime-ldc:object.obj
 0002:00006ed4       _.str.3                    00456ed4     druntime-ldc:dmain2.obj
 0002:00006ee0       _.str.4                    00456ee0     druntime-ldc:dmain2.obj
 0002:00006efc       _.str.5                    00456efc     druntime-ldc:dmain2.obj
 0002:00006f00       _.str.6                    00456f00     druntime-ldc:dmain2.obj
 0002:00006f20       _.str.7                    00456f20     druntime-ldc:dmain2.obj
 0002:00006f40       _.str.9                    00456f40     druntime-ldc:dmain2.obj
 0002:00006f56       _.str.10                   00456f56     druntime-ldc:dmain2.obj
 0002:00006f62       _.str.11                   00456f62     druntime-ldc:dmain2.obj
 0002:00006f67       _.str                      00456f67     druntime-ldc:ti_uint.obj
 0002:00006fc8       _.str.1                    00456fc8     druntime-ldc:ti_uint.obj
 0002:00006fd3       _.str                      00456fd3     druntime-ldc:ti_ubyte.obj
 0002:00007038       _.str.1                    00457038     druntime-ldc:ti_ubyte.obj
 0002:00007043       _.str.2                    00457043     druntime-ldc:ti_ubyte.obj
 0002:00007098       _.str.3                    00457098     druntime-ldc:ti_ubyte.obj
 0002:000070a3       _.str                      004570a3     druntime-ldc:ti_char.obj
 0002:000070f8       _.str.1                    004570f8     druntime-ldc:ti_char.obj
 0002:00007110       _.str.1                    00457110     druntime-ldc:arrayinit.obj
 0002:00007160       _.str.2                    00457160     druntime-ldc:arrayinit.obj
 0002:00007190       _.str.3                    00457190     druntime-ldc:arrayinit.obj
 0002:000071a7       _.str                      004571a7     druntime-ldc:ti_dchar.obj
 0002:00007208       _.str.1                    00457208     druntime-ldc:ti_dchar.obj
 0002:00007213       _.str                      00457213     druntime-ldc:ti_wchar.obj
 0002:00007278       _.str.1                    00457278     druntime-ldc:ti_wchar.obj
 0002:00007283       _.str                      00457283     druntime-ldc:ti_ushort.obj
 0002:000072e8       _.str.1                    004572e8     druntime-ldc:ti_ushort.obj
 0002:00007300       _.str                      00457300     druntime-ldc:string.obj
 0002:00007349       _.str                      00457349     druntime-ldc:ti_Ashort.obj
 0002:000073a8       _.str.1                    004573a8     druntime-ldc:ti_Ashort.obj
 0002:000073b4       _.str.2                    004573b4     druntime-ldc:ti_Ashort.obj
 0002:00007418       _.str.3                    00457418     druntime-ldc:ti_Ashort.obj
 0002:00007424       _.str.4                    00457424     druntime-ldc:ti_Ashort.obj
 0002:00007488       _.str.5                    00457488     druntime-ldc:ti_Ashort.obj
 0002:00007494       _.str                      00457494     druntime-ldc:ti_Aint.obj
 0002:000074f8       _.str.1                    004574f8     druntime-ldc:ti_Aint.obj
 0002:00007504       _.str.2                    00457504     druntime-ldc:ti_Aint.obj
 0002:00007568       _.str.3                    00457568     druntime-ldc:ti_Aint.obj
 0002:00007574       _.str.4                    00457574     druntime-ldc:ti_Aint.obj
 0002:000075d8       _.str.5                    004575d8     druntime-ldc:ti_Aint.obj
 0002:000075e4       _.str                      004575e4     druntime-ldc:ti_int.obj
 0002:00007638       _.str.1                    00457638     druntime-ldc:ti_int.obj
 0002:00007643       _.str                      00457643     druntime-ldc:ti_void.obj
 0002:00007698       _.str.1                    00457698     druntime-ldc:ti_void.obj
 0002:00007710       _.str.1                    00457710     druntime-ldc:mutex.obj
 0002:00007730       _.str                      00457730     druntime-ldc:condition.obj
 0002:00007750       _.str.1                    00457750     druntime-ldc:condition.obj
 0002:00007800       _.str.2                    00457800     druntime-ldc:condition.obj
 0002:00007870       _.str                      00457870     druntime-ldc:thread.obj
 0002:000078e0       _.str.1                    004578e0     druntime-ldc:thread.obj
 0002:00007900       _.str.2                    00457900     druntime-ldc:thread.obj
 0002:00007920       _.str.3                    00457920     druntime-ldc:thread.obj
 0002:00007940       _.str.4                    00457940     druntime-ldc:thread.obj
 0002:00007960       _.str.5                    00457960     druntime-ldc:thread.obj
 0002:000079a0       _.str.7                    004579a0     druntime-ldc:thread.obj
 0002:00007a60       _.str.8                    00457a60     druntime-ldc:thread.obj
 0002:00007a80       _.str.9                    00457a80     druntime-ldc:thread.obj
 0002:00007aa0       _.str.10                   00457aa0     druntime-ldc:thread.obj
 0002:00007ac0       _.str.11                   00457ac0     druntime-ldc:thread.obj
 0002:00007b10       _.str.12                   00457b10     druntime-ldc:thread.obj
 0002:00007b80       _.str.14                   00457b80     druntime-ldc:thread.obj
 0002:00007ba0       _.str.9                    00457ba0     druntime-ldc:time.obj
 0002:00007bd0       _.str.10                   00457bd0     druntime-ldc:time.obj
 0002:00007c50       _.str.22                   00457c50     druntime-ldc:time.obj
 0002:00007c70       _.str.34                   00457c70     druntime-ldc:time.obj
 0002:00007cd0       _.str.35                   00457cd0     druntime-ldc:time.obj
 0002:00007db0       _.str.1                    00457db0     druntime-ldc:aApplyR.obj
 0002:00007df0       _.str.2                    00457df0     druntime-ldc:aApplyR.obj
 0002:00007e08       _.str                      00457e08     druntime-ldc:ti_Along.obj
 0002:00007e68       _.str.1                    00457e68     druntime-ldc:ti_Along.obj
 0002:00007e74       _.str.2                    00457e74     druntime-ldc:ti_Along.obj
 0002:00007ed8       _.str.3                    00457ed8     druntime-ldc:ti_Along.obj
 0002:00007ee4       _.str                      00457ee4     druntime-ldc:ti_long.obj
 0002:00007f48       _.str.1                    00457f48     druntime-ldc:ti_long.obj
 0002:00007f53       _.str                      00457f53     druntime-ldc:ti_ulong.obj
 0002:00007fb8       _.str.1                    00457fb8     druntime-ldc:ti_ulong.obj
 0002:00007fc3       _.str                      00457fc3     druntime-ldc:ti_byte.obj
 0002:00008018       _.str.1                    00458018     druntime-ldc:ti_byte.obj
 0002:00008023       _.str                      00458023     druntime-ldc:ti_short.obj
 0002:00008088       _.str.1                    00458088     druntime-ldc:ti_short.obj
 0002:00008093       _.str                      00458093     druntime-ldc:ti_float.obj
 0002:000080f8       _.str.1                    004580f8     druntime-ldc:ti_float.obj
 0002:00008103       _.str                      00458103     druntime-ldc:ti_double.obj
 0002:00008168       _.str.1                    00458168     druntime-ldc:ti_double.obj
 0002:00008173       _.str                      00458173     druntime-ldc:ti_real.obj
 0002:000081c8       _.str.1                    004581c8     druntime-ldc:ti_real.obj
 0002:000081d3       _.str                      004581d3     druntime-ldc:ti_ifloat.obj
 0002:00008238       _.str.1                    00458238     druntime-ldc:ti_ifloat.obj
 0002:00008243       _.str                      00458243     druntime-ldc:ti_idouble.obj
 0002:000082a8       _.str.1                    004582a8     druntime-ldc:ti_idouble.obj
 0002:000082b3       _.str                      004582b3     druntime-ldc:ti_ireal.obj
 0002:00008318       _.str.1                    00458318     druntime-ldc:ti_ireal.obj
 0002:00008323       _.str                      00458323     druntime-ldc:ti_cfloat.obj
 0002:00008388       _.str.1                    00458388     druntime-ldc:ti_cfloat.obj
 0002:00008393       _.str                      00458393     druntime-ldc:ti_cdouble.obj
 0002:000083f8       _.str.1                    004583f8     druntime-ldc:ti_cdouble.obj
 0002:00008403       _.str                      00458403     druntime-ldc:ti_creal.obj
 0002:00008468       _.str.1                    00458468     druntime-ldc:ti_creal.obj
 0002:00008610       _.str                      00458610     druntime-ldc:utf.obj
 0002:00008630       _.str.1                    00458630     druntime-ldc:utf.obj
 0002:00008670       _.str.3                    00458670     druntime-ldc:utf.obj
 0002:000086a0       _.str.4                    004586a0     druntime-ldc:utf.obj
 0002:000086d0       _.str.5                    004586d0     druntime-ldc:utf.obj
 0002:000086f0       _.str.6                    004586f0     druntime-ldc:utf.obj
 0002:00008705       _.str                      00458705     druntime-ldc:config.obj
 0002:00008710       _.str                      00458710     druntime-ldc:common.obj
 0002:00008730       _.str.2                    00458730     druntime-ldc:minfo.obj
 0002:0000875f       _.str.3                    0045875f     druntime-ldc:minfo.obj
 0002:00008767       _.str.4                    00458767     druntime-ldc:minfo.obj
 0002:00008775       _.str.5                    00458775     druntime-ldc:minfo.obj
 0002:00008780       _.str.6                    00458780     druntime-ldc:minfo.obj
 0002:00008937       _.str.2                    00458937     druntime-ldc:cpuid.obj
 0002:00008944       _.str.3                    00458944     druntime-ldc:cpuid.obj
 0002:00008951       _.str.4                    00458951     druntime-ldc:cpuid.obj
 0002:000089b0       _.str                      004589b0     druntime-ldc:exception.obj
 0002:000089d0       _.str.1                    004589d0     druntime-ldc:semaphore.obj
 0002:00008a20       _.str.2                    00458a20     druntime-ldc:semaphore.obj
 0002:00008a40       _.str.3                    00458a40     druntime-ldc:semaphore.obj
 0002:00008aa0       _.str.4                    00458aa0     druntime-ldc:semaphore.obj
 0002:00008abe       _.str                      00458abe     druntime-ldc:abort.obj
 0002:00008acd       _.str.1                    00458acd     druntime-ldc:abort.obj
 0002:00008acf       _.str.2                    00458acf     druntime-ldc:abort.obj
 0002:00008b40       _.str.4                    00458b40     druntime-ldc:gc.obj
 0002:00008b60       _.str.5                    00458b60     druntime-ldc:gc.obj
 0002:00008b90       _.str.6                    00458b90     druntime-ldc:gc.obj
 0002:00008bc0       _.str.7                    00458bc0     druntime-ldc:gc.obj
 0002:00008bf0       _.str.8                    00458bf0     druntime-ldc:gc.obj
 0002:00008c20       _.str.9                    00458c20     druntime-ldc:gc.obj
 0002:00008c50       _.str.10                   00458c50     druntime-ldc:gc.obj
 0002:00008c80       _.str.11                   00458c80     druntime-ldc:gc.obj
 0002:000094d4       _.str                      004594d4     druntime-ldc:stacktrace.obj
 0002:000094d6       _.str.2                    004594d6     druntime-ldc:stacktrace.obj
 0002:000094db       _.str.3                    004594db     druntime-ldc:stacktrace.obj
 0002:000094e0       _.str.4                    004594e0     druntime-ldc:stacktrace.obj
 0002:000094e5       _.str.5                    004594e5     druntime-ldc:stacktrace.obj
 0002:000094e7       _.str.6                    004594e7     druntime-ldc:stacktrace.obj
 0002:000094ea       _.str.7                    004594ea     druntime-ldc:stacktrace.obj
 0002:00009530       _.str.8                    00459530     druntime-ldc:stacktrace.obj
 0002:00009557       _.str.9                    00459557     druntime-ldc:stacktrace.obj
 0002:00009570       _.str.10                   00459570     druntime-ldc:stacktrace.obj
 0002:0000958a       _.str.11                   0045958a     druntime-ldc:stacktrace.obj
 0002:00009595       _.str.12                   00459595     druntime-ldc:stacktrace.obj
 0002:00009597       _.str.13                   00459597     druntime-ldc:stacktrace.obj
 0002:00009599       _.str.14                   00459599     druntime-ldc:stacktrace.obj
 0002:000095b0       _.str.15                   004595b0     druntime-ldc:stacktrace.obj
 0002:000095f0       _.str                      004595f0     druntime-ldc:config.obj
 0002:000095f4       _.str.1                    004595f4     druntime-ldc:config.obj
 0002:00009600       _.str.2                    00459600     druntime-ldc:config.obj
 0002:0000986d       _.str.3                    0045986d     druntime-ldc:config.obj
 0002:00009880       _.str.4                    00459880     druntime-ldc:config.obj
 0002:00009895       _.str.5                    00459895     druntime-ldc:config.obj
 0002:0000989d       _.str.6                    0045989d     druntime-ldc:config.obj
 0002:000098a5       _.str.7                    004598a5     druntime-ldc:config.obj
 0002:000098ad       _.str.8                    004598ad     druntime-ldc:config.obj
 0002:000098b8       _.str.9                    004598b8     druntime-ldc:config.obj
 0002:000098c4       _.str.10                   004598c4     druntime-ldc:config.obj
 0002:000098d0       _.str.11                   004598d0     druntime-ldc:config.obj
 0002:000098dc       _.str.12                   004598dc     druntime-ldc:config.obj
 0002:000098e8       _.str.13                   004598e8     druntime-ldc:config.obj
 0002:00009900       _.string_switch_table_data 00459900     druntime-ldc:config.obj
 0002:00009948       _.str.14                   00459948     druntime-ldc:config.obj
 0002:00009950       _.str.16                   00459950     druntime-ldc:config.obj
 0002:00009970       _.str.17                   00459970     druntime-ldc:config.obj
 0002:000099c0       _.str.23                   004599c0     druntime-ldc:config.obj
 0002:000099d3       _.str.24                   004599d3     druntime-ldc:config.obj
 0002:000099e0       _.str.25                   004599e0     druntime-ldc:config.obj
 0002:00009a02       _.str.27                   00459a02     druntime-ldc:config.obj
 0002:00009a0b       _.str.28                   00459a0b     druntime-ldc:config.obj
 0002:00009a13       _.str                      00459a13     druntime-ldc:dbghelp.obj
 0002:00009a1f       _.str.1                    00459a1f     druntime-ldc:dbghelp.obj
 0002:00009a2d       _.str.2                    00459a2d     druntime-ldc:dbghelp.obj
 0002:00009a38       _.str.3                    00459a38     druntime-ldc:dbghelp.obj
 0002:00009a44       _.str.4                    00459a44     druntime-ldc:dbghelp.obj
 0002:00009a52       _.str.5                    00459a52     druntime-ldc:dbghelp.obj
 0002:00009a60       _.str.6                    00459a60     druntime-ldc:dbghelp.obj
 0002:00009a80       _.str.7                    00459a80     druntime-ldc:dbghelp.obj
 0002:00009aa0       _.str.8                    00459aa0     druntime-ldc:dbghelp.obj
 0002:00009ac0       _.str.9                    00459ac0     druntime-ldc:dbghelp.obj
 0002:00009ae0       _.str.10                   00459ae0     druntime-ldc:dbghelp.obj
 0002:00009af4       _.str.11                   00459af4     druntime-ldc:dbghelp.obj
 0002:00009b10       _.str.12                   00459b10     druntime-ldc:dbghelp.obj
 0002:00009b30       _.str.13                   00459b30     druntime-ldc:dbghelp.obj
 0002:00009b50       _.str.14                   00459b50     druntime-ldc:dbghelp.obj
 0002:00009b70       _.str.15                   00459b70     druntime-ldc:dbghelp.obj
 0002:0000a000       _.str.1                    0045a000     druntime-ldc:demangle.obj
 0002:0000a070       _.str.2                    0045a070     druntime-ldc:demangle.obj
 0002:0000a099       _.str.5                    0045a099     druntime-ldc:demangle.obj
 0002:0000a09c       _.str.6                    0045a09c     druntime-ldc:demangle.obj
 0002:0000a09e       _.str.8                    0045a09e     druntime-ldc:demangle.obj
 0002:0000a0ac       _.str.9                    0045a0ac     druntime-ldc:demangle.obj
 0002:0000a0bb       _.str.11                   0045a0bb     druntime-ldc:demangle.obj
 0002:0000a0c4       _.str.13                   0045a0c4     druntime-ldc:demangle.obj
 0002:0000a184       _.str.16                   0045a184     druntime-ldc:demangle.obj
 0002:0000a189       _.str.17                   0045a189     druntime-ldc:demangle.obj
 0002:0000a18e       _.str.18                   0045a18e     druntime-ldc:demangle.obj
 0002:0000a194       _.str.19                   0045a194     druntime-ldc:demangle.obj
 0002:0000a19b       _.str.20                   0045a19b     druntime-ldc:demangle.obj
 0002:0000a1a0       _.str.21                   0045a1a0     druntime-ldc:demangle.obj
 0002:0000a1a6       _.str.22                   0045a1a6     druntime-ldc:demangle.obj
 0002:0000a1ab       _.str.23                   0045a1ab     druntime-ldc:demangle.obj
 0002:0000a1b1       _.str.24                   0045a1b1     druntime-ldc:demangle.obj
 0002:0000a1b5       _.str.25                   0045a1b5     druntime-ldc:demangle.obj
 0002:0000a1bb       _.str.26                   0045a1bb     druntime-ldc:demangle.obj
 0002:0000a1c0       _.str.27                   0045a1c0     druntime-ldc:demangle.obj
 0002:0000a1c5       _.str.28                   0045a1c5     druntime-ldc:demangle.obj
 0002:0000a1cb       _.str.29                   0045a1cb     druntime-ldc:demangle.obj
 0002:0000a1d2       _.str.30                   0045a1d2     druntime-ldc:demangle.obj
 0002:0000a1da       _.str.31                   0045a1da     druntime-ldc:demangle.obj
 0002:0000a1e1       _.str.32                   0045a1e1     druntime-ldc:demangle.obj
 0002:0000a1e9       _.str.33                   0045a1e9     druntime-ldc:demangle.obj
 0002:0000a1ef       _.str.34                   0045a1ef     druntime-ldc:demangle.obj
 0002:0000a1f6       _.str.35                   0045a1f6     druntime-ldc:demangle.obj
 0002:0000a1fc       _.str.36                   0045a1fc     druntime-ldc:demangle.obj
 0002:0000a201       _.str.37                   0045a201     druntime-ldc:demangle.obj
 0002:0000a207       _.str.38                   0045a207     druntime-ldc:demangle.obj
 0002:0000a20f       _.str.39                   0045a20f     druntime-ldc:demangle.obj
 0002:0000a216       _.str.40                   0045a216     druntime-ldc:demangle.obj
 0002:0000a221       _.str.41                   0045a221     druntime-ldc:demangle.obj
 0002:0000a228       _.str.42                   0045a228     druntime-ldc:demangle.obj
 0002:0000a232       _.str.43                   0045a232     druntime-ldc:demangle.obj
 0002:0000a235       _.str.44                   0045a235     druntime-ldc:demangle.obj
 0002:0000a23a       _.str.45                   0045a23a     druntime-ldc:demangle.obj
 0002:0000a240       _.str.46                   0045a240     druntime-ldc:demangle.obj
 0002:0000a250       _.str.47                   0045a250     druntime-ldc:demangle.obj
 0002:0000a270       _.str.48                   0045a270     druntime-ldc:demangle.obj
 0002:0000a281       _.str.49                   0045a281     druntime-ldc:demangle.obj
 0002:0000a28f       _.str.50                   0045a28f     druntime-ldc:demangle.obj
 0002:0000a295       _.str.51                   0045a295     druntime-ldc:demangle.obj
 0002:0000a29e       _.str.52                   0045a29e     druntime-ldc:demangle.obj
 0002:0000a2a3       _.str.53                   0045a2a3     druntime-ldc:demangle.obj
 0002:0000a2ae       _.str.54                   0045a2ae     druntime-ldc:demangle.obj
 0002:0000a2b8       _.str.55                   0045a2b8     druntime-ldc:demangle.obj
 0002:0000a2bf       _.str.56                   0045a2bf     druntime-ldc:demangle.obj
 0002:0000a2c6       _.str.57                   0045a2c6     druntime-ldc:demangle.obj
 0002:0000a2ce       _.str.58                   0045a2ce     druntime-ldc:demangle.obj
 0002:0000a2d2       _.str.59                   0045a2d2     druntime-ldc:demangle.obj
 0002:0000a2d8       _.str.60                   0045a2d8     druntime-ldc:demangle.obj
 0002:0000a2df       _.str.61                   0045a2df     druntime-ldc:demangle.obj
 0002:0000a2e4       _.str.62                   0045a2e4     druntime-ldc:demangle.obj
 0002:0000a2ea       _.str.63                   0045a2ea     druntime-ldc:demangle.obj
 0002:0000a2f3       _.str.64                   0045a2f3     druntime-ldc:demangle.obj
 0002:0000a2fc       _.str.65                   0045a2fc     druntime-ldc:demangle.obj
 0002:0000a301       _.str.67                   0045a301     druntime-ldc:demangle.obj
 0002:0000a304       _.str.68                   0045a304     druntime-ldc:demangle.obj
 0002:0000a309       _.str.69                   0045a309     druntime-ldc:demangle.obj
 0002:0000a30e       _.str.70                   0045a30e     druntime-ldc:demangle.obj
 0002:0000a313       _.str.71                   0045a313     druntime-ldc:demangle.obj
 0002:0000a318       _.str.72                   0045a318     druntime-ldc:demangle.obj
 0002:0000a31d       _.str.73                   0045a31d     druntime-ldc:demangle.obj
 0002:0000a322       _.str.74                   0045a322     druntime-ldc:demangle.obj
 0002:0000a327       _.str.75                   0045a327     druntime-ldc:demangle.obj
 0002:0000a32c       _.str.76                   0045a32c     druntime-ldc:demangle.obj
 0002:0000a331       _.str.77                   0045a331     druntime-ldc:demangle.obj
 0002:0000a335       _.str.78                   0045a335     druntime-ldc:demangle.obj
 0002:0000a339       _.str.79                   0045a339     druntime-ldc:demangle.obj
 0002:0000a33e       _.str.80                   0045a33e     druntime-ldc:demangle.obj
 0002:0000a344       _.str.81                   0045a344     druntime-ldc:demangle.obj
 0002:0000a347       _.str.83                   0045a347     druntime-ldc:demangle.obj
 0002:0000a3a8       ?ExceptionTemplate@?1??_CxxThrowException@@9@8@4UEHExceptionRecord@@B 0045a3a8     libvcruntime:throw.obj
 0002:0000a3c8       ?module_names@?A0x89697e75@@3QBQB_WB 0045a3c8     libvcruntime:winapi_downlevel.obj
 0002:0000a478       ?candidate_modules@?1??try_get_FlsAlloc@@YAP6GKP6GXPAX@Z@ZXZ@4QBW4module_id@?A0x89697e75@@B 0045a478     libvcruntime:winapi_downlevel.obj
 0002:0000a48c       ?candidate_modules@?1??try_get_FlsFree@@YAP6GHK@ZXZ@4QBW4module_id@?A0x89697e75@@B 0045a48c     libvcruntime:winapi_downlevel.obj
 0002:0000a49c       ?candidate_modules@?1??try_get_FlsGetValue@@YAP6GPAXK@ZXZ@4QBW4module_id@?A0x89697e75@@B 0045a49c     libvcruntime:winapi_downlevel.obj
 0002:0000a4b0       ?candidate_modules@?1??try_get_FlsSetValue@@YAP6GHKPAX@ZXZ@4QBW4module_id@?A0x89697e75@@B 0045a4b0     libvcruntime:winapi_downlevel.obj
 0002:0000a4c4       ?candidate_modules@?1??try_get_InitializeCriticalSectionEx@@YAP6GHPAU_RTL_CRITICAL_SECTION@@KK@ZXZ@4QBW4module_id@?A0x89697e75@@B 0045a4c4     libvcruntime:winapi_downlevel.obj
 0002:0000a4e8       ?tokenTable@@3QBQBDB       0045a4e8     libvcruntime:undname.obj
 0002:0000a520       ?nameTable@@3QBQBDB        0045a520     libvcruntime:undname.obj
 0002:0000a664       ?rttiTable@@3QBQBDB        0045a664     libvcruntime:undname.obj
 0002:0000ac50       _GS_ExceptionPointers      0045ac50     LIBCMT:gs_report.obj
 0002:0000ac98       ?errtable@@3QBUerrentry@?A0x31fdb9ec@@B 0045ac98     libucrt:errno.obj
 0002:0000bb40       ___acrt_initializers       0045bb40     libucrt:initialization.obj
 0002:0000bbc0       ?module_names@?A0x391cf84c@@3QBQB_WB 0045bbc0     libucrt:winapi_thunks.obj
 0002:0000c000       ?candidate_modules@?1??try_get_CompareStringEx@@YAP6GHPB_WK0H0HPAU_nlsversioninfo@@PAXJ@ZXZ@4QBW4module_id@?A0x391cf84c@@B 0045c000     libucrt:winapi_thunks.obj
 0002:0000c018       ?candidate_modules@?1??try_get_FlsAlloc@@YAP6GKP6GXPAX@Z@ZXZ@4QBW4module_id@?A0x391cf84c@@B 0045c018     libucrt:winapi_thunks.obj
 0002:0000c020       ?candidate_modules@?1??try_get_FlsFree@@YAP6GHK@ZXZ@4QBW4module_id@?A0x391cf84c@@B 0045c020     libucrt:winapi_thunks.obj
 0002:0000c028       ?candidate_modules@?1??try_get_FlsGetValue@@YAP6GPAXK@ZXZ@4QBW4module_id@?A0x391cf84c@@B 0045c028     libucrt:winapi_thunks.obj
 0002:0000c030       ?candidate_modules@?1??try_get_FlsSetValue@@YAP6GHKPAX@ZXZ@4QBW4module_id@?A0x391cf84c@@B 0045c030     libucrt:winapi_thunks.obj
 0002:0000c038       ?candidate_modules@?1??try_get_GetSystemTimePreciseAsFileTime@@YAP6GXPAU_FILETIME@@@ZXZ@4QBW4module_id@?A0x391cf84c@@B 0045c038     libucrt:winapi_thunks.obj
 0002:0000c05c       ?candidate_modules@?1??try_get_InitializeCriticalSectionEx@@YAP6GHPAU_RTL_CRITICAL_SECTION@@KK@ZXZ@4QBW4module_id@?A0x391cf84c@@B 0045c05c     libucrt:winapi_thunks.obj
 0002:0000c064       ?candidate_modules@?1??try_get_LCMapStringEx@@YAP6GHPB_WK0HPA_WHPAU_nlsversioninfo@@PAXJ@ZXZ@4QBW4module_id@?A0x391cf84c@@B 0045c064     libucrt:winapi_thunks.obj
 0002:0000c07c       ?candidate_modules@?1??try_get_LocaleNameToLCID@@YAP6GKPB_WK@ZXZ@4QBW4module_id@?A0x391cf84c@@B 0045c07c     libucrt:winapi_thunks.obj
 0002:0000c098       ?candidate_modules@?1??try_get_RoInitialize@@YAP6GJW4RO_INIT_TYPE@@@ZXZ@4QBW4module_id@?A0x391cf84c@@B 0045c098     libucrt:winapi_thunks.obj
 0002:0000c0ac       ?candidate_modules@?1??try_get_RoUninitialize@@YAP6GXXZXZ@4QBW4module_id@?A0x391cf84c@@B 0045c0ac     libucrt:winapi_thunks.obj
 0002:0000c0c0       ?candidate_modules@?1??try_get_AppPolicyGetProcessTerminationMethod@@YAP6GJPAXPAW4AppPolicyProcessTerminationMethod@@@ZXZ@4QBW4module_id@?A0x391cf84c@@B 0045c0c0     libucrt:winapi_thunks.obj
 0002:0000c0ec       ?candidate_modules@?1??try_get_AppPolicyGetThreadInitializationType@@YAP6GJPAXPAW4AppPolicyThreadInitializationType@@@ZXZ@4QBW4module_id@?A0x391cf84c@@B 0045c0ec     libucrt:winapi_thunks.obj
 0002:0000d014       ?_mb_locale_names@@3QBQB_WB 0045d014     libucrt:mbctype.obj
 0002:0000d0c8       ?LcidToLocaleNameTable@?A0x881e4c05@@3QBULcidToLocaleName@1@B 0045d0c8     libucrt:lcidtoname_downlevel.obj
 0002:0000e1e8       ?LocaleNameToIndexTable@?A0x881e4c05@@3QBULocaleNameIndex@1@B 0045e1e8     libucrt:lcidtoname_downlevel.obj
 0002:0000f15c       _over                      0045f15c     libucrt:fpctrl.obj
 0002:0000f168       _under                     0045f168     libucrt:fpctrl.obj
 0002:0000f190       LOG_name                   0045f190     libucrt:log10.obj
 0002:0000f1a0       _One                       0045f1a0     libucrt:ceil_pentium4.obj
 0002:0000f1b0       _Bns                       0045f1b0     libucrt:ceil_pentium4.obj
 0002:0000f1c0       _Zero                      0045f1c0     libucrt:ceil_pentium4.obj
 0002:0000f1d0       _S                         0045f1d0     libucrt:ceil_pentium4.obj
 0002:0000f1e0       _NegZero                   0045f1e0     libucrt:ceil_pentium4.obj
 0002:0000f1f0       emask                      0045f1f0     libucrt:log10_pentium4.obj
 0002:0000f200       CC                         0045f200     libucrt:log10_pentium4.obj
 0002:0000f210       Magic                      0045f210     libucrt:log10_pentium4.obj
 0002:0000f220       hi_mask                    0045f220     libucrt:log10_pentium4.obj
 0002:0000f230       LOG10_2                    0045f230     libucrt:log10_pentium4.obj
 0002:0000f240       place_L                    0045f240     libucrt:log10_pentium4.obj
 0002:0000f260       One                        0045f260     libucrt:log10_pentium4.obj
 0002:0000f270       Zero                       0045f270     libucrt:log10_pentium4.obj
 0002:0000f280       Two52                      0045f280     libucrt:log10_pentium4.obj
 0002:0000f290       Infs                       0045f290     libucrt:log10_pentium4.obj
 0002:0000f2a0       NaN                        0045f2a0     libucrt:log10_pentium4.obj
 0002:0000f2b0       coeff                      0045f2b0     libucrt:log10_pentium4.obj
 0002:0000f30e       _log2max                   0045f30e     libucrt:87tran.obj
 0002:0000f318       _smallarg                  0045f318     libucrt:87tran.obj
 0002:0000f322       _half                      0045f322     libucrt:87tran.obj
 0002:0000f36e       One                        0045f36e     libucrt:87disp.obj
 0002:0000f376       Three                      0045f376     libucrt:87disp.obj
 0002:0000f37e       XAMtoTagTab                0045f37e     libucrt:87disp.obj
 0002:0000f390       One                        0045f390     libucrt:common.obj
 0002:0000f3a4       DblMax                     0045f3a4     libucrt:common.obj
 0002:0000f3ac       DblMin                     0045f3ac     libucrt:common.obj
 0002:0000f3b4       IeeeAdjO                   0045f3b4     libucrt:common.obj
 0002:0000f3bc       IeeeAdjU                   0045f3bc     libucrt:common.obj
 0002:0000f3c4       _infinity                  0045f3c4     libucrt:common.obj
 0002:0000f3cc       _zero                      0045f3cc     libucrt:common.obj
 0002:0000fc38       ?_names@?1??_get_fname@@9@9 0045fc38     libucrt:fpexcept.obj
 0002:000105bc       $stateUnwindMap$__D3std5stdio16__T7writelnTAyaZ7writelnFNfAyaZv 004605bc     PatcherLibTestD.obj
 0002:000105f0       $stateUnwindMap$__D3std8internal7cstring23__T11tempCStringTaTAxaZ11tempCStringFNbNiNfAxaZS3std8internal7cstring23__T11tempCStringTaTAxaZ11tempCStringFAxaZ3Res 004605f0     phobos2-ldc:stdio.obj
 0002:00010600       $tryMap$__D3std8internal7cstring23__T11tempCStringTaTAxaZ11tempCStringFNbNiNfAxaZS3std8internal7cstring23__T11tempCStringTaTAxaZ11tempCStringFAxaZ3Res 00460600     phobos2-ldc:stdio.obj
 0002:00010614       $handlerMap$0$__D3std8internal7cstring23__T11tempCStringTaTAxaZ11tempCStringFNbNiNfAxaZS3std8internal7cstring23__T11tempCStringTaTAxaZ11tempCStringFAxaZ3Res 00460614     phobos2-ldc:stdio.obj
 0002:00010648       $stateUnwindMap$__D3std5stdio4File5closeMFNeZv 00460648     phobos2-ldc:stdio.obj
 0002:00010674       $stateUnwindMap$__D3std7variant18__T8VariantNVki16Z8VariantN15__T7handlerHTvZ7handlerFE3std7variant18__T8VariantNVki16Z8VariantN4OpIDPG16hPvZi 00460674     phobos2-ldc:variant.obj
 0002:00010684       $tryMap$__D3std7variant18__T8VariantNVki16Z8VariantN15__T7handlerHTvZ7handlerFE3std7variant18__T8VariantNVki16Z8VariantN4OpIDPG16hPvZi 00460684     phobos2-ldc:variant.obj
 0002:00010698       $handlerMap$0$__D3std7variant18__T8VariantNVki16Z8VariantN15__T7handlerHTvZ7handlerFE3std7variant18__T8VariantNVki16Z8VariantN4OpIDPG16hPvZi 00460698     phobos2-ldc:variant.obj
 0002:000106cc       $stateUnwindMap$__D3std7variant18__T8VariantNVki16Z8VariantN4typeMxFNbNdNeZC8TypeInfo 004606cc     phobos2-ldc:variant.obj
 0002:000106dc       $tryMap$__D3std7variant18__T8VariantNVki16Z8VariantN4typeMxFNbNdNeZC8TypeInfo 004606dc     phobos2-ldc:variant.obj
 0002:000106f0       $handlerMap$0$__D3std7variant18__T8VariantNVki16Z8VariantN4typeMxFNbNdNeZC8TypeInfo 004606f0     phobos2-ldc:variant.obj
 0002:00010724       $stateUnwindMap$__D3std7variant18__T8VariantNVki16Z8VariantN53__T5opCmpTS3std7variant18__T8VariantNVki16Z8VariantNZ5opCmpMFS3std7variant18__T8VariantNVki16Z8VariantNZi 00460724     phobos2-ldc:variant.obj
 0002:0001074c       $tryMap$__D3std7variant18__T8VariantNVki16Z8VariantN53__T5opCmpTS3std7variant18__T8VariantNVki16Z8VariantNZ5opCmpMFS3std7variant18__T8VariantNVki16Z8VariantNZi 0046074c     phobos2-ldc:variant.obj
 0002:00010774       $handlerMap$0$__D3std7variant18__T8VariantNVki16Z8VariantN53__T5opCmpTS3std7variant18__T8VariantNVki16Z8VariantNZ5opCmpMFS3std7variant18__T8VariantNVki16Z8VariantNZi 00460774     phobos2-ldc:variant.obj
 0002:00010784       $handlerMap$1$__D3std7variant18__T8VariantNVki16Z8VariantN53__T5opCmpTS3std7variant18__T8VariantNVki16Z8VariantNZ5opCmpMFS3std7variant18__T8VariantNVki16Z8VariantNZi 00460784     phobos2-ldc:variant.obj
 0002:000107b8       $stateUnwindMap$__D3std11concurrency33__T5_sendTS3std11concurrency3TidZ5_sendFE3std11concurrency7MsgTypeS3std11concurrency3TidS3std11concurrency3TidZv 004607b8     phobos2-ldc:concurrency.obj
 0002:000107e4       $stateUnwindMap$__D3std11concurrency14FiberScheduler6createMFNbDFZvZ4wrapMFZv 004607e4     phobos2-ldc:concurrency.obj
 0002:00010810       $stateUnwindMap$__D3std11concurrency10MessageBox3putMFKS3std11concurrency7MessageZv 00460810     phobos2-ldc:concurrency.obj
 0002:0001084c       $stateUnwindMap$__D3std11concurrency36__T4ListTS3std11concurrency7MessageZ4List7newNodeMFS3std11concurrency7MessageZPS3std11concurrency36__T4ListTS3std11concurrency7MessageZ4List4Node 0046084c     phobos2-ldc:concurrency.obj
 0002:00010888       $stateUnwindMap$__D3std7variant18__T8VariantNVki16Z8VariantN35__T7handlerTS3std11concurrency3TidZ7handlerFE3std7variant18__T8VariantNVki16Z8VariantN4OpIDPG16hPvZi 00460888     phobos2-ldc:concurrency.obj
 0002:000108b4       $stateUnwindMap$__D3std8datetime4Date6__ctorMFNaNbNcNfiZS3std8datetime4Date 004608b4     phobos2-ldc:datetime.obj
 0002:000108e4       $tryMap$__D3std8datetime4Date6__ctorMFNaNbNcNfiZS3std8datetime4Date 004608e4     phobos2-ldc:datetime.obj
 0002:00010920       $handlerMap$0$__D3std8datetime4Date6__ctorMFNaNbNcNfiZS3std8datetime4Date 00460920     phobos2-ldc:datetime.obj
 0002:00010930       $handlerMap$1$__D3std8datetime4Date6__ctorMFNaNbNcNfiZS3std8datetime4Date 00460930     phobos2-ldc:datetime.obj
 0002:00010940       $handlerMap$2$__D3std8datetime4Date6__ctorMFNaNbNcNfiZS3std8datetime4Date 00460940     phobos2-ldc:datetime.obj
 0002:00010974       $stateUnwindMap$__D3std8datetime7SysTime35__T6opCastTS3std8datetime8DateTimeZ6opCastMxFNbNfZS3std8datetime8DateTime 00460974     phobos2-ldc:datetime.obj
 0002:00010984       $tryMap$__D3std8datetime7SysTime35__T6opCastTS3std8datetime8DateTimeZ6opCastMxFNbNfZS3std8datetime8DateTime 00460984     phobos2-ldc:datetime.obj
 0002:00010998       $handlerMap$0$__D3std8datetime7SysTime35__T6opCastTS3std8datetime8DateTimeZ6opCastMxFNbNfZS3std8datetime8DateTime 00460998     phobos2-ldc:datetime.obj
 0002:000109cc       $stateUnwindMap$__D3std8datetime9LocalTime7stdNameMxFNbNdNeZAya 004609cc     phobos2-ldc:datetime.obj
 0002:000109dc       $tryMap$__D3std8datetime9LocalTime7stdNameMxFNbNdNeZAya 004609dc     phobos2-ldc:datetime.obj
 0002:000109f0       $handlerMap$0$__D3std8datetime9LocalTime7stdNameMxFNbNdNeZAya 004609f0     phobos2-ldc:datetime.obj
 0002:00010a24       $stateUnwindMap$__D3std8datetime9LocalTime7dstNameMxFNbNdNeZAya 00460a24     phobos2-ldc:datetime.obj
 0002:00010a34       $tryMap$__D3std8datetime9LocalTime7dstNameMxFNbNdNeZAya 00460a34     phobos2-ldc:datetime.obj
 0002:00010a48       $handlerMap$0$__D3std8datetime9LocalTime7dstNameMxFNbNdNeZAya 00460a48     phobos2-ldc:datetime.obj
 0002:00010a7c       $stateUnwindMap$__D3std8datetime15WindowsTimeZone12_dstInEffectFNbNexPS4core3sys7windows7winbase21TIME_ZONE_INFORMATIONlZb 00460a7c     phobos2-ldc:datetime.obj
 0002:00010a8c       $tryMap$__D3std8datetime15WindowsTimeZone12_dstInEffectFNbNexPS4core3sys7windows7winbase21TIME_ZONE_INFORMATIONlZb 00460a8c     phobos2-ldc:datetime.obj
 0002:00010aa0       $handlerMap$0$__D3std8datetime15WindowsTimeZone12_dstInEffectFNbNexPS4core3sys7windows7winbase21TIME_ZONE_INFORMATIONlZb 00460aa0     phobos2-ldc:datetime.obj
 0002:00010ad4       $stateUnwindMap$__D3std8datetime15WindowsTimeZone8_tzToUTCFNbNexPS4core3sys7windows7winbase21TIME_ZONE_INFORMATIONlbZl 00460ad4     phobos2-ldc:datetime.obj
 0002:00010ae4       $tryMap$__D3std8datetime15WindowsTimeZone8_tzToUTCFNbNexPS4core3sys7windows7winbase21TIME_ZONE_INFORMATIONlbZl 00460ae4     phobos2-ldc:datetime.obj
 0002:00010af8       $handlerMap$0$__D3std8datetime15WindowsTimeZone8_tzToUTCFNbNexPS4core3sys7windows7winbase21TIME_ZONE_INFORMATIONlbZl 00460af8     phobos2-ldc:datetime.obj
 0002:00010b2c       $stateUnwindMap$__D3std8internal7cstring23__T11tempCStringTuTAxaZ11tempCStringFNbNiNfAxaZS3std8internal7cstring23__T11tempCStringTuTAxaZ11tempCStringFAxaZ3Res 00460b2c     phobos2-ldc:cstring.obj
 0002:00010b3c       $tryMap$__D3std8internal7cstring23__T11tempCStringTuTAxaZ11tempCStringFNbNiNfAxaZS3std8internal7cstring23__T11tempCStringTuTAxaZ11tempCStringFAxaZ3Res 00460b3c     phobos2-ldc:cstring.obj
 0002:00010b50       $handlerMap$0$__D3std8internal7cstring23__T11tempCStringTuTAxaZ11tempCStringFNbNiNfAxaZS3std8internal7cstring23__T11tempCStringTuTAxaZ11tempCStringFAxaZ3Res 00460b50     phobos2-ldc:cstring.obj
 0002:00010b84       $stateUnwindMap$__D3std7windows8syserror57__T11putSysErrorTS3std5array17__T8AppenderTAyaZ8AppenderZ11putSysErrorFkS3std5array17__T8AppenderTAyaZ8AppenderiZb 00460b84     phobos2-ldc:syserror.obj
 0002:00010bb0       $stateUnwindMap$__D3std12experimental6logger10filelogger10FileLogger6__ctorMFNfS3std5stdio4FilexE3std12experimental6logger4core8LogLevelZC3std12experimental6logger10filelogger10FileLogger 00460bb0     phobos2-ldc:filelogger.obj
 0002:00010bdc       $stateUnwindMap$__D3std12experimental6logger10filelogger10FileLogger11beginLogMsgMFNfAyaiAyaAyaAyaE3std12experimental6logger4core8LogLevelS3std11concurrency3TidS3std8datetime7SysTimeC3std12experimental6logger4core6LoggerZv 00460bdc     phobos2-ldc:filelogger.obj
 0002:00010c08       $stateUnwindMap$__D3std12experimental6logger4core60__T18systimeToISOStringTS3std5stdio4File17LockingTextWriterZ18systimeToISOStringFNfS3std5stdio4File17LockingTextWriterKxS3std8datetime7SysTimeZv 00460c08     phobos2-ldc:filelogger.obj
 0002:00010c34       $stateUnwindMap$__D3std6format68__T14formattedWriteTS3std5stdio4File17LockingTextWriterTaTAyaTAyaTiZ14formattedWriteFNfS3std5stdio4File17LockingTextWriterxAaAyaAyaiZk 00460c34     phobos2-ldc:filelogger.obj
 0002:00010c60       $stateUnwindMap$__D3std6format62__T14formattedWriteTS3std5stdio4File17LockingTextWriterTaTAxaZ14formattedWriteFNfS3std5stdio4File17LockingTextWriterxAaAxaZk 00460c60     phobos2-ldc:filelogger.obj
 0002:00010cac       $stateUnwindMap$__D3std12experimental6logger10filelogger10FileLogger12finishLogMsgMFNfZv 00460cac     phobos2-ldc:filelogger.obj
 0002:00010cd8       $stateUnwindMap$__D3std6format92__T14formattedWriteTS3std5stdio4File17LockingTextWriterTaTsTE3std8datetime5MonthThThThThTxlZ14formattedWriteFNfS3std5stdio4File17LockingTextWriterxAasE3std8datetime5MonthhhhhxlZk 00460cd8     phobos2-ldc:filelogger.obj
 0002:00010d04       $stateUnwindMap$__D3std6format59__T13formatGenericTS3std5stdio4File17LockingTextWriterTsTaZ13formatGenericFS3std5stdio4File17LockingTextWriterPxvKS3std6format18__T10FormatSpecTaZ10FormatSpecZv 00460d04     phobos2-ldc:filelogger.obj
 0002:00010d30       $stateUnwindMap$__D3std6format57__T11formatValueTS3std5stdio4File17LockingTextWriterTsTaZ11formatValueFNfS3std5stdio4File17LockingTextWritersKS3std6format18__T10FormatSpecTaZ10FormatSpecZv 00460d30     phobos2-ldc:filelogger.obj
 0002:00010d64       $stateUnwindMap$__D3std6format78__T13formatGenericTS3std5stdio4File17LockingTextWriterTE3std8datetime5MonthTaZ13formatGenericFS3std5stdio4File17LockingTextWriterPxvKS3std6format18__T10FormatSpecTaZ10FormatSpecZv 00460d64     phobos2-ldc:filelogger.obj
 0002:00010d90       $stateUnwindMap$__D3std6format76__T11formatValueTS3std5stdio4File17LockingTextWriterTE3std8datetime5MonthTaZ11formatValueFNfS3std5stdio4File17LockingTextWriterE3std8datetime5MonthKS3std6format18__T10FormatSpecTaZ10FormatSpecZv 00460d90     phobos2-ldc:filelogger.obj
 0002:00010e1c       $stateUnwindMap$__D3std6format59__T13formatGenericTS3std5stdio4File17LockingTextWriterThTaZ13formatGenericFS3std5stdio4File17LockingTextWriterPxvKS3std6format18__T10FormatSpecTaZ10FormatSpecZv 00460e1c     phobos2-ldc:filelogger.obj
 0002:00010e48       $stateUnwindMap$__D3std6format57__T11formatValueTS3std5stdio4File17LockingTextWriterThTaZ11formatValueFNfS3std5stdio4File17LockingTextWriterhKS3std6format18__T10FormatSpecTaZ10FormatSpecZv 00460e48     phobos2-ldc:filelogger.obj
 0002:00010e7c       $stateUnwindMap$__D3std6format60__T13formatGenericTS3std5stdio4File17LockingTextWriterTxlTaZ13formatGenericFS3std5stdio4File17LockingTextWriterPxvKS3std6format18__T10FormatSpecTaZ10FormatSpecZv 00460e7c     phobos2-ldc:filelogger.obj
 0002:00010ea8       $stateUnwindMap$__D3std6format58__T11formatValueTS3std5stdio4File17LockingTextWriterTxlTaZ11formatValueFNfS3std5stdio4File17LockingTextWriterxlKS3std6format18__T10FormatSpecTaZ10FormatSpecZv 00460ea8     phobos2-ldc:filelogger.obj
 0002:00010edc       $stateUnwindMap$__D3std6format18__T10FormatSpecTaZ10FormatSpec59__T17writeUpToNextSpecTS3std5stdio4File17LockingTextWriterZ17writeUpToNextSpecMFNfS3std5stdio4File17LockingTextWriterZb 00460edc     phobos2-ldc:filelogger.obj
 0002:00010f08       $stateUnwindMap$__D3std6format60__T14formatUnsignedTS3std5stdio4File17LockingTextWriterTmTaZ14formatUnsignedFNfS3std5stdio4File17LockingTextWritermKxS3std6format18__T10FormatSpecTaZ10FormatSpeckbZv 00460f08     phobos2-ldc:filelogger.obj
 0002:00010f34       $stateUnwindMap$__D3std6format59__T11formatRangeTS3std5stdio4File17LockingTextWriterTAyaTaZ11formatRangeFNfKS3std5stdio4File17LockingTextWriterKAyaKS3std6format18__T10FormatSpecTaZ10FormatSpecZv 00460f34     phobos2-ldc:filelogger.obj
 0002:00010f70       $stateUnwindMap$__D3std6format58__T11formatValueTS3std5stdio4File17LockingTextWriterTxaTaZ11formatValueFNfS3std5stdio4File17LockingTextWriterxaKS3std6format18__T10FormatSpecTaZ10FormatSpecZv 00460f70     phobos2-ldc:filelogger.obj
 0002:00010f70       $stateUnwindMap$__D3std6format58__T11formatValueTS3std5stdio4File17LockingTextWriterTyaTaZ11formatValueFNfS3std5stdio4File17LockingTextWriteryaKS3std6format18__T10FormatSpecTaZ10FormatSpecZv 00460f70     phobos2-ldc:filelogger.obj
 0002:00010f9c       $stateUnwindMap$__D3std6format59__T13formatElementTS3std5stdio4File17LockingTextWriterTwTaZ13formatElementFNfS3std5stdio4File17LockingTextWriterwKS3std6format18__T10FormatSpecTaZ10FormatSpecZv 00460f9c     phobos2-ldc:filelogger.obj
 0002:00010fd0       $stateUnwindMap$__D3std6format57__T11formatValueTS3std5stdio4File17LockingTextWriterTkTaZ11formatValueFNfS3std5stdio4File17LockingTextWriterkKS3std6format18__T10FormatSpecTaZ10FormatSpecZv 00460fd0     phobos2-ldc:filelogger.obj
 0002:00011004       $stateUnwindMap$__D3std6format52__T10formatCharTS3std5stdio4File17LockingTextWriterZ10formatCharFNfS3std5stdio4File17LockingTextWriterxwxaZv 00461004     phobos2-ldc:filelogger.obj
 0002:00011030       $stateUnwindMap$__D3std6format60__T14formattedWriteTS3std5stdio4File17LockingTextWriterTaTkZ14formattedWriteFNfS3std5stdio4File17LockingTextWriterxAakZk 00461030     phobos2-ldc:filelogger.obj
 0002:0001106c       $stateUnwindMap$__D3std6format61__T13formatGenericTS3std5stdio4File17LockingTextWriterTAyaTaZ13formatGenericFS3std5stdio4File17LockingTextWriterPxvKS3std6format18__T10FormatSpecTaZ10FormatSpecZv 0046106c     phobos2-ldc:filelogger.obj
 0002:000110a0       $stateUnwindMap$__D3std6format59__T13formatGenericTS3std5stdio4File17LockingTextWriterTiTaZ13formatGenericFS3std5stdio4File17LockingTextWriterPxvKS3std6format18__T10FormatSpecTaZ10FormatSpecZv 004610a0     phobos2-ldc:filelogger.obj
 0002:000110cc       $stateUnwindMap$__D3std6format57__T11formatValueTS3std5stdio4File17LockingTextWriterTiTaZ11formatValueFNfS3std5stdio4File17LockingTextWriteriKS3std6format18__T10FormatSpecTaZ10FormatSpecZv 004610cc     phobos2-ldc:filelogger.obj
 0002:00011100       $stateUnwindMap$__D3std6format59__T11formatRangeTS3std5stdio4File17LockingTextWriterTAxaTaZ11formatRangeFNfKS3std5stdio4File17LockingTextWriterKAxaKS3std6format18__T10FormatSpecTaZ10FormatSpecZv 00461100     phobos2-ldc:filelogger.obj
 0002:0001113c       $stateUnwindMap$__D3std6socket7Address8toStringMxFNfZAya 0046113c     phobos2-ldc:socket.obj
 0002:0001114c       $tryMap$__D3std6socket7Address8toStringMxFNfZAya 0046114c     phobos2-ldc:socket.obj
 0002:00011160       $handlerMap$0$__D3std6socket7Address8toStringMxFNfZAya 00461160     phobos2-ldc:socket.obj
 0002:00011194       $stateUnwindMap$__D3std6socket6Socket6acceptMFNeZC3std6socket6Socket 00461194     phobos2-ldc:socket.obj
 0002:000111a4       $tryMap$__D3std6socket6Socket6acceptMFNeZC3std6socket6Socket 004611a4     phobos2-ldc:socket.obj
 0002:000111b8       $handlerMap$0$__D3std6socket6Socket6acceptMFNeZC3std6socket6Socket 004611b8     phobos2-ldc:socket.obj
 0002:000111ec       $stateUnwindMap$__D3std7windows8registry12regCreateKeyFxPvxAyaxkxE3std7windows8registry6REGSAMxPS4core3sys7windows5winnt19SECURITY_ATTRIBUTESJkZPv 004611ec     phobos2-ldc:registry.obj
 0002:00011218       $stateUnwindMap$__D3std7windows8registry12regDeleteKeyFxPvxAyaxE3std7windows8registry6REGSAMZv 00461218     phobos2-ldc:registry.obj
 0002:00011244       $stateUnwindMap$__D3std7windows8registry14regDeleteValueFxPvxAyaZv 00461244     phobos2-ldc:registry.obj
 0002:00011270       $stateUnwindMap$__D3std7windows8registry15regGetValueTypeFxPvxAyaZE3std7windows8registry14REG_VALUE_TYPE 00461270     phobos2-ldc:registry.obj
 0002:0001129c       $stateUnwindMap$__D3std7windows8registry10regOpenKeyFxPvxAyaxE3std7windows8registry6REGSAMZPv 0046129c     phobos2-ldc:registry.obj
 0002:000112c8       $stateUnwindMap$__D3std7windows8registry13regQueryValueFxPvAyaJAyaE3std7windows8registry14REG_VALUE_TYPEZv 004612c8     phobos2-ldc:registry.obj
 0002:000112f4       $stateUnwindMap$__D3std7windows8registry13regQueryValueFxPvxAyaJAAyaE3std7windows8registry14REG_VALUE_TYPEZv 004612f4     phobos2-ldc:registry.obj
 0002:00011320       $stateUnwindMap$__D3std7windows8registry13regQueryValueFxPvxAyaJkE3std7windows8registry14REG_VALUE_TYPEZv 00461320     phobos2-ldc:registry.obj
 0002:0001134c       $stateUnwindMap$__D3std7windows8registry13regQueryValueFxPvxAyaJmE3std7windows8registry14REG_VALUE_TYPEZv 0046134c     phobos2-ldc:registry.obj
 0002:00011378       $stateUnwindMap$__D3std7windows8registry13regQueryValueFxPvxAyaJAgE3std7windows8registry14REG_VALUE_TYPEZv 00461378     phobos2-ldc:registry.obj
 0002:000113a4       $stateUnwindMap$__D3std7windows8registry11regSetValueFxPvxAyaxE3std7windows8registry14REG_VALUE_TYPExPvxkZv 004613a4     phobos2-ldc:registry.obj
 0002:000113d0       $stateUnwindMap$__D3std7windows8registry3Key9createKeyMFAyaE3std7windows8registry6REGSAMZC3std7windows8registry3Key 004613d0     phobos2-ldc:registry.obj
 0002:000113fc       $stateUnwindMap$__D3std7windows8registry3Key6getKeyMFAyaE3std7windows8registry6REGSAMZC3std7windows8registry3Key 004613fc     phobos2-ldc:registry.obj
 0002:00011428       $stateUnwindMap$__D3std7windows8registry3Key8setValueMFAyaAyabZv 00461428     phobos2-ldc:registry.obj
 0002:00011454       $stateUnwindMap$__D3std7windows8registry5Value15value_EXPAND_SZMxFNdZAya 00461454     phobos2-ldc:registry.obj
 0002:00011480       $stateUnwindMap$__D3std7windows8registry11KeySequence7opApplyMFMDFKC3std7windows8registry3KeyZiZ9__lambda2MFMDFkJAyaZiZv 00461480     phobos2-ldc:registry.obj
 0002:00011490       $tryMap$__D3std7windows8registry11KeySequence7opApplyMFMDFKC3std7windows8registry3KeyZiZ9__lambda2MFMDFkJAyaZiZv 00461490     phobos2-ldc:registry.obj
 0002:000114a4       $handlerMap$0$__D3std7windows8registry11KeySequence7opApplyMFMDFKC3std7windows8registry3KeyZiZ9__lambda2MFMDFkJAyaZiZv 004614a4     phobos2-ldc:registry.obj
 0002:000114d8       $stateUnwindMap$__D3std12experimental6logger4core6Logger10forwardMsgMFNeKS3std12experimental6logger4core6Logger8LogEntryZv 004614d8     phobos2-ldc:core.obj
 0002:00011504       $stateUnwindMap$__D3std12experimental6logger4core23defaultSharedLoggerImplFNdNeZC3std12experimental6logger4core6Logger 00461504     phobos2-ldc:core.obj
 0002:00011530       $stateUnwindMap$rt_finalize2 00461530     druntime-ldc:lifetime.obj
 0002:00011540       $tryMap$rt_finalize2       00461540     druntime-ldc:lifetime.obj
 0002:00011554       $handlerMap$0$rt_finalize2 00461554     druntime-ldc:lifetime.obj
 0002:00011588       $stateUnwindMap$rt_finalizeFromGC 00461588     druntime-ldc:lifetime.obj
 0002:000115a8       $tryMap$rt_finalizeFromGC  004615a8     druntime-ldc:lifetime.obj
 0002:000115d0       $handlerMap$0$rt_finalizeFromGC 004615d0     druntime-ldc:lifetime.obj
 0002:000115e0       $handlerMap$1$rt_finalizeFromGC 004615e0     druntime-ldc:lifetime.obj
 0002:00011614       $stateUnwindMap$__D6object8TypeInfo6toHashMxFNbNeZk 00461614     druntime-ldc:object.obj
 0002:00011624       $tryMap$__D6object8TypeInfo6toHashMxFNbNeZk 00461624     druntime-ldc:object.obj
 0002:00011638       $handlerMap$0$__D6object8TypeInfo6toHashMxFNbNeZk 00461638     druntime-ldc:object.obj
 0002:0001166c       $stateUnwindMap$__D6object9Throwable8toStringMxFMDFxAaZvZv 0046166c     druntime-ldc:object.obj
 0002:0001167c       $tryMap$__D6object9Throwable8toStringMxFMDFxAaZvZv 0046167c     druntime-ldc:object.obj
 0002:00011690       $handlerMap$0$__D6object9Throwable8toStringMxFMDFxAaZvZv 00461690     druntime-ldc:object.obj
 0002:000116c4       $stateUnwindMap$rt_init    004616c4     druntime-ldc:dmain2.obj
 0002:000116d4       $tryMap$rt_init            004616d4     druntime-ldc:dmain2.obj
 0002:000116e8       $handlerMap$0$rt_init      004616e8     druntime-ldc:dmain2.obj
 0002:0001171c       $stateUnwindMap$rt_term    0046171c     druntime-ldc:dmain2.obj
 0002:00011734       $tryMap$rt_term            00461734     druntime-ldc:dmain2.obj
 0002:00011748       $handlerMap$0$rt_term      00461748     druntime-ldc:dmain2.obj
 0002:0001177c       $stateUnwindMap$_d_run_main 0046177c     druntime-ldc:dmain2.obj
 0002:0001178c       $tryMap$_d_run_main        0046178c     druntime-ldc:dmain2.obj
 0002:000117a0       $handlerMap$0$_d_run_main  004617a0     druntime-ldc:dmain2.obj
 0002:000117d4       $stateUnwindMap$__D2rt6dmain211_d_run_mainUiPPaPUAAaZiZ7tryExecMFMDFZvZv 004617d4     druntime-ldc:dmain2.obj
 0002:000117e4       $tryMap$__D2rt6dmain211_d_run_mainUiPPaPUAAaZiZ7tryExecMFMDFZvZv 004617e4     druntime-ldc:dmain2.obj
 0002:000117f8       $handlerMap$0$__D2rt6dmain211_d_run_mainUiPPaPUAAaZiZ7tryExecMFMDFZvZv 004617f8     druntime-ldc:dmain2.obj
 0002:0001182c       $stateUnwindMap$__D4core4sync9condition9Condition6__ctorMFNbNfC4core4sync5mutex5MutexZC4core4sync9condition9Condition 0046182c     druntime-ldc:condition.obj
 0002:0001184c       $tryMap$__D4core4sync9condition9Condition6__ctorMFNbNfC4core4sync5mutex5MutexZC4core4sync9condition9Condition 0046184c     druntime-ldc:condition.obj
 0002:00011874       $handlerMap$0$__D4core4sync9condition9Condition6__ctorMFNbNfC4core4sync5mutex5MutexZC4core4sync9condition9Condition 00461874     druntime-ldc:condition.obj
 0002:00011884       $handlerMap$1$__D4core4sync9condition9Condition6__ctorMFNbNfC4core4sync5mutex5MutexZC4core4sync9condition9Condition 00461884     druntime-ldc:condition.obj
 0002:000118b8       $stateUnwindMap$__D4core4sync9condition9Condition9timedWaitMFkZb 004618b8     druntime-ldc:condition.obj
 0002:000118d8       $tryMap$__D4core4sync9condition9Condition9timedWaitMFkZb 004618d8     druntime-ldc:condition.obj
 0002:00011900       $handlerMap$0$__D4core4sync9condition9Condition9timedWaitMFkZb 00461900     druntime-ldc:condition.obj
 0002:00011910       $handlerMap$1$__D4core4sync9condition9Condition9timedWaitMFkZb 00461910     druntime-ldc:condition.obj
 0002:00011944       $stateUnwindMap$__D4core4sync9condition9Condition6notifyMFbZv 00461944     druntime-ldc:condition.obj
 0002:00011954       $tryMap$__D4core4sync9condition9Condition6notifyMFbZv 00461954     druntime-ldc:condition.obj
 0002:00011968       $handlerMap$0$__D4core4sync9condition9Condition6notifyMFbZv 00461968     druntime-ldc:condition.obj
 0002:0001199c       $stateUnwindMap$thread_entryPoint 0046199c     druntime-ldc:thread.obj
 0002:000119c4       $tryMap$thread_entryPoint  004619c4     druntime-ldc:thread.obj
 0002:000119ec       $handlerMap$0$thread_entryPoint 004619ec     druntime-ldc:thread.obj
 0002:000119fc       $handlerMap$1$thread_entryPoint 004619fc     druntime-ldc:thread.obj
 0002:00011a30       $stateUnwindMap$__D4core6thread6Thread5startMFNbZC4core6thread6Thread 00461a30     druntime-ldc:thread.obj
 0002:00011a48       $tryMap$__D4core6thread6Thread5startMFNbZC4core6thread6Thread 00461a48     druntime-ldc:thread.obj
 0002:00011a5c       $handlerMap$0$__D4core6thread6Thread5startMFNbZC4core6thread6Thread 00461a5c     druntime-ldc:thread.obj
 0002:00011a90       $stateUnwindMap$thread_attachThis 00461a90     druntime-ldc:thread.obj
 0002:00011abc       $stateUnwindMap$fiber_entryPoint 00461abc     druntime-ldc:thread.obj
 0002:00011acc       $tryMap$fiber_entryPoint   00461acc     druntime-ldc:thread.obj
 0002:00011ae0       $handlerMap$0$fiber_entryPoint 00461ae0     druntime-ldc:thread.obj
 0002:00011b14       $stateUnwindMap$__D2rt5minfo11ModuleGroup9sortCtorsMFZv 00461b14     druntime-ldc:minfo.obj
 0002:00011b40       $stateUnwindMap$__D4core7runtime18runModuleUnitTestsUZ14__foreachbody1MFPS6object10ModuleInfoZi 00461b40     druntime-ldc:runtime.obj
 0002:00011b50       $tryMap$__D4core7runtime18runModuleUnitTestsUZ14__foreachbody1MFPS6object10ModuleInfoZi 00461b50     druntime-ldc:runtime.obj
 0002:00011b64       $handlerMap$0$__D4core7runtime18runModuleUnitTestsUZ14__foreachbody1MFPS6object10ModuleInfoZi 00461b64     druntime-ldc:runtime.obj
 0002:00011b98       $stateUnwindMap$__D2gc2gc2GC6enableMFZv 00461b98     druntime-ldc:gc.obj
 0002:00011ba8       $tryMap$__D2gc2gc2GC6enableMFZv 00461ba8     druntime-ldc:gc.obj
 0002:00011bbc       $handlerMap$0$__D2gc2gc2GC6enableMFZv 00461bbc     druntime-ldc:gc.obj
 0002:00011bf0       $stateUnwindMap$__D2gc2gc2GC7disableMFZv 00461bf0     druntime-ldc:gc.obj
 0002:00011c00       $tryMap$__D2gc2gc2GC7disableMFZv 00461c00     druntime-ldc:gc.obj
 0002:00011c14       $handlerMap$0$__D2gc2gc2GC7disableMFZv 00461c14     druntime-ldc:gc.obj
 0002:00011c48       $stateUnwindMap$__D2gc2gc2GC125__T9runLockedS48_D2gc2gc2GC7getAttrMFNbPvZ2goFNbPS2gc2gc3GcxPvZkS19_D2gc2gc9otherTimelS19_D2gc2gc9numOtherslTPS2gc2gc3GcxTPvZ9runLockedMFNbKPS2gc2gc3GcxKPvZk 00461c48     druntime-ldc:gc.obj
 0002:00011c58       $tryMap$__D2gc2gc2GC125__T9runLockedS48_D2gc2gc2GC7getAttrMFNbPvZ2goFNbPS2gc2gc3GcxPvZkS19_D2gc2gc9otherTimelS19_D2gc2gc9numOtherslTPS2gc2gc3GcxTPvZ9runLockedMFNbKPS2gc2gc3GcxKPvZk 00461c58     druntime-ldc:gc.obj
 0002:00011c6c       $handlerMap$0$__D2gc2gc2GC125__T9runLockedS48_D2gc2gc2GC7getAttrMFNbPvZ2goFNbPS2gc2gc3GcxPvZkS19_D2gc2gc9otherTimelS19_D2gc2gc9numOtherslTPS2gc2gc3GcxTPvZ9runLockedMFNbKPS2gc2gc3GcxKPvZk 00461c6c     druntime-ldc:gc.obj
 0002:00011ca0       $stateUnwindMap$__D2gc2gc2GC129__T9runLockedS50_D2gc2gc2GC7setAttrMFNbPvkZ2goFNbPS2gc2gc3GcxPvkZkS19_D2gc2gc9otherTimelS19_D2gc2gc9numOtherslTPS2gc2gc3GcxTPvTkZ9runLockedMFNbKPS2gc2gc3GcxKPvKkZk 00461ca0     druntime-ldc:gc.obj
 0002:00011cb0       $tryMap$__D2gc2gc2GC129__T9runLockedS50_D2gc2gc2GC7setAttrMFNbPvkZ2goFNbPS2gc2gc3GcxPvkZkS19_D2gc2gc9otherTimelS19_D2gc2gc9numOtherslTPS2gc2gc3GcxTPvTkZ9runLockedMFNbKPS2gc2gc3GcxKPvKkZk 00461cb0     druntime-ldc:gc.obj
 0002:00011cc4       $handlerMap$0$__D2gc2gc2GC129__T9runLockedS50_D2gc2gc2GC7setAttrMFNbPvkZ2goFNbPS2gc2gc3GcxPvkZkS19_D2gc2gc9otherTimelS19_D2gc2gc9numOtherslTPS2gc2gc3GcxTPvTkZ9runLockedMFNbKPS2gc2gc3GcxKPvKkZk 00461cc4     druntime-ldc:gc.obj
 0002:00011cf8       $stateUnwindMap$__D2gc2gc2GC129__T9runLockedS50_D2gc2gc2GC7clrAttrMFNbPvkZ2goFNbPS2gc2gc3GcxPvkZkS19_D2gc2gc9otherTimelS19_D2gc2gc9numOtherslTPS2gc2gc3GcxTPvTkZ9runLockedMFNbKPS2gc2gc3GcxKPvKkZk 00461cf8     druntime-ldc:gc.obj
 0002:00011d08       $tryMap$__D2gc2gc2GC129__T9runLockedS50_D2gc2gc2GC7clrAttrMFNbPvkZ2goFNbPS2gc2gc3GcxPvkZkS19_D2gc2gc9otherTimelS19_D2gc2gc9numOtherslTPS2gc2gc3GcxTPvTkZ9runLockedMFNbKPS2gc2gc3GcxKPvKkZk 00461d08     druntime-ldc:gc.obj
 0002:00011d1c       $handlerMap$0$__D2gc2gc2GC129__T9runLockedS50_D2gc2gc2GC7clrAttrMFNbPvkZ2goFNbPS2gc2gc3GcxPvkZkS19_D2gc2gc9otherTimelS19_D2gc2gc9numOtherslTPS2gc2gc3GcxTPvTkZ9runLockedMFNbKPS2gc2gc3GcxKPvKkZk 00461d1c     druntime-ldc:gc.obj
 0002:00011d50       $stateUnwindMap$__D2gc2gc2GC130__T9runLockedS47_D2gc2gc2GC12mallocNoSyncMFNbkkKkxC8TypeInfoZPvS21_D2gc2gc10mallocTimelS21_D2gc2gc10numMallocslTkTkTkTxC8TypeInfoZ9runLockedMFNbKkKkKkKxC8TypeInfoZPv 00461d50     druntime-ldc:gc.obj
 0002:00011d60       $tryMap$__D2gc2gc2GC130__T9runLockedS47_D2gc2gc2GC12mallocNoSyncMFNbkkKkxC8TypeInfoZPvS21_D2gc2gc10mallocTimelS21_D2gc2gc10numMallocslTkTkTkTxC8TypeInfoZ9runLockedMFNbKkKkKkKxC8TypeInfoZPv 00461d60     druntime-ldc:gc.obj
 0002:00011d74       $handlerMap$0$__D2gc2gc2GC130__T9runLockedS47_D2gc2gc2GC12mallocNoSyncMFNbkkKkxC8TypeInfoZPvS21_D2gc2gc10mallocTimelS21_D2gc2gc10numMallocslTkTkTkTxC8TypeInfoZ9runLockedMFNbKkKkKkKxC8TypeInfoZPv 00461d74     druntime-ldc:gc.obj
 0002:00011da8       $stateUnwindMap$__D2gc2gc2GC137__T9runLockedS51_D2gc2gc2GC13reallocNoSyncMFNbPvkKkKkxC8TypeInfoZPvS21_D2gc2gc10mallocTimelS21_D2gc2gc10numMallocslTPvTkTkTkTxC8TypeInfoZ9runLockedMFNbKPvKkKkKkKxC8TypeInfoZPv 00461da8     druntime-ldc:gc.obj
 0002:00011db8       $tryMap$__D2gc2gc2GC137__T9runLockedS51_D2gc2gc2GC13reallocNoSyncMFNbPvkKkKkxC8TypeInfoZPvS21_D2gc2gc10mallocTimelS21_D2gc2gc10numMallocslTPvTkTkTkTxC8TypeInfoZ9runLockedMFNbKPvKkKkKkKxC8TypeInfoZPv 00461db8     druntime-ldc:gc.obj
 0002:00011dcc       $handlerMap$0$__D2gc2gc2GC137__T9runLockedS51_D2gc2gc2GC13reallocNoSyncMFNbPvkKkKkxC8TypeInfoZPvS21_D2gc2gc10mallocTimelS21_D2gc2gc10numMallocslTPvTkTkTkTxC8TypeInfoZ9runLockedMFNbKPvKkKkKkKxC8TypeInfoZPv 00461dcc     druntime-ldc:gc.obj
 0002:00011e00       $stateUnwindMap$__D2gc2gc2GC130__T9runLockedS46_D2gc2gc2GC12extendNoSyncMFNbPvkkxC8TypeInfoZkS21_D2gc2gc10extendTimelS21_D2gc2gc10numExtendslTPvTkTkTxC8TypeInfoZ9runLockedMFNbKPvKkKkKxC8TypeInfoZk 00461e00     druntime-ldc:gc.obj
 0002:00011e10       $tryMap$__D2gc2gc2GC130__T9runLockedS46_D2gc2gc2GC12extendNoSyncMFNbPvkkxC8TypeInfoZkS21_D2gc2gc10extendTimelS21_D2gc2gc10numExtendslTPvTkTkTxC8TypeInfoZ9runLockedMFNbKPvKkKkKxC8TypeInfoZk 00461e10     druntime-ldc:gc.obj
 0002:00011e24       $handlerMap$0$__D2gc2gc2GC130__T9runLockedS46_D2gc2gc2GC12extendNoSyncMFNbPvkkxC8TypeInfoZkS21_D2gc2gc10extendTimelS21_D2gc2gc10numExtendslTPvTkTkTxC8TypeInfoZ9runLockedMFNbKPvKkKkKxC8TypeInfoZk 00461e24     druntime-ldc:gc.obj
 0002:00011e58       $stateUnwindMap$__D2gc2gc2GC96__T9runLockedS33_D2gc2gc2GC13reserveNoSyncMFNbkZkS19_D2gc2gc9otherTimelS19_D2gc2gc9numOtherslTkZ9runLockedMFNbKkZk 00461e58     druntime-ldc:gc.obj
 0002:00011e68       $tryMap$__D2gc2gc2GC96__T9runLockedS33_D2gc2gc2GC13reserveNoSyncMFNbkZkS19_D2gc2gc9otherTimelS19_D2gc2gc9numOtherslTkZ9runLockedMFNbKkZk 00461e68     druntime-ldc:gc.obj
 0002:00011e7c       $handlerMap$0$__D2gc2gc2GC96__T9runLockedS33_D2gc2gc2GC13reserveNoSyncMFNbkZkS19_D2gc2gc9otherTimelS19_D2gc2gc9numOtherslTkZ9runLockedMFNbKkZk 00461e7c     druntime-ldc:gc.obj
 0002:00011eb0       $stateUnwindMap$__D2gc2gc2GC93__T9runLockedS31_D2gc2gc2GC10freeNoSyncMFNbPvZvS18_D2gc2gc8freeTimelS18_D2gc2gc8numFreeslTPvZ9runLockedMFNbKPvZv 00461eb0     druntime-ldc:gc.obj
 0002:00011ec0       $tryMap$__D2gc2gc2GC93__T9runLockedS31_D2gc2gc2GC10freeNoSyncMFNbPvZvS18_D2gc2gc8freeTimelS18_D2gc2gc8numFreeslTPvZ9runLockedMFNbKPvZv 00461ec0     druntime-ldc:gc.obj
 0002:00011ed4       $handlerMap$0$__D2gc2gc2GC93__T9runLockedS31_D2gc2gc2GC10freeNoSyncMFNbPvZvS18_D2gc2gc8freeTimelS18_D2gc2gc8numFreeslTPvZ9runLockedMFNbKPvZv 00461ed4     druntime-ldc:gc.obj
 0002:00011f08       $stateUnwindMap$__D2gc2gc2GC98__T9runLockedS34_D2gc2gc2GC12addrOfNoSyncMFNbPvZPvS19_D2gc2gc9otherTimelS19_D2gc2gc9numOtherslTPvZ9runLockedMFNbKPvZPv 00461f08     druntime-ldc:gc.obj
 0002:00011f18       $tryMap$__D2gc2gc2GC98__T9runLockedS34_D2gc2gc2GC12addrOfNoSyncMFNbPvZPvS19_D2gc2gc9otherTimelS19_D2gc2gc9numOtherslTPvZ9runLockedMFNbKPvZPv 00461f18     druntime-ldc:gc.obj
 0002:00011f2c       $handlerMap$0$__D2gc2gc2GC98__T9runLockedS34_D2gc2gc2GC12addrOfNoSyncMFNbPvZPvS19_D2gc2gc9otherTimelS19_D2gc2gc9numOtherslTPvZ9runLockedMFNbKPvZPv 00461f2c     druntime-ldc:gc.obj
 0002:00011f60       $stateUnwindMap$__D2gc2gc2GC97__T9runLockedS33_D2gc2gc2GC12sizeOfNoSyncMFNbPvZkS19_D2gc2gc9otherTimelS19_D2gc2gc9numOtherslTPvZ9runLockedMFNbKPvZk 00461f60     druntime-ldc:gc.obj
 0002:00011f70       $tryMap$__D2gc2gc2GC97__T9runLockedS33_D2gc2gc2GC12sizeOfNoSyncMFNbPvZkS19_D2gc2gc9otherTimelS19_D2gc2gc9numOtherslTPvZ9runLockedMFNbKPvZk 00461f70     druntime-ldc:gc.obj
 0002:00011f84       $handlerMap$0$__D2gc2gc2GC97__T9runLockedS33_D2gc2gc2GC12sizeOfNoSyncMFNbPvZkS19_D2gc2gc9otherTimelS19_D2gc2gc9numOtherslTPvZ9runLockedMFNbKPvZk 00461f84     druntime-ldc:gc.obj
 0002:00011fb8       $stateUnwindMap$__D2gc2gc2GC117__T9runLockedS53_D2gc2gc2GC11queryNoSyncMFNbPvZS4core6memory8BlkInfo_S19_D2gc2gc9otherTimelS19_D2gc2gc9numOtherslTPvZ9runLockedMFNbKPvZS4core6memory8BlkInfo_ 00461fb8     druntime-ldc:gc.obj
 0002:00011fc8       $tryMap$__D2gc2gc2GC117__T9runLockedS53_D2gc2gc2GC11queryNoSyncMFNbPvZS4core6memory8BlkInfo_S19_D2gc2gc9otherTimelS19_D2gc2gc9numOtherslTPvZ9runLockedMFNbKPvZS4core6memory8BlkInfo_ 00461fc8     druntime-ldc:gc.obj
 0002:00011fdc       $handlerMap$0$__D2gc2gc2GC117__T9runLockedS53_D2gc2gc2GC11queryNoSyncMFNbPvZS4core6memory8BlkInfo_S19_D2gc2gc9otherTimelS19_D2gc2gc9numOtherslTPvZ9runLockedMFNbKPvZS4core6memory8BlkInfo_ 00461fdc     druntime-ldc:gc.obj
 0002:00012010       $stateUnwindMap$__D2gc2gc2GC7addRootMFNbPvZv 00462010     druntime-ldc:gc.obj
 0002:00012020       $tryMap$__D2gc2gc2GC7addRootMFNbPvZv 00462020     druntime-ldc:gc.obj
 0002:00012034       $handlerMap$0$__D2gc2gc2GC7addRootMFNbPvZv 00462034     druntime-ldc:gc.obj
 0002:00012068       $stateUnwindMap$__D2gc2gc3Gcx10removeRootMFNbPvZv 00462068     druntime-ldc:gc.obj
 0002:00012078       $tryMap$__D2gc2gc3Gcx10removeRootMFNbPvZv 00462078     druntime-ldc:gc.obj
 0002:0001208c       $handlerMap$0$__D2gc2gc3Gcx10removeRootMFNbPvZv 0046208c     druntime-ldc:gc.obj
 0002:000120c0       $stateUnwindMap$__D2gc2gc2GC8addRangeMFNbNiPvkxC8TypeInfoZv 004620c0     druntime-ldc:gc.obj
 0002:000120d0       $tryMap$__D2gc2gc2GC8addRangeMFNbNiPvkxC8TypeInfoZv 004620d0     druntime-ldc:gc.obj
 0002:000120e4       $handlerMap$0$__D2gc2gc2GC8addRangeMFNbNiPvkxC8TypeInfoZv 004620e4     druntime-ldc:gc.obj
 0002:00012118       $stateUnwindMap$__D2gc2gc2GC11removeRangeMFNbNiPvZv 00462118     druntime-ldc:gc.obj
 0002:00012128       $tryMap$__D2gc2gc2GC11removeRangeMFNbNiPvZv 00462128     druntime-ldc:gc.obj
 0002:0001213c       $handlerMap$0$__D2gc2gc2GC11removeRangeMFNbNiPvZv 0046213c     druntime-ldc:gc.obj
 0002:00012170       $stateUnwindMap$__D2gc2gc2GC135__T9runLockedS57_D2gc2gc2GC13runFinalizersMFNbxAvZ2goFNbPS2gc2gc3GcxxAvZvS19_D2gc2gc9otherTimelS19_D2gc2gc9numOtherslTPS2gc2gc3GcxTxAvZ9runLockedMFNbKPS2gc2gc3GcxKxAvZv 00462170     druntime-ldc:gc.obj
 0002:00012190       $tryMap$__D2gc2gc2GC135__T9runLockedS57_D2gc2gc2GC13runFinalizersMFNbxAvZ2goFNbPS2gc2gc3GcxxAvZvS19_D2gc2gc9otherTimelS19_D2gc2gc9numOtherslTPS2gc2gc3GcxTxAvZ9runLockedMFNbKPS2gc2gc3GcxKxAvZv 00462190     druntime-ldc:gc.obj
 0002:000121b8       $handlerMap$0$__D2gc2gc2GC135__T9runLockedS57_D2gc2gc2GC13runFinalizersMFNbxAvZ2goFNbPS2gc2gc3GcxxAvZvS19_D2gc2gc9otherTimelS19_D2gc2gc9numOtherslTPS2gc2gc3GcxTxAvZ9runLockedMFNbKPS2gc2gc3GcxKxAvZv 004621b8     druntime-ldc:gc.obj
 0002:000121c8       $handlerMap$1$__D2gc2gc2GC135__T9runLockedS57_D2gc2gc2GC13runFinalizersMFNbxAvZ2goFNbPS2gc2gc3GcxxAvZvS19_D2gc2gc9otherTimelS19_D2gc2gc9numOtherslTPS2gc2gc3GcxTxAvZ9runLockedMFNbKPS2gc2gc3GcxKxAvZv 004621c8     druntime-ldc:gc.obj
 0002:000121fc       $stateUnwindMap$__D2gc2gc3Gcx11fullcollectMFNbbZk 004621fc     druntime-ldc:gc.obj
 0002:0001220c       $tryMap$__D2gc2gc3Gcx11fullcollectMFNbbZk 0046220c     druntime-ldc:gc.obj
 0002:00012220       $handlerMap$0$__D2gc2gc3Gcx11fullcollectMFNbbZk 00462220     druntime-ldc:gc.obj
 0002:00012254       $stateUnwindMap$__D2gc2gc2GC79__T9runLockedS49_D2gc2gc2GC11fullCollectMFNbZ2goFNbPS2gc2gc3GcxZkTPS2gc2gc3GcxZ9runLockedMFNbKPS2gc2gc3GcxZk 00462254     druntime-ldc:gc.obj
 0002:00012264       $tryMap$__D2gc2gc2GC79__T9runLockedS49_D2gc2gc2GC11fullCollectMFNbZ2goFNbPS2gc2gc3GcxZkTPS2gc2gc3GcxZ9runLockedMFNbKPS2gc2gc3GcxZk 00462264     druntime-ldc:gc.obj
 0002:00012278       $handlerMap$0$__D2gc2gc2GC79__T9runLockedS49_D2gc2gc2GC11fullCollectMFNbZ2goFNbPS2gc2gc3GcxZkTPS2gc2gc3GcxZ9runLockedMFNbKPS2gc2gc3GcxZk 00462278     druntime-ldc:gc.obj
 0002:000122ac       $stateUnwindMap$__D2gc2gc2GC86__T9runLockedS56_D2gc2gc2GC18fullCollectNoStackMFNbZ2goFNbPS2gc2gc3GcxZkTPS2gc2gc3GcxZ9runLockedMFNbKPS2gc2gc3GcxZk 004622ac     druntime-ldc:gc.obj
 0002:000122bc       $tryMap$__D2gc2gc2GC86__T9runLockedS56_D2gc2gc2GC18fullCollectNoStackMFNbZ2goFNbPS2gc2gc3GcxZkTPS2gc2gc3GcxZ9runLockedMFNbKPS2gc2gc3GcxZk 004622bc     druntime-ldc:gc.obj
 0002:000122d0       $handlerMap$0$__D2gc2gc2GC86__T9runLockedS56_D2gc2gc2GC18fullCollectNoStackMFNbZ2goFNbPS2gc2gc3GcxZkTPS2gc2gc3GcxZ9runLockedMFNbKPS2gc2gc3GcxZk 004622d0     druntime-ldc:gc.obj
 0002:00012304       $stateUnwindMap$__D2gc2gc2GC119__T9runLockedS45_D2gc2gc2GC8minimizeMFNbZ2goFNbPS2gc2gc3GcxZvS19_D2gc2gc9otherTimelS19_D2gc2gc9numOtherslTPS2gc2gc3GcxZ9runLockedMFNbKPS2gc2gc3GcxZv 00462304     druntime-ldc:gc.obj
 0002:00012314       $tryMap$__D2gc2gc2GC119__T9runLockedS45_D2gc2gc2GC8minimizeMFNbZ2goFNbPS2gc2gc3GcxZvS19_D2gc2gc9otherTimelS19_D2gc2gc9numOtherslTPS2gc2gc3GcxZ9runLockedMFNbKPS2gc2gc3GcxZv 00462314     druntime-ldc:gc.obj
 0002:00012328       $handlerMap$0$__D2gc2gc2GC119__T9runLockedS45_D2gc2gc2GC8minimizeMFNbZ2goFNbPS2gc2gc3GcxZvS19_D2gc2gc9otherTimelS19_D2gc2gc9numOtherslTPS2gc2gc3GcxZ9runLockedMFNbKPS2gc2gc3GcxZv 00462328     druntime-ldc:gc.obj
 0002:0001235c       $stateUnwindMap$__D4core3sys7windows10stacktrace10StackTrace6__ctorMFkPS4core3sys7windows5winnt7CONTEXTZC4core3sys7windows10stacktrace10StackTrace 0046235c     druntime-ldc:stacktrace.obj
 0002:00012388       $stateUnwindMap$__D4core3sys7windows10stacktrace10StackTrace7opApplyMxFMDFKkKxAaZiZi 00462388     druntime-ldc:stacktrace.obj
 0002:000123b4       $stateUnwindMap$__D4core8demangle8Demangle17parseTypeFunctionMFAaE4core8demangle8Demangle10IsDelegateZAa 004623b4     druntime-ldc:demangle.obj
 0002:000123cc       $tryMap$__D4core8demangle8Demangle17parseTypeFunctionMFAaE4core8demangle8Demangle10IsDelegateZAa 004623cc     druntime-ldc:demangle.obj
 0002:000123e0       $handlerMap$0$__D4core8demangle8Demangle17parseTypeFunctionMFAaE4core8demangle8Demangle10IsDelegateZAa 004623e0     druntime-ldc:demangle.obj
 0002:00012414       $stateUnwindMap$__D4core8demangle8Demangle17parseTemplateArgsMFZv 00462414     druntime-ldc:demangle.obj
 0002:0001242c       $tryMap$__D4core8demangle8Demangle17parseTemplateArgsMFZv 0046242c     druntime-ldc:demangle.obj
 0002:00012440       $handlerMap$0$__D4core8demangle8Demangle17parseTemplateArgsMFZv 00462440     druntime-ldc:demangle.obj
 0002:00012474       $stateUnwindMap$__D4core8demangle8Demangle25parseTemplateInstanceNameMFZv 00462474     druntime-ldc:demangle.obj
 0002:00012484       $tryMap$__D4core8demangle8Demangle25parseTemplateInstanceNameMFZv 00462484     druntime-ldc:demangle.obj
 0002:00012498       $handlerMap$0$__D4core8demangle8Demangle25parseTemplateInstanceNameMFZv 00462498     druntime-ldc:demangle.obj
 0002:000124cc       $stateUnwindMap$__D4core8demangle8Demangle15parseSymbolNameMFZv 004624cc     druntime-ldc:demangle.obj
 0002:000124e4       $tryMap$__D4core8demangle8Demangle15parseSymbolNameMFZv 004624e4     druntime-ldc:demangle.obj
 0002:000124f8       $handlerMap$0$__D4core8demangle8Demangle15parseSymbolNameMFZv 004624f8     druntime-ldc:demangle.obj
 0002:0001252c       $stateUnwindMap$__D4core8demangle8Demangle67__T10doDemangleS48_D4core8demangle8Demangle16parseMangledNameMFkZvZ10doDemangleMFZAa 0046252c     druntime-ldc:demangle.obj
 0002:0001253c       $tryMap$__D4core8demangle8Demangle67__T10doDemangleS48_D4core8demangle8Demangle16parseMangledNameMFkZvZ10doDemangleMFZAa 0046253c     druntime-ldc:demangle.obj
 0002:00012550       $handlerMap$0$__D4core8demangle8Demangle67__T10doDemangleS48_D4core8demangle8Demangle16parseMangledNameMFkZvZ10doDemangleMFZAa 00462550     druntime-ldc:demangle.obj
 0002:00012570       __sehtable$___FrameUnwindToState 00462570     libvcruntime:frame.obj
 0002:00012598       __sehtable$?CallCatchBlock@@YAPAXPAUEHExceptionRecord@@PAUEHRegistrationNode@@PAU_CONTEXT@@PBU_s_FuncInfo@@PAXHK@Z 00462598     libvcruntime:frame.obj
 0002:000125c0       __sehtable$___BuildCatchObject 004625c0     libvcruntime:frame.obj
 0002:000125e0       __sehtable$___DestructExceptionObject 004625e0     libvcruntime:frame.obj
 0002:000125fc       __catchsym$?CallUnexpected@@YAXPBU_s_ESTypeList@@@Z$2 004625fc     libvcruntime:frame.obj
 0002:0001260c       __unwindtable$?CallUnexpected@@YAXPBU_s_ESTypeList@@@Z 0046260c     libvcruntime:frame.obj
 0002:0001261c       __tryblocktable$?CallUnexpected@@YAXPBU_s_ESTypeList@@@Z 0046261c     libvcruntime:frame.obj
 0002:00012630       __ehfuncinfo$?CallUnexpected@@YAXPBU_s_ESTypeList@@@Z 00462630     libvcruntime:frame.obj
 0002:00012658       __sehtable$___BuildCatchObjectHelper 00462658     libvcruntime:frame.obj
 0002:000126c8       __sehtable$?__scrt_common_main_seh@@YAHXZ 004626c8     LIBCMT:exe_main.obj
 0002:000126e8       __sehtable$__IsNonwritableInCurrentImage 004626e8     LIBCMT:pesect.obj
 0002:00012708       __sehtable$___scrt_is_nonwritable_in_current_image 00462708     LIBCMT:utility.obj
 0002:00012728       __sehtable$??$?RV<lambda_cd3bfd923e8d1349099e544c97b1bd8e>@@AAV<lambda_54dcfcba6f8e0c549fa430f4d53fb7dd>@@V<lambda_5e1d0fa2aa2b73b187bf8b7e1d30c7f8>@@@?$__crt_seh_guarded_call@I@@QAEI$$QAV<lambda_cd3bfd923e8d1349099e544c97b1bd8e>@@AAV<lambda_54dcfcba6f8e0c549fa430f4d53fb7dd>@@$$QAV<lambda_5e1d0fa2aa2b73b187bf8b7e1d30c7f8>@@@Z 00462728     libucrt:fwrite.obj
 0002:00012748       __sehtable$_fputc          00462748     libucrt:fputc.obj
 0002:00012768       __sehtable$___acrt_lowio_ensure_fh_exists 00462768     libucrt:osfinfo.obj
 0002:00012788       __sehtable$_fclose         00462788     libucrt:fclose.obj
 0002:000127a8       __sehtable$??$?RV<lambda_2866be3712abc81a800a822484c830d8>@@AAV<lambda_39ca0ed439415581b5b15c265174cece>@@V<lambda_2b24c74d71094a6cd0cb82e44167d71b>@@@?$__crt_seh_guarded_call@X@@QAEX$$QAV<lambda_2866be3712abc81a800a822484c830d8>@@AAV<lambda_39ca0ed439415581b5b15c265174cece>@@$$QAV<lambda_2b24c74d71094a6cd0cb82e44167d71b>@@@Z 004627a8     libucrt:fflush.obj
 0002:000127c8       __sehtable$??$?RV<lambda_2cc53f568c5a2bb6f192f930a45d44ea>@@AAV<lambda_ab61a845afdef5b7c387490eaf3616ee>@@V<lambda_c2ffc0b7726aa6be21d5f0026187e748>@@@?$__crt_seh_guarded_call@X@@QAEX$$QAV<lambda_2cc53f568c5a2bb6f192f930a45d44ea>@@AAV<lambda_ab61a845afdef5b7c387490eaf3616ee>@@$$QAV<lambda_c2ffc0b7726aa6be21d5f0026187e748>@@@Z 004627c8     libucrt:fflush.obj
 0002:000127e8       __sehtable$??$?RV<lambda_6d20deecaf4856105ebacbad442d1079>@@AAV<lambda_9a32fed5bf61b6b509b2d3f6003082a1>@@V<lambda_63ea2239ed67c638ddbae41947fdf875>@@@?$__crt_seh_guarded_call@H@@QAEH$$QAV<lambda_6d20deecaf4856105ebacbad442d1079>@@AAV<lambda_9a32fed5bf61b6b509b2d3f6003082a1>@@$$QAV<lambda_63ea2239ed67c638ddbae41947fdf875>@@@Z 004627e8     libucrt:fflush.obj
 0002:00012808       __sehtable$??$common_getenv@D@@YAPADQBD@Z 00462808     libucrt:getenv.obj
 0002:00012828       __sehtable$??$common_getenv_s@D@@YAHQAIQADIQBD@Z 00462828     libucrt:getenv.obj
 0002:00012848       __sehtable$_terminate      00462848     libucrt:terminate.obj
 0002:00012868       __sehtable$??$thread_start@P6GIPAX@Z@@YGKQAX@Z 00462868     libucrt:thread.obj
 0002:00012888       __sehtable$??$?RV<lambda_80d7abc6eae2375db70be92ccaaf9b57>@@AAV<lambda_df52180bf14694d51fdefd82613e8f07>@@V<lambda_4fa1155033dff2042363dba4e2dc3802>@@@?$__crt_seh_guarded_call@H@@QAEH$$QAV<lambda_80d7abc6eae2375db70be92ccaaf9b57>@@AAV<lambda_df52180bf14694d51fdefd82613e8f07>@@$$QAV<lambda_4fa1155033dff2042363dba4e2dc3802>@@@Z 00462888     libucrt:output.obj
 0002:000128a8       __sehtable$??R<lambda_6e4b09c48022b2350581041d5f6b0c4c>@@QBE@XZ 004628a8     libucrt:exit.obj
 0002:000128c8       __sehtable$??$?RV<lambda_03b1d95aef87969028cfba75ccab2455>@@AAV<lambda_6e4b09c48022b2350581041d5f6b0c4c>@@V<lambda_22bdf7517842c4b3e53723af5aa32b9e>@@@?$__crt_seh_guarded_call@X@@QAEX$$QAV<lambda_03b1d95aef87969028cfba75ccab2455>@@AAV<lambda_6e4b09c48022b2350581041d5f6b0c4c>@@$$QAV<lambda_22bdf7517842c4b3e53723af5aa32b9e>@@@Z 004628c8     libucrt:exit.obj
 0002:000128e8       __sehtable$??$?RV<lambda_e5124f882df8998aaf41531e079ba474>@@AAV<lambda_3e16ef9562a7dcce91392c22ab16ea36>@@V<lambda_e25ca0880e6ef98be67edffd8c599615>@@@?$__crt_seh_guarded_call@X@@QAEX$$QAV<lambda_e5124f882df8998aaf41531e079ba474>@@AAV<lambda_3e16ef9562a7dcce91392c22ab16ea36>@@$$QAV<lambda_e25ca0880e6ef98be67edffd8c599615>@@@Z 004628e8     libucrt:wsetlocale.obj
 0002:00012908       __sehtable$??$?RV<lambda_8e746cf0007f6ed984d6f78af1fec997>@@AAV<lambda_22ebabd17bc4fa466a2aca6d8deb888d>@@V<lambda_18ed0c0b38a6dc0daf1e7ac6d6adf05e>@@@?$__crt_seh_guarded_call@H@@QAEH$$QAV<lambda_8e746cf0007f6ed984d6f78af1fec997>@@AAV<lambda_22ebabd17bc4fa466a2aca6d8deb888d>@@$$QAV<lambda_18ed0c0b38a6dc0daf1e7ac6d6adf05e>@@@Z 00462908     libucrt:onexit.obj
 0002:00012928       __sehtable$??$?RV<lambda_69a2805e680e0e292e8ba93315fe43a8>@@AAV<lambda_f03950bc5685219e0bcd2087efbe011e>@@V<lambda_03fcd07e894ec930e3f35da366ca99d6>@@@?$__crt_seh_guarded_call@H@@QAEH$$QAV<lambda_69a2805e680e0e292e8ba93315fe43a8>@@AAV<lambda_f03950bc5685219e0bcd2087efbe011e>@@$$QAV<lambda_03fcd07e894ec930e3f35da366ca99d6>@@@Z 00462928     libucrt:onexit.obj
 0002:00012948       __sehtable$__isindst       00462948     libucrt:tzset.obj
 0002:00012968       __sehtable$___tzset        00462968     libucrt:tzset.obj
 0002:00012988       __sehtable$__write         00462988     libucrt:write.obj
 0002:000129a8       __sehtable$___acrt_initialize_lowio 004629a8     libucrt:ioinit.obj
 0002:000129c8       __sehtable$??$common_lseek@_J@@YA_JH_JH@Z 004629c8     libucrt:lseek.obj
 0002:000129e8       __sehtable$??$?RV<lambda_218ce3db14220d0be481dae8ef3383b6>@@AAV<lambda_628dfdc04ba53c8bfc02c9951375f3f5>@@V<lambda_57dc472bd5c9d5f3b2cbca59b8a843ae>@@@?$__crt_seh_guarded_call@H@@QAEH$$QAV<lambda_218ce3db14220d0be481dae8ef3383b6>@@AAV<lambda_628dfdc04ba53c8bfc02c9951375f3f5>@@$$QAV<lambda_57dc472bd5c9d5f3b2cbca59b8a843ae>@@@Z 004629e8     libucrt:close.obj
 0002:00012a08       __sehtable$??$?RV<lambda_9e9de3de5fa147e2223d7db92bc10aa6>@@AAV<lambda_38ce7e780aa69e748d6df282ebc68efe>@@V<lambda_8ca6da459f0f6780f1cff60fdc3d00e5>@@@?$__crt_seh_guarded_call@H@@QAEH$$QAV<lambda_9e9de3de5fa147e2223d7db92bc10aa6>@@AAV<lambda_38ce7e780aa69e748d6df282ebc68efe>@@$$QAV<lambda_8ca6da459f0f6780f1cff60fdc3d00e5>@@@Z 00462a08     libucrt:commit.obj
 0002:00012a28       __sehtable$??$?RV<lambda_15ade71b0218206bbe3333a0c9b79046>@@AAV<lambda_da44e0f8b0f19ba52fefafb335991732>@@V<lambda_207f2d024fc103971653565357d6cd41>@@@?$__crt_seh_guarded_call@X@@QAEX$$QAV<lambda_15ade71b0218206bbe3333a0c9b79046>@@AAV<lambda_da44e0f8b0f19ba52fefafb335991732>@@$$QAV<lambda_207f2d024fc103971653565357d6cd41>@@@Z 00462a28     libucrt:per_thread_data.obj
 0002:00012a48       __sehtable$??$?RV<lambda_a7e850c220f1c8d1e6efeecdedd162c6>@@AAV<lambda_46720907175c18b6c9d2717bc0d2d362>@@V<lambda_9048902d66e8d99359bc9897bbb930a8>@@@?$__crt_seh_guarded_call@X@@QAEX$$QAV<lambda_a7e850c220f1c8d1e6efeecdedd162c6>@@AAV<lambda_46720907175c18b6c9d2717bc0d2d362>@@$$QAV<lambda_9048902d66e8d99359bc9897bbb930a8>@@@Z 00462a48     libucrt:per_thread_data.obj
 0002:00012a68       __sehtable$??$?RV<lambda_38edbb1296d33220d7e4dd0ed76b244a>@@AAV<lambda_5ce1d447e08cb34b2473517608e21441>@@V<lambda_fb385d3da700c9147fc39e65dd577a8c>@@@?$__crt_seh_guarded_call@X@@QAEX$$QAV<lambda_38edbb1296d33220d7e4dd0ed76b244a>@@AAV<lambda_5ce1d447e08cb34b2473517608e21441>@@$$QAV<lambda_fb385d3da700c9147fc39e65dd577a8c>@@@Z 00462a68     libucrt:per_thread_data.obj
 0002:00012a88       __sehtable$??$?RV<lambda_6affb1475c98b40b75cdec977db92e3c>@@AAV<lambda_b8d4b9c228a6ecc3f80208dbb4b4a104>@@V<lambda_608742c3c92a14382c1684fc64f96c88>@@@?$__crt_seh_guarded_call@X@@QAEX$$QAV<lambda_6affb1475c98b40b75cdec977db92e3c>@@AAV<lambda_b8d4b9c228a6ecc3f80208dbb4b4a104>@@$$QAV<lambda_608742c3c92a14382c1684fc64f96c88>@@@Z 00462a88     libucrt:per_thread_data.obj
 0002:00012aa8       __sehtable$__rmtmp         00462aa8     libucrt:rmtmp.obj
 0002:00012ad0       __sehtable$__fcloseall     00462ad0     libucrt:closeall.obj
 0002:00012af0       __sehtable$_raise          00462af0     libucrt:signal.obj
 0002:00012b10       __sehtable$??$?RV<lambda_cbab9ec6f41b0180b23cc171c22676b0>@@AAV<lambda_44731a7d0e6d81c3e6aa82d741081786>@@V<lambda_4b292cb8dd18144e164572427af410ab>@@@?$__crt_seh_guarded_call@P6AXH@Z@@QAEP6AXH@Z$$QAV<lambda_cbab9ec6f41b0180b23cc171c22676b0>@@AAV<lambda_44731a7d0e6d81c3e6aa82d741081786>@@$$QAV<lambda_4b292cb8dd18144e164572427af410ab>@@@Z 00462b10     libucrt:signal.obj
 0002:00012b30       __sehtable$__query_new_handler 00462b30     libucrt:new_handler.obj
 0002:00012b50       __sehtable$?update_thread_multibyte_data_internal@@YAPAU__crt_multibyte_data@@QAU__acrt_ptd@@QAU1@@Z 00462b50     libucrt:mbctype.obj
 0002:00012b70       __sehtable$??$?RV<lambda_ceb1ee4838e85a9d631eb091e2fbe199>@@AAV<lambda_ae742caa10f662c28703da3d2ea5e57e>@@V<lambda_cd08b5d6af4937fe54fc07d0c9bf6b37>@@@?$__crt_seh_guarded_call@X@@QAEX$$QAV<lambda_ceb1ee4838e85a9d631eb091e2fbe199>@@AAV<lambda_ae742caa10f662c28703da3d2ea5e57e>@@$$QAV<lambda_cd08b5d6af4937fe54fc07d0c9bf6b37>@@@Z 00462b70     libucrt:mbctype.obj
 0002:00012b90       __sehtable$___acrt_update_thread_locale_data 00462b90     libucrt:locale_refcounting.obj
 0002:00012bb0       __sehtable$___set_fpsr_sse2 00462bb0     libucrt:fpctrl.obj
 0002:00012e9c       .idata$6                   00462e9c     PatcherLib:PatcherLib.dll
 0002:0001330e       .idata$6                   0046330e     kernel32:KERNEL32.dll
 0002:00013332       .idata$6                   00463332     shell32:SHELL32.dll
 0002:00013406       .idata$6                   00463406     advapi32:ADVAPI32.dll
 0002:00013420       .idata$6                   00463420     ws2_32:WS2_32.dll
 0003:00000180       _Dobject.Throwable@TypeDescriptor 00464180     phobos2-ldc:stdio.obj
 0003:00000224       __D3std5stdio11__moduleRefZ 00464224     phobos2-ldc:stdio.obj
 0003:000002a0       __D3std9exception11__moduleRefZ 004642a0     phobos2-ldc:exception.obj
 0003:00000328       __D3std3utf11__moduleRefZ  00464328     phobos2-ldc:utf.obj
 0003:00000404       __D3std3uni11__moduleRefZ  00464404     phobos2-ldc:uni.obj
 0003:00000460       _Dobject.Throwable@TypeDescriptor 00464460     phobos2-ldc:variant.obj
 0003:0000049c       __D3std7variant11__moduleRefZ 0046449c     phobos2-ldc:variant.obj
 0003:000009b8       __D3std11concurrency11__moduleRefZ 004649b8     phobos2-ldc:concurrency.obj
 0003:00000a10       _Dobject.Exception@TypeDescriptor 00464a10     phobos2-ldc:datetime.obj
 0003:00000ad0       _.classref.53              00464ad0     phobos2-ldc:datetime.obj
 0003:00000c8c       __D3std8datetime11__moduleRefZ 00464c8c     phobos2-ldc:datetime.obj
 0003:00000d1c       __D3std4file11__moduleRefZ 00464d1c     phobos2-ldc:file.obj
 0003:00000d30       _Dobject.Throwable@TypeDescriptor 00464d30     phobos2-ldc:cstring.obj
 0003:00000d70       __D3std8internal7cstring11__moduleRefZ 00464d70     phobos2-ldc:cstring.obj
 0003:00000df8       __D3std7windows8syserror11__moduleRefZ 00464df8     phobos2-ldc:syserror.obj
 0003:00000e6c       __D3std6format11__moduleRefZ 00464e6c     phobos2-ldc:format.obj
 0003:00000f40       __D3std4conv11__moduleRefZ 00464f40     phobos2-ldc:conv.obj
 0003:00000f6c       __D3std9stdiobase11__moduleRefZ 00464f6c     phobos2-ldc:stdiobase.obj
 0003:00000fa4       __D3std8internal14unicode_tables11__moduleRefZ 00464fa4     phobos2-ldc:unicode_tables.obj
 0003:00000fd4       __D3std8internal12unicode_comp11__moduleRefZ 00464fd4     phobos2-ldc:unicode_comp.obj
 0003:00000ff4       __D3std5ascii11__moduleRefZ 00464ff4     phobos2-ldc:ascii.obj
 0003:00001014       __D3std5range11__moduleRefZ 00465014     phobos2-ldc:package.obj
 0003:00001034       __D3std5array11__moduleRefZ 00465034     phobos2-ldc:array.obj
 0003:00001060       __D3std10functional11__moduleRefZ 00465060     phobos2-ldc:functional.obj
 0003:00001090       __D3std15concurrencybase11__moduleRefZ 00465090     phobos2-ldc:concurrencybase.obj
 0003:00001138       __D3std12experimental6logger10filelogger11__moduleRefZ 00465138     phobos2-ldc:filelogger.obj
 0003:00001500       _Dstd.socket.SocketException@TypeDescriptor 00465500     phobos2-ldc:socket.obj
 0003:000016c0       _Dobject.Throwable@TypeDescriptor 004656c0     phobos2-ldc:socket.obj
 0003:000017f4       __D3std6socket11__moduleRefZ 004657f4     phobos2-ldc:socket.obj
 0003:00001af0       _Dstd.windows.registry.RegistryException@TypeDescriptor 00465af0     phobos2-ldc:registry.obj
 0003:00001be0       __D3std7windows8registry11__moduleRefZ 00465be0     phobos2-ldc:registry.obj
 0003:00001c08       __D3std8bitmanip11__moduleRefZ 00465c08     phobos2-ldc:bitmanip.obj
 0003:00001c2c       __D3std4path11__moduleRefZ 00465c2c     phobos2-ldc:path.obj
 0003:00001d68       __D3std7process11__moduleRefZ 00465d68     phobos2-ldc:process.obj
 0003:00001eb0       __D3std12experimental6logger4core11__moduleRefZ 00465eb0     phobos2-ldc:core.obj
 0003:00001f2c       __D3std6string11__moduleRefZ 00465f2c     phobos2-ldc:string.obj
 0003:00001f70       __D3std8internal7windows8advapi3211__moduleRefZ 00465f70     phobos2-ldc:advapi32.obj
 0003:00001f9c       __D3std6random11__moduleRefZ 00465f9c     phobos2-ldc:random.obj
 0003:00001fc4       __D2rt6aApply11__moduleRefZ 00465fc4     druntime-ldc:aApply.obj
 0003:00002020       _Dobject.Exception@TypeDescriptor 00466020     druntime-ldc:lifetime.obj
 0003:00002088       __D2rt8lifetime11__moduleRefZ 00466088     druntime-ldc:lifetime.obj
 0003:0000228c       __D3ldc2eh4msvc11__moduleRefZ 0046628c     druntime-ldc:msvc.obj
 0003:0000251c       _.classref                 0046651c     druntime-ldc:exception.obj
 0003:000025c0       __D4core9exception11__moduleRefZ 004665c0     druntime-ldc:exception.obj
 0003:000025d8       __D2rt3adi11__moduleRefZ   004665d8     druntime-ldc:adi.obj
 0003:0000284c       __D2rt8typeinfo5ti_Ag11__moduleRefZ 0046684c     druntime-ldc:ti_Ag.obj
 0003:00002a40       _Dobject.Throwable@TypeDescriptor 00466a40     druntime-ldc:object.obj
 0003:000030c0       __D6object11__moduleRefZ   004670c0     druntime-ldc:object.obj
 0003:000030d0       _Dobject.Throwable@TypeDescriptor 004670d0     druntime-ldc:dmain2.obj
 0003:00003104       __D2rt6dmain211__moduleRefZ 00467104     druntime-ldc:dmain2.obj
 0003:00003184       __D2rt8typeinfo7ti_uint11__moduleRefZ 00467184     druntime-ldc:ti_uint.obj
 0003:0000325c       __D2rt8typeinfo8ti_ubyte11__moduleRefZ 0046725c     druntime-ldc:ti_ubyte.obj
 0003:0000328c       __D4core4stdc6wchar_11__moduleRefZ 0046728c     druntime-ldc:wchar_.obj
 0003:00003314       __D2rt8typeinfo7ti_char11__moduleRefZ 00467314     druntime-ldc:ti_char.obj
 0003:00003338       __D4core4stdc5errno11__moduleRefZ 00467338     druntime-ldc:errno.obj
 0003:00003358       __D4core4stdc5stdio11__moduleRefZ 00467358     druntime-ldc:stdio.obj
 0003:0000337c       __D4core5bitop11__moduleRefZ 0046737c     druntime-ldc:bitop.obj
 0003:000033a8       __D3ldc9arrayinit11__moduleRefZ 004673a8     druntime-ldc:arrayinit.obj
 0003:000033c4       __D4core6memory11__moduleRefZ 004673c4     druntime-ldc:memory.obj
 0003:000033e8       __D2rt12sections_ldc11__moduleRefZ 004673e8     druntime-ldc:sections_ldc.obj
 0003:00003478       __D2rt8typeinfo8ti_dchar11__moduleRefZ 00467478     druntime-ldc:ti_dchar.obj
 0003:00003508       __D2rt8typeinfo8ti_wchar11__moduleRefZ 00467508     druntime-ldc:ti_wchar.obj
 0003:00003588       __D2rt8typeinfo9ti_ushort11__moduleRefZ 00467588     druntime-ldc:ti_ushort.obj
 0003:000035b0       __D4core8internal6string11__moduleRefZ 004675b0     druntime-ldc:string.obj
 0003:000036e0       __D2rt8typeinfo9ti_Ashort11__moduleRefZ 004676e0     druntime-ldc:ti_Ashort.obj
 0003:0000380c       __D2rt8typeinfo7ti_Aint11__moduleRefZ 0046780c     druntime-ldc:ti_Aint.obj
 0003:00003894       __D2rt8typeinfo6ti_int11__moduleRefZ 00467894     druntime-ldc:ti_int.obj
 0003:00003914       __D2rt8typeinfo7ti_void11__moduleRefZ 00467914     druntime-ldc:ti_void.obj
 0003:00003958       __D2rt3aaA11__moduleRefZ   00467958     druntime-ldc:aaA.obj
 0003:000039d0       __D4core4sync5mutex11__moduleRefZ 004679d0     druntime-ldc:mutex.obj
 0003:000039e0       _Dobject.Throwable@TypeDescriptor 004679e0     druntime-ldc:condition.obj
 0003:00003a80       __D4core4sync9condition11__moduleRefZ 00467a80     druntime-ldc:condition.obj
 0003:00003aa4       __D2rt8monitor_11__moduleRefZ 00467aa4     druntime-ldc:monitor_.obj
 0003:00003b50       _Dobject.Throwable@TypeDescriptor 00467b50     druntime-ldc:thread.obj
 0003:00003c00       _.classref                 00467c00     druntime-ldc:thread.obj
 0003:00003d10       __D4core6thread11__moduleRefZ 00467d10     druntime-ldc:thread.obj
 0003:00003d34       __D2rt5cast_11__moduleRefZ 00467d34     druntime-ldc:cast_.obj
 0003:00003db0       __D4core4time11__moduleRefZ 00467db0     druntime-ldc:time.obj
 0003:00003dd4       __D2rt7switch_11__moduleRefZ 00467dd4     druntime-ldc:switch_.obj
 0003:00003e04       __D4core3sys7windows7winbase11__moduleRefZ 00467e04     druntime-ldc:winbase.obj
 0003:00003e24       __D2rt7aApplyR11__moduleRefZ 00467e24     druntime-ldc:aApplyR.obj
 0003:00003efc       __D2rt8typeinfo8ti_Along11__moduleRefZ 00467efc     druntime-ldc:ti_Along.obj
 0003:00003f84       __D2rt8typeinfo7ti_long11__moduleRefZ 00467f84     druntime-ldc:ti_long.obj
 0003:00004008       __D2rt8typeinfo8ti_ulong11__moduleRefZ 00468008     druntime-ldc:ti_ulong.obj
 0003:00004030       __D4core3sys7windows5winnt11__moduleRefZ 00468030     druntime-ldc:winnt.obj
 0003:000040b4       __D2rt8typeinfo7ti_byte11__moduleRefZ 004680b4     druntime-ldc:ti_byte.obj
 0003:00004138       __D2rt8typeinfo8ti_short11__moduleRefZ 00468138     druntime-ldc:ti_short.obj
 0003:000041c8       __D2rt8typeinfo8ti_float11__moduleRefZ 004681c8     druntime-ldc:ti_float.obj
 0003:00004258       __D2rt8typeinfo9ti_double11__moduleRefZ 00468258     druntime-ldc:ti_double.obj
 0003:000042e4       __D2rt8typeinfo7ti_real11__moduleRefZ 004682e4     druntime-ldc:ti_real.obj
 0003:00004368       __D2rt8typeinfo9ti_ifloat11__moduleRefZ 00468368     druntime-ldc:ti_ifloat.obj
 0003:000043e8       __D2rt8typeinfo10ti_idouble11__moduleRefZ 004683e8     druntime-ldc:ti_idouble.obj
 0003:00004468       __D2rt8typeinfo8ti_ireal11__moduleRefZ 00468468     druntime-ldc:ti_ireal.obj
 0003:000044f8       __D2rt8typeinfo9ti_cfloat11__moduleRefZ 004684f8     druntime-ldc:ti_cfloat.obj
 0003:00004588       __D2rt8typeinfo10ti_cdouble11__moduleRefZ 00468588     druntime-ldc:ti_cdouble.obj
 0003:00004618       __D2rt8typeinfo8ti_creal11__moduleRefZ 00468618     druntime-ldc:ti_creal.obj
 0003:00004644       __D4core3sys7windows8winsock211__moduleRefZ 00468644     druntime-ldc:winsock2.obj
 0003:00004664       __D2rt4util3utf11__moduleRefZ 00468664     druntime-ldc:utf.obj
 0003:00004694       __D2rt6config11__moduleRefZ 00468694     druntime-ldc:config.obj
 0003:000046bc       __D2rt5tlsgc11__moduleRefZ 004686bc     druntime-ldc:tlsgc.obj
 0003:000046e8       __D3ldc2eh6common11__moduleRefZ 004686e8     druntime-ldc:common.obj
 0003:00004714       __D2rt4util9container6common11__moduleRefZ 00468714     druntime-ldc:common.obj
 0003:00004738       __D2rt4util4hash11__moduleRefZ 00468738     druntime-ldc:hash.obj
 0003:00004754       __D2rt5qsort11__moduleRefZ 00468754     druntime-ldc:qsort.obj
 0003:00004774       __D2rt5minfo11__moduleRefZ 00468774     druntime-ldc:minfo.obj
 0003:0000479c       __D4core8internal4hash11__moduleRefZ 0046879c     druntime-ldc:hash.obj
 0003:000047cc       __D2gc5proxy11__moduleRefZ 004687cc     druntime-ldc:proxy.obj
 0003:000047f8       __D2rt9critical_11__moduleRefZ 004687f8     druntime-ldc:critical_.obj
 0003:00004814       __D2rt6memory11__moduleRefZ 00468814     druntime-ldc:memory.obj
 0003:00004820       _Dobject.Throwable@TypeDescriptor 00468820     druntime-ldc:runtime.obj
 0003:00004868       __D4core7runtime11__moduleRefZ 00468868     druntime-ldc:runtime.obj
 0003:000048e8       _.constarray               004688e8     druntime-ldc:cpuid.obj
 0003:00004918       __D4core5cpuid11__moduleRefZ 00468918     druntime-ldc:cpuid.obj
 0003:00004994       __D4core4sync9exception11__moduleRefZ 00468994     druntime-ldc:exception.obj
 0003:00004a1c       __D4core4sync9semaphore11__moduleRefZ 00468a1c     druntime-ldc:semaphore.obj
 0003:00004a5c       __D4core3sys7windows9threadaux11__moduleRefZ 00468a5c     druntime-ldc:threadaux.obj
 0003:00004a8c       __D4core8internal5abort11__moduleRefZ 00468a8c     druntime-ldc:abort.obj
 0003:00004b20       _Dobject.Throwable@TypeDescriptor 00468b20     druntime-ldc:gc.obj
 0003:00004b64       __D2gc2gc11__moduleRefZ    00468b64     druntime-ldc:gc.obj
 0003:00004b84       __D2gc5stats11__moduleRefZ 00468b84     druntime-ldc:stats.obj
 0003:00004c3c       __D4core3sys7windows10stacktrace11__moduleRefZ 00468c3c     druntime-ldc:stacktrace.obj
 0003:00004c78       __D4core8internal8spinlock11__moduleRefZ 00468c78     druntime-ldc:spinlock.obj
 0003:00004c94       __D2gc6config11__moduleRefZ 00468c94     druntime-ldc:config.obj
 0003:00004cb8       __D2rt4util6random11__moduleRefZ 00468cb8     druntime-ldc:random.obj
 0003:00004cd0       __D2gc2os11__moduleRefZ    00468cd0     druntime-ldc:os.obj
 0003:00004ce8       __D2gc4bits11__moduleRefZ  00468ce8     druntime-ldc:bits.obj
 0003:00004d18       __D4core3sys7windows7dbghelp11__moduleRefZ 00468d18     druntime-ldc:dbghelp.obj
 0003:00004dc0       _Dobject.Throwable@TypeDescriptor 00468dc0     druntime-ldc:demangle.obj
 0003:00004de0       _Dcore.demangle.Demangle.ParseException@TypeDescriptor 00468de0     druntime-ldc:demangle.obj
 0003:00004e10       _Dcore.demangle.Demangle.OverflowException@TypeDescriptor 00468e10     druntime-ldc:demangle.obj
 0003:00004e68       __D4core8demangle11__moduleRefZ 00468e68     druntime-ldc:demangle.obj
 0003:00004e88       __D4core10checkedint11__moduleRefZ 00468e88     druntime-ldc:checkedint.obj
 0003:00004e90       ?__vcrt_flsindex@@3KA      00468e90     libvcruntime:per_thread_data.obj
 0003:00004f74       ?errno_no_memory@@3HA      00468f74     libucrt:errno.obj
 0003:00004f78       ?doserrno_no_memory@@3KA   00468f78     libucrt:errno.obj
 0003:00004f7c       ?dststart@@3Utransitiondate@?A0x7639d0b4@@A 00468f7c     libucrt:tzset.obj
 0003:00004f88       ?dstend@@3Utransitiondate@?A0x7639d0b4@@A 00468f88     libucrt:tzset.obj
 0003:00004fd0       ?__acrt_flsindex@@3KA      00468fd0     libucrt:per_thread_data.obj
 0003:000050a0       __mbctypes                 004690a0     libucrt:mbctype.obj
 0003:000051a8       __mbcasemaps               004691a8     libucrt:mbctype.obj
 0003:000052a8       ?__rgctypeflag@@3PADA      004692a8     libucrt:mbctype.obj
 0003:000052b0       ?__rgcode_page_info@@3PAUcode_page_info@@A 004692b0     libucrt:mbctype.obj
 0003:00005620       ?tzstd_program@@3PADA      00469620     libucrt:timeset.obj
 0003:00005660       ?tzdst_program@@3PADA      00469660     libucrt:timeset.obj
 0003:000056a0       ?tzname_states@@3PAY01PADA 004696a0     libucrt:timeset.obj
 0003:000056b0       ?__DAZ_ENABLED@?1??__set_fpsr_sse2@@9@9 004696b0     libucrt:fpctrl.obj
 0003:00005b3c       ?__vcrt_startup_thread_ptd@@3U__vcrt_ptd@@A 00469b3c     libvcruntime:per_thread_data.obj
 0003:00005b64       ?module_handles@@3PAPAUHINSTANCE__@@A 00469b64     libvcruntime:winapi_downlevel.obj
 0003:00005b74       ?encoded_function_pointers@@3PAPAXA 00469b74     libvcruntime:winapi_downlevel.obj
 0003:00005bc0       ?heap@@3V_HeapManager@@A   00469bc0     libvcruntime:undname.obj
 0003:00005bd4       ___vcrt_lock_table         00469bd4     libvcruntime:locks.obj
 0003:00005bec       ___vcrt_locks_initialized  00469bec     libvcruntime:locks.obj
 0003:00005c08       ?module_local_atexit_table@@3U_onexit_table_t@@A 00469c08     LIBCMT:utility.obj
 0003:00005c14       ?module_local_at_quick_exit_table@@3U_onexit_table_t@@A 00469c14     LIBCMT:utility.obj
 0003:00005c20       ?is_initialized_as_dll@@3_NA 00469c20     LIBCMT:utility.obj
 0003:00005c38       _GS_ExceptionRecord        00469c38     LIBCMT:gs_report.obj
 0003:00005c88       _GS_ContextRecord          00469c88     LIBCMT:gs_report.obj
 0003:00005f54       ?narrow_tmpfile_buffer_pointers@@3PAPADA 00469f54     libucrt:tmpfile.obj
 0003:00005f60       ?wide_tmpfile_buffer_pointers@@3PAPA_WA 00469f60     libucrt:tmpfile.obj
 0003:00005f78       ?__acrt_app_type@@3W4_crt_app_type@@A 00469f78     libucrt:report_runtime_error.obj
 0003:00005f7c       ?user_matherr@@3V?$dual_state_global@P6AHPAU_exception@@@Z@__crt_state_management@@A 00469f7c     libucrt:matherr.obj
 0003:00005f80       ?program_name@?1???$common_configure_argv@D@@YAHW4_crt_argv_mode@@@Z@4PADA 00469f80     libucrt:argv_parsing.obj
 0003:00006098       ?c_termination_complete@@3JA 0046a098     libucrt:exit.obj
 0003:0000609c       ?thread_local_exit_callback_func@@3P6GXPAXK0@ZA 0046a09c     libucrt:exit.obj
 0003:000060c0       ?__acrt_global_new_mode@@3V?$dual_state_global@J@__crt_state_management@@A 0046a0c0     libucrt:new_mode.obj
 0003:000060e0       ?last_tz@@3PADA            0046a0e0     libucrt:tzset.obj
 0003:000060e8       ?tz_api_used@@3HA          0046a0e8     libucrt:tzset.obj
 0003:000060f0       ?tz_info@@3U_TIME_ZONE_INFORMATION@@A 0046a0f0     libucrt:tzset.obj
 0003:0000619c       ?first_time@?1??__tzset@@9@4JA 0046a19c     libucrt:tzset.obj
 0003:000061a0       ?__acrt_invalid_parameter_handler@@3V?$dual_state_global@P6AXPB_W00II@Z@__crt_state_management@@A 0046a1a0     libucrt:invalid_parameter.obj
 0003:000063b8       ?__acrt_lock_table@@3PAU_RTL_CRITICAL_SECTION@@A 0046a3b8     libucrt:locks.obj
 0003:00006508       ?__acrt_locks_initialized@@3IA 0046a508     libucrt:locks.obj
 0003:00006510       ?module_handles@@3PAPAUHINSTANCE__@@A 0046a510     libucrt:winapi_thunks.obj
 0003:00006560       ?encoded_function_pointers@@3PAPAXA 0046a560     libucrt:winapi_thunks.obj
 0003:000065ec       ?state_cache@?1???$get_cached_win_policy@Ubegin_thread_init_policy_properties@?1??__acrt_get_begin_thread_init_policy@@YA?AW4begin_thread_init_policy@@XZ@@@YA?AW4begin_thread_init_policy@@W4AppPolicyThreadInitializationType@@@Z@4JA 0046a5ec     libucrt:win_policies.obj
 0003:000065f4       ?ctrlc_action@@3V?$dual_state_global@P6AXH@Z@__crt_state_management@@A 0046a5f4     libucrt:signal.obj
 0003:000065f8       ?ctrlbreak_action@@3V?$dual_state_global@P6AXH@Z@__crt_state_management@@A 0046a5f8     libucrt:signal.obj
 0003:000065fc       ?abort_action@@3V?$dual_state_global@P6AXH@Z@__crt_state_management@@A 0046a5fc     libucrt:signal.obj
 0003:00006600       ?term_action@@3V?$dual_state_global@P6AXH@Z@__crt_state_management@@A 0046a600     libucrt:signal.obj
 0003:00006604       ?enable_percent_n@@3IA     0046a604     libucrt:printf_count_output.obj
 0003:00006608       ?__acrt_new_handler@@3V?$dual_state_global@P6AHI@Z@__crt_state_management@@A 0046a608     libucrt:new_handler.obj
 0003:0000661c       ?fSystemSet@@3HA           0046a61c     libucrt:mbctype.obj
 0003:00006620       ?initialized@?1??__acrt_initialize_multibyte@@9@4_NA 0046a620     libucrt:mbctype.obj
 0003:00006634       ?_tzname@@3V?$dual_state_global@PAPAD@__crt_state_management@@A 0046a634     libucrt:timeset.obj
 0003:0000663c       __pmatherr_set             0046a63c     libucrt:libm_error.obj
 0005:00000000       __guard_fids__             0046c000     libvcruntime:frame.obj
 0005:00000004       __guard_fids__             0046c004     libvcruntime:frame.obj
 0005:0000000c       __guard_fids__             0046c00c     libvcruntime:frame.obj
 0005:00000014       __guard_fids__             0046c014     libvcruntime:frame.obj
 0005:00000018       __guard_fids__             0046c018     libvcruntime:frame.obj
 0005:0000001c       __guard_fids__             0046c01c     libvcruntime:frame.obj
 0005:00000020       __guard_fids____vcrt_initialize_ptd 0046c020     libvcruntime:per_thread_data.obj
 0005:00000024       __guard_fids__             0046c024     libvcruntime:jbcxrval.obj
 0005:00000028       __guard_fids__             0046c028     LIBCMT:exe_main.obj
 0005:0000002c       __guard_fids__             0046c02c     LIBCMT:exe_main.obj
 0005:00000030       __guard_fids__             0046c030     LIBCMT:exe_main.obj
 0005:00000034       __guard_fids_?pre_c_initialization@@YAHXZ 0046c034     LIBCMT:exe_main.obj
 0005:0000003c       __guard_fids__             0046c03c     LIBCMT:std_type_info_static.obj
 0005:00000040       __guard_fids____scrt_set_unhandled_exception_filter 0046c040     LIBCMT:utility_desktop.obj
 0005:00000044       __guard_fids__             0046c044     legacy_stdio_wide_specifiers:legacy_stdio_wide_specifiers.obj
 0005:00000048       __guard_fids__set_terminate 0046c048     libucrt:terminate.obj
 0005:0000004c       __guard_fids___beginthreadex 0046c04c     libucrt:thread.obj
 0005:00000050       __guard_fids____dcrt_uninitialize_environments_nolock 0046c050     libucrt:environment_initialization.obj
 0005:00000058       __guard_fids__             0046c058     libucrt:initialization.obj
 0005:000000b8       __guard_fids____acrt_initialize_ptd 0046c0b8     libucrt:per_thread_data.obj
 0005:000000bc       __guard_fids__             0046c0bc     libucrt:stdio_initializer.obj
 0005:000000c0       __guard_fids__             0046c0c0     libucrt:stdio_initializer.obj
 0005:000000c4       __guard_fids_??$expand_argument_wildcards@D@@YAHQAD0AAV?$argument_list@D@?A0x5f5c8891@@@Z 0046c0c4     libucrt:argv_wildcards.obj
 0005:000000c8       __guard_fids__             0046c0c8     libucrt:locale_initializer.obj
 0005:000000cc       __guard_fids__             0046c0cc     libucrt:tmpfile_initializer.obj
 0005:000000d0       __guard_fids__             0046c0d0     libucrt:multibyte_initializer.obj
 0005:000000d4       __guard_fids__             0046c0d4     libucrt:timeset_initializer.obj
 0005:000000d8       __guard_fids__             0046c0d8     libucrt:console_output_initializer.obj
 0005:000000dc       __guard_fids____libm_error_support 0046c0dc     libucrt:libm_error.obj
 0005:000000e0       __guard_fids__             0046c0e0     libucrt:sse2_initializer.obj
